
newtest.elf:     file format elf32-littlenios2
newtest.elf
architecture: nios2:r1, flags 0x00000112:
EXEC_P, HAS_SYMS, D_PAGED
start address 0x00000244

Program Header:
    LOAD off    0x00001000 vaddr 0x00000000 paddr 0x00000000 align 2**12
         filesz 0x00000020 memsz 0x00000020 flags r-x
    LOAD off    0x00001020 vaddr 0x00000020 paddr 0x00000020 align 2**12
         filesz 0x0001f668 memsz 0x0001f668 flags r-x
    LOAD off    0x00020688 vaddr 0x0001f688 paddr 0x000218a8 align 2**12
         filesz 0x00002220 memsz 0x00002220 flags rw-
    LOAD off    0x00022ac8 vaddr 0x00023ac8 paddr 0x00023ac8 align 2**12
         filesz 0x00000000 memsz 0x0000d604 flags rw-

Sections:
Idx Name          Size      VMA       LMA       File off  Algn
  0 .entry        00000020  00000000  00000000  00001000  2**5
                  CONTENTS, ALLOC, LOAD, READONLY, CODE
  1 .exceptions   00000224  00000020  00000020  00001020  2**2
                  CONTENTS, ALLOC, LOAD, READONLY, CODE
  2 .text         0001e9d4  00000244  00000244  00001244  2**2
                  CONTENTS, ALLOC, LOAD, READONLY, CODE
  3 .rodata       00000a70  0001ec18  0001ec18  0001fc18  2**2
                  CONTENTS, ALLOC, LOAD, READONLY, DATA
  4 .rwdata       00002220  0001f688  000218a8  00020688  2**2
                  CONTENTS, ALLOC, LOAD, DATA, SMALL_DATA
  5 .bss          0000d604  00023ac8  00023ac8  00022ac8  2**2
                  ALLOC, SMALL_DATA
  6 .SDRAM        00000000  000310cc  000310cc  000228a8  2**0
                  CONTENTS
  7 .Flash_flash_data 00000000  0c000000  0c000000  000228a8  2**0
                  CONTENTS
  8 .comment      00000023  00000000  00000000  000228a8  2**0
                  CONTENTS, READONLY
  9 .debug_aranges 00001180  00000000  00000000  000228d0  2**3
                  CONTENTS, READONLY, DEBUGGING
 10 .debug_info   00033e36  00000000  00000000  00023a50  2**0
                  CONTENTS, READONLY, DEBUGGING
 11 .debug_abbrev 0000bee6  00000000  00000000  00057886  2**0
                  CONTENTS, READONLY, DEBUGGING
 12 .debug_line   00010147  00000000  00000000  0006376c  2**0
                  CONTENTS, READONLY, DEBUGGING
 13 .debug_frame  00003f7c  00000000  00000000  000738b4  2**2
                  CONTENTS, READONLY, DEBUGGING
 14 .debug_str    000057ba  00000000  00000000  00077830  2**0
                  CONTENTS, READONLY, DEBUGGING
 15 .debug_loc    0001b254  00000000  00000000  0007cfea  2**0
                  CONTENTS, READONLY, DEBUGGING
 16 .debug_alt_sim_info 00000020  00000000  00000000  00098240  2**2
                  CONTENTS, READONLY, DEBUGGING
 17 .debug_ranges 000019a0  00000000  00000000  00098260  2**3
                  CONTENTS, READONLY, DEBUGGING
 18 .thread_model 00000006  00000000  00000000  0009fc02  2**0
                  CONTENTS, READONLY
 19 .cpu          00000005  00000000  00000000  0009fc08  2**0
                  CONTENTS, READONLY
 20 .qsys         00000001  00000000  00000000  0009fc0d  2**0
                  CONTENTS, READONLY
 21 .simulation_enabled 00000001  00000000  00000000  0009fc0e  2**0
                  CONTENTS, READONLY
 22 .sysid_hash   00000004  00000000  00000000  0009fc0f  2**0
                  CONTENTS, READONLY
 23 .sysid_base   00000004  00000000  00000000  0009fc13  2**0
                  CONTENTS, READONLY
 24 .sysid_time   00000004  00000000  00000000  0009fc17  2**0
                  CONTENTS, READONLY
 25 .stderr_dev   00000009  00000000  00000000  0009fc1b  2**0
                  CONTENTS, READONLY
 26 .stdin_dev    00000009  00000000  00000000  0009fc24  2**0
                  CONTENTS, READONLY
 27 .stdout_dev   00000009  00000000  00000000  0009fc2d  2**0
                  CONTENTS, READONLY
 28 .sopc_system_name 0000000b  00000000  00000000  0009fc36  2**0
                  CONTENTS, READONLY
 29 .quartus_project_dir 0000002f  00000000  00000000  0009fc41  2**0
                  CONTENTS, READONLY
 30 .sopcinfo     0018e939  00000000  00000000  0009fc70  2**0
                  CONTENTS, READONLY
SYMBOL TABLE:
00000000 l    d  .entry	00000000 .entry
00000020 l    d  .exceptions	00000000 .exceptions
00000244 l    d  .text	00000000 .text
0001ec18 l    d  .rodata	00000000 .rodata
0001f688 l    d  .rwdata	00000000 .rwdata
00023ac8 l    d  .bss	00000000 .bss
000310cc l    d  .SDRAM	00000000 .SDRAM
0c000000 l    d  .Flash_flash_data	00000000 .Flash_flash_data
00000000 l    d  .comment	00000000 .comment
00000000 l    d  .debug_aranges	00000000 .debug_aranges
00000000 l    d  .debug_info	00000000 .debug_info
00000000 l    d  .debug_abbrev	00000000 .debug_abbrev
00000000 l    d  .debug_line	00000000 .debug_line
00000000 l    d  .debug_frame	00000000 .debug_frame
00000000 l    d  .debug_str	00000000 .debug_str
00000000 l    d  .debug_loc	00000000 .debug_loc
00000000 l    d  .debug_alt_sim_info	00000000 .debug_alt_sim_info
00000000 l    d  .debug_ranges	00000000 .debug_ranges
00000000 l    df *ABS*	00000000 ../newtest_bsp//obj/HAL/src/crt0.o
0000027c l       .text	00000000 alt_after_alt_main
00000000 l    df *ABS*	00000000 alt_irq_handler.c
00000000 l    df *ABS*	00000000 alt_instruction_exception_entry.c
00000000 l    df *ABS*	00000000 hello_ucosii.c
00000000 l    df *ABS*	00000000 memset.c
00000000 l    df *ABS*	00000000 printf.c
00000000 l    df *ABS*	00000000 puts.c
00000000 l    df *ABS*	00000000 sprintf.c
00000000 l    df *ABS*	00000000 strcmp.c
00000000 l    df *ABS*	00000000 strcpy.c
00000000 l    df *ABS*	00000000 strlen.c
00000000 l    df *ABS*	00000000 vfprintf.c
0001ee8a l     O .rodata	00000010 zeroes.4240
0001ee9a l     O .rodata	00000010 blanks.4239
00000000 l    df *ABS*	00000000 vfprintf.c
0001eeaa l     O .rodata	00000010 zeroes.4255
000061a0 l     F .text	000000bc __sbprintf
0001eeba l     O .rodata	00000010 blanks.4254
00000000 l    df *ABS*	00000000 wsetup.c
00000000 l    df *ABS*	00000000 dtoa.c
000063b0 l     F .text	00000200 quorem
00000000 l    df *ABS*	00000000 fflush.c
00000000 l    df *ABS*	00000000 findfp.c
00007f6c l     F .text	00000008 __fp_lock
00007f74 l     F .text	00000008 __fp_unlock
00007f88 l     F .text	0000019c __sinit.part.1
00000000 l    df *ABS*	00000000 mallocr.c
00000000 l    df *ABS*	00000000 fvwrite.c
00000000 l    df *ABS*	00000000 fwalk.c
00000000 l    df *ABS*	00000000 impure.c
0001f698 l     O .rwdata	00000424 impure_data
00000000 l    df *ABS*	00000000 locale.c
0001fadc l     O .rwdata	00000020 lc_ctype_charset
0001fabc l     O .rwdata	00000020 lc_message_charset
0001fafc l     O .rwdata	00000038 lconv
00000000 l    df *ABS*	00000000 makebuf.c
00000000 l    df *ABS*	00000000 mallocr.c
00000000 l    df *ABS*	00000000 memchr.c
00000000 l    df *ABS*	00000000 memcpy.c
00000000 l    df *ABS*	00000000 memmove.c
00000000 l    df *ABS*	00000000 mprec.c
0001eeec l     O .rodata	0000000c p05.2710
00000000 l    df *ABS*	00000000 mallocr.c
00000000 l    df *ABS*	00000000 s_fpclassify.c
00000000 l    df *ABS*	00000000 sbrkr.c
00000000 l    df *ABS*	00000000 stdio.c
00000000 l    df *ABS*	00000000 vfprintf.c
0001f010 l     O .rodata	00000010 zeroes.4184
0001f020 l     O .rodata	00000010 blanks.4183
00000000 l    df *ABS*	00000000 vfprintf.c
0000c434 l     F .text	000000fc __sprint_r.part.0
0001f040 l     O .rodata	00000010 blanks.4199
0001f030 l     O .rodata	00000010 zeroes.4200
0000d83c l     F .text	000000bc __sbprintf
00000000 l    df *ABS*	00000000 writer.c
00000000 l    df *ABS*	00000000 closer.c
00000000 l    df *ABS*	00000000 mallocr.c
00000000 l    df *ABS*	00000000 fclose.c
00000000 l    df *ABS*	00000000 fputwc.c
00000000 l    df *ABS*	00000000 fstatr.c
00000000 l    df *ABS*	00000000 int_errno.c
00000000 l    df *ABS*	00000000 isattyr.c
00000000 l    df *ABS*	00000000 lseekr.c
00000000 l    df *ABS*	00000000 readr.c
00000000 l    df *ABS*	00000000 wbuf.c
00000000 l    df *ABS*	00000000 wcrtomb.c
00000000 l    df *ABS*	00000000 wctomb_r.c
00000000 l    df *ABS*	00000000 libgcc2.c
00000000 l    df *ABS*	00000000 libgcc2.c
00000000 l    df *ABS*	00000000 lib2-divmod.c
0000ed40 l     F .text	0000006c udivmodsi4
00000000 l    df *ABS*	00000000 adddf3.c
00000000 l    df *ABS*	00000000 divdf3.c
00000000 l    df *ABS*	00000000 eqdf2.c
00000000 l    df *ABS*	00000000 gedf2.c
00000000 l    df *ABS*	00000000 ledf2.c
00000000 l    df *ABS*	00000000 muldf3.c
00000000 l    df *ABS*	00000000 subdf3.c
00000000 l    df *ABS*	00000000 fixdfsi.c
00000000 l    df *ABS*	00000000 floatsidf.c
00000000 l    df *ABS*	00000000 floatunsidf.c
00000000 l    df *ABS*	00000000 libgcc2.c
00000000 l    df *ABS*	00000000 libgcc2.c
00000000 l    df *ABS*	00000000 alt_close.c
0001146c l     F .text	00000050 alt_get_errno
00000000 l    df *ABS*	00000000 alt_dev.c
0001158c l     F .text	0000002c alt_dev_null_write
00000000 l    df *ABS*	00000000 alt_errno.c
00000000 l    df *ABS*	00000000 alt_fstat.c
000115b8 l     F .text	00000050 alt_get_errno
00000000 l    df *ABS*	00000000 alt_isatty.c
000116b8 l     F .text	00000050 alt_get_errno
00000000 l    df *ABS*	00000000 alt_load.c
000117ac l     F .text	00000064 alt_load_section
00000000 l    df *ABS*	00000000 alt_lseek.c
00011890 l     F .text	00000050 alt_get_errno
00000000 l    df *ABS*	00000000 alt_main.c
00000000 l    df *ABS*	00000000 alt_read.c
00011a88 l     F .text	00000050 alt_get_errno
00000000 l    df *ABS*	00000000 alt_release_fd.c
00000000 l    df *ABS*	00000000 alt_sbrk.c
0002181c l     O .rwdata	00000004 heap_end
00000000 l    df *ABS*	00000000 alt_write.c
00011ce4 l     F .text	00000050 alt_get_errno
00000000 l    df *ABS*	00000000 alt_env_lock.c
00021820 l     O .rwdata	00000004 lockid
00023b48 l     O .bss	00000004 locks
00000000 l    df *ABS*	00000000 alt_malloc_lock.c
00021824 l     O .rwdata	00000004 lockid
00023b50 l     O .bss	00000004 locks
00000000 l    df *ABS*	00000000 os_core.c
00013718 l     F .text	00000044 OS_InitMisc
0001375c l     F .text	00000068 OS_InitRdyList
000138bc l     F .text	000000e0 OS_InitTCBList
0001363c l     F .text	000000dc OS_InitEventList
000137c4 l     F .text	0000007c OS_InitTaskIdle
00013840 l     F .text	0000007c OS_InitTaskStat
00013b1c l     F .text	00000070 OS_SchedNew
00000000 l    df *ABS*	00000000 os_dbg.c
00000000 l    df *ABS*	00000000 os_flag.c
00015920 l     F .text	00000110 OS_FlagTaskRdy
00015678 l     F .text	000001c4 OS_FlagBlock
00000000 l    df *ABS*	00000000 os_mbox.c
00000000 l    df *ABS*	00000000 os_mem.c
00000000 l    df *ABS*	00000000 os_q.c
00000000 l    df *ABS*	00000000 os_sem.c
00000000 l    df *ABS*	00000000 os_task.c
00000000 l    df *ABS*	00000000 os_time.c
00000000 l    df *ABS*	00000000 alt_sys_init.c
0001a950 l     F .text	00000038 alt_dev_reg
000200e4 l     O .rwdata	0000106c JTAG_UART
00021150 l     O .rwdata	00000030 AV_Config
00021180 l     O .rwdata	00000030 Audio_Subsystem_Audio
000211b0 l     O .rwdata	0000002c Char_LCD_16x2
000211dc l     O .rwdata	0000002c IrDA
00021208 l     O .rwdata	0000002c Expansion_JP5
00021234 l     O .rwdata	0000002c Green_LEDs
00021260 l     O .rwdata	0000002c HEX3_HEX0
0002128c l     O .rwdata	0000002c HEX7_HEX4
000212b8 l     O .rwdata	0000002c Pushbuttons
000212e4 l     O .rwdata	0000002c Red_LEDs
00021310 l     O .rwdata	0000002c Slider_Switches
0002133c l     O .rwdata	00000038 PS2_Port
00021374 l     O .rwdata	00000038 PS2_Port_Dual
000213ac l     O .rwdata	0000002c rs232_0
000213d8 l     O .rwdata	0000002c Serial_Port
00021404 l     O .rwdata	00000034 USB
00021438 l     O .rwdata	00000048 VGA_Subsystem_VGA_Char_Buffer
00021480 l     O .rwdata	00000054 VGA_Subsystem_VGA_Pixel_DMA
000214d4 l     O .rwdata	0000002c SD_Card
00000000 l    df *ABS*	00000000 altera_avalon_jtag_uart_fd.c
00000000 l    df *ABS*	00000000 altera_avalon_jtag_uart_init.c
0001b044 l     F .text	000002a8 altera_avalon_jtag_uart_irq
0001b2ec l     F .text	00000110 altera_avalon_jtag_uart_timeout
00000000 l    df *ABS*	00000000 altera_avalon_jtag_uart_ioctl.c
00000000 l    df *ABS*	00000000 altera_avalon_jtag_uart_read.c
00000000 l    df *ABS*	00000000 altera_avalon_jtag_uart_write.c
00000000 l    df *ABS*	00000000 altera_avalon_timer_sc.c
0001bac4 l     F .text	00000078 alt_avalon_timer_sc_irq
00000000 l    df *ABS*	00000000 altera_up_avalon_character_lcd.c
00000000 l    df *ABS*	00000000 altera_up_avalon_irda.c
00000000 l    df *ABS*	00000000 altera_up_avalon_ps2.c
00000000 l    df *ABS*	00000000 altera_up_avalon_rs232.c
00000000 l    df *ABS*	00000000 altera_up_avalon_video_character_buffer_with_dma.c
00000000 l    df *ABS*	00000000 altera_up_ps2_keyboard.c
00023ba8 l     O .bss	00000004 state.1996
00000000 l    df *ABS*	00000000 alt_alarm_start.c
00000000 l    df *ABS*	00000000 alt_dcache_flush_all.c
00000000 l    df *ABS*	00000000 alt_dev_llist_insert.c
0001d87c l     F .text	00000050 alt_get_errno
00000000 l    df *ABS*	00000000 alt_do_ctors.c
00000000 l    df *ABS*	00000000 alt_do_dtors.c
00000000 l    df *ABS*	00000000 alt_find_dev.c
00000000 l    df *ABS*	00000000 alt_icache_flush_all.c
00000000 l    df *ABS*	00000000 alt_io_redirect.c
0001dae8 l     F .text	000000c0 alt_open_fd
00000000 l    df *ABS*	00000000 alt_irq_register.c
00000000 l    df *ABS*	00000000 alt_irq_vars.c
00000000 l    df *ABS*	00000000 alt_open.c
0001ddd0 l     F .text	00000050 alt_get_errno
0001de20 l     F .text	000000cc alt_file_locked
00000000 l    df *ABS*	00000000 alt_tick.c
00000000 l    df *ABS*	00000000 altera_nios2_gen2_irq.c
00000000 l    df *ABS*	00000000 os_cpu_a.o
00000040 l       *ABS*	00000000 OSCtxSw_SWITCH_PC
00000000 l    df *ABS*	00000000 os_cpu_c.c
00000014 l       *ABS*	00000000 OSTCBNext_OFFSET
00000032 l       *ABS*	00000000 OSTCBPrio_OFFSET
00000000 l       *ABS*	00000000 OSTCBStkPtr_OFFSET
00000000 l    df *ABS*	00000000 alt_find_file.c
00000000 l    df *ABS*	00000000 alt_get_fd.c
00000000 l    df *ABS*	00000000 alt_icache_flush.c
00000000 l    df *ABS*	00000000 atexit.c
00000000 l    df *ABS*	00000000 exit.c
00000000 l    df *ABS*	00000000 memcmp.c
00000000 l    df *ABS*	00000000 __atexit.c
00000000 l    df *ABS*	00000000 __call_atexit.c
00000000 l    df *ABS*	00000000 alt_exit.c
00023bb8 g     O .bss	00000004 alt_instruction_exception_handler
0000a94c g     F .text	00000074 _mprec_log10
00021872 g     O .rwdata	00000002 OSTaskNameSize
0000aa38 g     F .text	0000008c __any_on
0000dda8 g     F .text	00000054 _isatty_r
0001eef8 g     O .rodata	00000028 __mprec_tinytens
000119b4 g     F .text	000000d4 alt_main
00002174 g     F .text	00000090 strcpy
00001f50 g     F .text	000000a8 _puts_r
00030fcc g     O .bss	00000100 alt_irq
0001c660 g     F .text	0000005c alt_up_ps2_disable_read_interrupt
0000ddfc g     F .text	0000005c _lseek_r
00023acc g     O .bss	00000004 x6
00016d0c g     F .text	000000d0 OS_MemInit
000218a8 g       *ABS*	00000000 __flash_rwdata_start
0001a8ec g     F .text	00000064 OSTimeSet
00023ad0 g     O .bss	00000001 rotorStand
0001bc30 g     F .text	0000003c alt_up_character_lcd_send_cmd
0000ffd4 g     F .text	00000084 .hidden __eqdf2
00012394 g     F .text	00000610 OSEventPendMulti
000310cc g       *ABS*	00000000 __alt_heap_start
0001e42c g     F .text	00000020 OSTaskCreateHook
00023c0c g     O .bss	00002000 task1_stk
00001f14 g     F .text	0000003c printf
0002184a g     O .rwdata	00000002 OSMboxEn
000129f8 g     F .text	0000007c OSIntEnter
0000e008 g     F .text	0000009c _wcrtomb_r
0000b1cc g     F .text	0000005c __sseek
000082bc g     F .text	00000010 __sinit
0001cfe8 g     F .text	00000100 alt_up_char_buffer_string
0000deb4 g     F .text	00000138 __swbuf_r
0001c480 g     F .text	00000034 read_CE_bit
0002185a g     O .rwdata	00000002 OSQEn
00008d68 g     F .text	0000007c _setlocale_r
00008124 g     F .text	00000068 __sfmoreglue
00012068 g     F .text	000000d0 __malloc_unlock
0001e488 g     F .text	0000001c OSTaskStatHook
0001c804 g     F .text	000000a4 alt_up_ps2_read_data_byte_timeout
0001ccf8 g     F .text	00000090 alt_up_rs232_read_fd
00023b58 g     O .bss	00000001 OSLockNesting
00021898 g     O .rwdata	00000002 OSDataSize
00023b59 g     O .bss	00000001 OSRunning
0001cf1c g     F .text	000000cc alt_up_char_buffer_draw
000099c8 g     F .text	0000015c memmove
0001e4c0 g     F .text	0000001c OSInitHookBegin
00021500 g     O .rwdata	00000198 key_table
00023ad4 g     O .bss	00000004 byte1
00021890 g     O .rwdata	00000002 OSTmrSize
000082a4 g     F .text	00000018 _cleanup
00009b24 g     F .text	000000a8 _Balloc
00023b5c g     O .bss	00000004 OSIdleCtr
00010058 g     F .text	000000e0 .hidden __gtdf2
0001e1e0 g     F .text	00000020 altera_nios2_gen2_irq_init
0001e2ac g       .text	00000000 OSStartTsk
00000000  w      *UND*	00000000 __errno
0001bbbc g     F .text	00000074 get_DDRAM_addr
00013e54 g     F .text	000002d4 OS_TCBInit
00000000 g     F .entry	0000001c __reset
00001930 g     F .text	000000b8 setX
00021896 g     O .rwdata	00000002 OSTmrWheelTblSize
0001d144 g     F .text	00000070 get_multi_byte_make_code_index
00000020 g       *ABS*	00000000 __flash_exceptions_start
00021836 g     O .rwdata	00000002 OSEventSize
00023b60 g     O .bss	00000001 OSPrioHighRdy
0000dd50 g     F .text	00000058 _fstat_r
0001e44c g     F .text	00000020 OSTaskDelHook
00023b34 g     O .bss	00000004 errno
0000b148 g     F .text	00000008 __seofread
0001e28c g       .text	00000000 OSStartHighRdy
000191f0 g     F .text	000001ec OSTaskCreateExt
0000b3fc g     F .text	00001038 ___svfiprintf_internal_r
000151c4 g     F .text	00000068 OSFlagPendGetFlagsRdy
00021876 g     O .rwdata	00000002 OSTaskStatStkSize
000142b4 g     F .text	00000308 OSFlagAccept
000173e0 g     F .text	000000b8 OSQFlush
0001d52c g     F .text	00000064 set_keyboard_rate
00016ddc g     F .text	00000140 OSQAccept
00023b40 g     O .bss	00000004 alt_argv
000297cc g       *ABS*	00000000 _gp
00023ad8 g     O .bss	00000004 ringinstelling
00019034 g     F .text	000001bc OSTaskCreate
00018af4 g     F .text	00000540 OSTaskChangePrio
00023b54 g     O .bss	00000004 alt_heapsem
0001f688 g     O .rwdata	00000010 ringInstellingen
00023adc g     O .bss	00000004 PS2_data
00014128 g     F .text	0000018c OSDebugInit
000193dc g     F .text	000003e0 OSTaskDel
0001d6a4 g     F .text	0000007c reset_keyboard
0001ff64 g     O .rwdata	00000180 alt_fd_list
0002dda8 g     O .bss	00000370 OSFlagTbl
00013428 g     F .text	000000b4 OS_EventTaskRemove
0001da28 g     F .text	00000090 alt_find_dev
00009890 g     F .text	00000138 memcpy
00021860 g     O .rwdata	00000002 OSRdyTblSize
0001bdcc g     F .text	00000050 alt_up_character_lcd_write_fd
0001d0e8 g     F .text	0000005c alt_up_char_buffer_clear
00007f7c g     F .text	0000000c _cleanup_r
00011294 g     F .text	000000d0 .hidden __floatsidf
0001dba8 g     F .text	00000078 alt_io_redirect
00010138 g     F .text	000000e0 .hidden __ltdf2
0001ec18 g       *ABS*	00000000 __DTOR_END__
0001c34c g     F .text	00000090 alt_up_irda_write_fd
0001cc84 g     F .text	00000074 alt_up_rs232_read_data
00001ff8 g     F .text	00000014 puts
0001e7d0 g     F .text	0000009c alt_exception_cause_generated_bad_addr
00012138 g     F .text	00000120 OSEventNameGet
00021844 g     O .rwdata	00000002 OSFlagMax
0000b02c g     F .text	00000074 __fpclassifyd
0000a8a8 g     F .text	000000a4 __ratio
00012a74 g     F .text	000000f4 OSIntExit
0000d818 g     F .text	00000024 __vfiprintf_internal
0002187e g     O .rwdata	00000002 OSTCBSize
00023b61 g     O .bss	00000001 OSPrioCur
0001c148 g     F .text	00000040 alt_up_irda_get_used_space_in_read_FIFO
0001b550 g     F .text	000002b4 altera_avalon_jtag_uart_read
00000000  w      *UND*	00000000 malloc
00001ee8 g     F .text	0000002c _printf_r
0000ee5c g     F .text	00000008 .hidden __udivsi3
00011708 g     F .text	000000a4 isatty
00021864 g     O .rwdata	00000002 OSStkWidth
0001ef48 g     O .rodata	000000c8 __mprec_tens
00021858 g     O .rwdata	00000002 OSPtrSize
00008de4 g     F .text	0000000c __locale_charset
00021838 g     O .rwdata	00000002 OSEventTblSize
0001c0ec g     F .text	0000005c alt_up_irda_disable_read_interrupt
0001e200 g       .text	00000000 OSCtxSw
0001e744 g     F .text	0000008c alt_icache_flush
00023b30 g     O .bss	00000004 __malloc_top_pad
00023b64 g     O .bss	00000004 OSTCBList
00023b38 g     O .bss	00000004 alt_fd_list_lock
000217f4 g     O .rwdata	00000004 __mb_cur_max
00008e14 g     F .text	0000000c _localeconv_r
00009f30 g     F .text	0000003c __i2b
00008720 g     F .text	000004c0 __sfvwrite_r
0002e118 g     O .bss	00000c30 OSMemTbl
00023b68 g     O .bss	00000001 OSTickStepState
0000b0a0 g     F .text	00000054 _sbrk_r
00001604 g     F .text	0000032c select
0002185c g     O .rwdata	00000002 OSQMax
0002ed48 g     O .bss	00000800 OSTaskStatStk
0001693c g     F .text	000000f8 OSMemNameGet
0002183c g     O .rwdata	00000002 OSFlagEn
0000de58 g     F .text	0000005c _read_r
00021882 g     O .rwdata	00000002 OSTimeTickHookEn
00023bbc g     O .bss	00000028 command
00015a30 g     F .text	000000a0 OS_FlagUnlink
00017900 g     F .text	00000168 OSQPost
00021814 g     O .rwdata	00000004 alt_max_fd
0001cc00 g     F .text	00000044 alt_up_rs232_check_parity
000139ec g     F .text	00000064 OS_MemCopy
00013a50 g     F .text	000000cc OS_Sched
0000da6c g     F .text	000000f0 _fclose_r
00023ae0 g     O .bss	00000004 x5
0001684c g     F .text	000000f0 OSMemGet
00016548 g     F .text	00000110 OSMboxQuery
00019abc g     F .text	000001c0 OSTaskNameSet
0001c4b4 g     F .text	00000030 read_num_bytes_available
00007f3c g     F .text	00000030 fflush
00021698 g     O .rwdata	00000066 ascii_codes
00023b2c g     O .bss	00000004 __malloc_max_sbrked_mem
00023b6c g     O .bss	00000004 OSCtxSwCtr
0001e4a4 g     F .text	0000001c OSTimeTickHook
0001dc20 g     F .text	000001b0 alt_irq_register
00021846 g     O .rwdata	00000002 OSFlagNameSize
0001c41c g     F .text	00000034 read_RI_bit
000134dc g     F .text	000000fc OS_EventTaskRemoveMulti
0000ee6c g     F .text	0000089c .hidden __adddf3
000217e4 g     O .rwdata	00000004 rotorStanden
000132dc g     F .text	0000014c OS_EventTaskWaitMulti
0000a650 g     F .text	0000011c __b2d
0002185e g     O .rwdata	00000002 OSQSize
0000e7b0 g     F .text	00000590 .hidden __umoddi3
000118e0 g     F .text	000000d4 lseek
00018404 g     F .text	00000268 OSSemPend
000007ec g     F .text	00000230 rotateTask
000217ec g     O .rwdata	00000004 _global_impure_ptr
0000aac4 g     F .text	00000568 _realloc_r
00021848 g     O .rwdata	00000002 OSLowestPrio
000310cc g       *ABS*	00000000 __bss_end
0001e514 g     F .text	00000020 OSTCBInitHook
00023ae4 g     O .bss	00000001 letter
0002188e g     O .rwdata	00000002 OSTmrCfgTicksPerSec
0001e0dc g     F .text	00000104 alt_tick
000162dc g     F .text	00000110 OSMboxPost
0000e1f0 g     F .text	000005c0 .hidden __udivdi3
0000db70 g     F .text	00000184 _fputwc_r
00021830 g     O .rwdata	00000002 OSEventEn
0001ef20 g     O .rodata	00000028 __mprec_bigtens
00009d14 g     F .text	00000104 __s2b
0002188a g     O .rwdata	00000002 OSTmrCfgNameSize
00011364 g     F .text	000000a4 .hidden __floatunsidf
0000a3f8 g     F .text	00000060 __mcmp
0c000000 g       *ABS*	00000000 __alt_mem_Flash_flash_data
0001c518 g     F .text	0000002c read_data_byte
000082dc g     F .text	00000018 __fp_lock_all
0000035c g     F .text	0000007c sendCommand
0001583c g     F .text	000000e4 OS_FlagInit
0001e044 g     F .text	00000098 alt_alarm_stop
00025c0c g     O .bss	00002000 rotateTask_stk
0001c450 g     F .text	00000030 read_RE_bit
0002186c g     O .rwdata	00000002 OSTaskIdleStkSize
00023bac g     O .bss	00000004 alt_irq_active
00017fec g     F .text	000000b0 OSSemAccept
00000ee4 g     F .text	00000088 VGA_text
00016b4c g     F .text	000000d8 OSMemPut
00016658 g     F .text	000001f4 OSMemCreate
00023b70 g     O .bss	00000004 OSIdleCtrMax
0001c188 g     F .text	0000003c alt_up_irda_get_available_space_in_write_FIFO
000000fc g     F .exceptions	000000d4 alt_irq_handler
0001ff3c g     O .rwdata	00000028 alt_dev_null
00021880 g     O .rwdata	00000002 OSTicksPerSec
00023ae8 g     O .bss	00000004 x2
000217d0 g     O .rwdata	00000004 character_buffer
0001c060 g     F .text	00000034 alt_up_character_lcd_cursor_blink_on
0001e200 g       .text	00000000 OSIntCtxSw
0001c6bc g     F .text	00000074 alt_up_ps2_write_data_byte
0001d860 g     F .text	0000001c alt_dcache_flush_all
00009e18 g     F .text	00000068 __hi0bits
0001120c g     F .text	00000088 .hidden __fixdfsi
00023b74 g     O .bss	00000004 OSTCBFreeList
000218a8 g       *ABS*	00000000 __ram_rwdata_end
0001866c g     F .text	0000016c OSSemPendAbort
00021764 g     O .rwdata	00000066 multi_byte_make_code
0002180c g     O .rwdata	00000008 alt_dev_list
00011d34 g     F .text	000000f8 write
00021884 g     O .rwdata	00000002 OSVersionNbr
0001f688 g       *ABS*	00000000 __ram_rodata_end
00011608 g     F .text	000000b0 fstat
0001cd88 g     F .text	00000094 alt_up_rs232_write_fd
00000000 g       *ABS*	00000000 __alt_mem_SDRAM
00010138 g     F .text	000000e0 .hidden __ledf2
00000570 g     F .text	0000027c cryptTask
00027c0c g     O .bss	0000008c letterLijst
0002182c g     O .rwdata	00000004 OSEndiannessTest
0000a168 g     F .text	00000140 __pow5mult
0000c548 g     F .text	000012d0 ___vfiprintf_internal_r
00023b24 g     O .bss	00000004 __nlocale_changed
0000ee64 g     F .text	00000008 .hidden __umodsi3
00000310 g     F .text	0000004c putChar
0002183e g     O .rwdata	00000002 OSFlagGrpSize
000310cc g       *ABS*	00000000 end
0001c9f8 g     F .text	00000098 alt_up_ps2_write_fd
0001c1c4 g     F .text	00000044 alt_up_irda_check_parity
0001ce5c g     F .text	00000080 alt_up_char_buffer_init
0001af04 g     F .text	00000140 altera_avalon_jtag_uart_init
00013cb0 g     F .text	000000dc OS_TaskStat
000001d0 g     F .exceptions	00000074 alt_instruction_exception_entry
0001ec18 g       *ABS*	00000000 __CTOR_LIST__
04000000 g       *ABS*	00000000 __alt_stack_pointer
0001bb3c g     F .text	00000080 alt_avalon_timer_sc_init
00011408 g     F .text	00000064 .hidden __clzsi2
0001b804 g     F .text	000002c0 altera_avalon_jtag_uart_write
000082cc g     F .text	00000004 __sfp_lock_acquire
000097a8 g     F .text	000000e8 memchr
0001399c g     F .text	00000050 OS_MemClr
0001bce0 g     F .text	00000078 alt_up_character_lcd_write
0000422c g     F .text	00001f50 ___vfprintf_internal_r
0001e2d0 g     F .text	0000015c OSTaskStkInit
00000a1c g     F .text	00000040 task1
0000200c g     F .text	00000058 _sprintf_r
00008430 g     F .text	000002f0 _free_r
00008df0 g     F .text	00000010 __locale_mb_cur_max
00013038 g     F .text	00000198 OS_EventTaskRdy
0001ea48 g     F .text	00000194 __call_exitprocs
00023b78 g     O .bss	00000001 OSCPUUsage
0001d590 g     F .text	00000114 translate_make_code
00023b20 g     O .bss	00000004 __mlocale_changed
000217f8 g     O .rwdata	00000004 __malloc_sbrk_base
00000244 g     F .text	0000003c _start
00000a5c g     F .text	000000bc task2
00023bb0 g     O .bss	00000004 _alt_tick_rate
00017498 g     F .text	000002fc OSQPend
0001a3e8 g     F .text	00000148 OSTimeDly
0000a2a8 g     F .text	00000150 __lshift
000003d8 g     F .text	00000140 getCommand
00023bb4 g     O .bss	00000004 _alt_nticks
00011ad8 g     F .text	000000fc read
0001a9bc g     F .text	000003e4 alt_sys_init
0001bf18 g     F .text	00000088 alt_up_character_lcd_shift_display
0000b230 g     F .text	000001cc __ssprint_r
0001e934 g     F .text	00000114 __register_exitproc
00023b79 g     O .bss	00000001 OSTaskCtr
0001c918 g     F .text	00000054 alt_up_ps2_clear_fifo
0001cbc4 g     F .text	0000003c alt_up_rs232_get_available_space_in_write_FIFO
00000e3c g     F .text	000000a8 VGA_box
0001a530 g     F .text	00000168 OSTimeDlyHMSM
00009f6c g     F .text	000001fc __multiply
0001bfa0 g     F .text	0000008c alt_up_character_lcd_erase_pos
0001b3fc g     F .text	00000068 altera_avalon_jtag_uart_close
0001f688 g       *ABS*	00000000 __ram_rwdata_start
0001ec18 g       *ABS*	00000000 __ram_rodata_start
00023be4 g     O .bss	00000028 __malloc_current_mallinfo
00021832 g     O .rwdata	00000002 OSEventMax
0000a76c g     F .text	0000013c __d2b
000187d8 g     F .text	00000110 OSSemPost
00012bf0 g     F .text	000000d8 OSSchedUnlock
0001ada0 g     F .text	00000060 altera_avalon_jtag_uart_read_fd
0001e648 g     F .text	000000fc alt_get_fd
00023b7c g     O .bss	00000004 OSMemFreeList
00012d34 g     F .text	000000ac OSStatInit
000155b4 g     F .text	000000c4 OSFlagQuery
00021868 g     O .rwdata	00000002 OSTaskCreateExtEn
0000d954 g     F .text	00000054 _close_r
0001d474 g     F .text	000000b8 decode_scancode
0001e8b8 g     F .text	0000007c memcmp
0001301c g     F .text	0000001c OS_Dummy
0001ae60 g     F .text	00000050 altera_avalon_jtag_uart_close_fd
000310cc g       *ABS*	00000000 __alt_stack_base
0001aeb0 g     F .text	00000054 altera_avalon_jtag_uart_ioctl_fd
0001c094 g     F .text	00000058 alt_up_irda_enable_read_interrupt
0000625c g     F .text	00000154 __swsetup_r
0002f548 g     O .bss	000001e0 OSQTbl
0000f708 g     F .text	000008cc .hidden __divdf3
0000818c g     F .text	00000118 __sfp
0000a9c0 g     F .text	00000078 __copybits
0001fb34 g     O .rwdata	00000408 __malloc_av_
000082d8 g     F .text	00000004 __sinit_lock_release
00023b80 g     O .bss	00000004 OSTCBHighRdy
00010218 g     F .text	00000724 .hidden __muldf3
0000b0f4 g     F .text	00000054 __sread
00023b84 g     O .bss	00000004 OSQFreeList
0001cb28 g     F .text	0000005c alt_up_rs232_disable_read_interrupt
0001e534 g     F .text	00000114 alt_find_file
0001d8cc g     F .text	000000a4 alt_dev_llist_insert
00011f48 g     F .text	00000120 __malloc_lock
00011c34 g     F .text	000000b0 sbrk
0000229c g     F .text	00001f90 ___svfprintf_internal_r
00012258 g     F .text	0000013c OSEventNameSet
00007ee0 g     F .text	0000005c _fflush_r
0000d9a8 g     F .text	000000c4 _calloc_r
00023b88 g     O .bss	00000001 OSRdyGrp
00001a40 g     F .text	00000074 PS2
00027c98 g     O .bss	000000a0 messages
00023aec g     O .bss	00000004 x4
00023ac8 g       *ABS*	00000000 __bss_start
00001dc4 g     F .text	00000124 memset
00000bf4 g     F .text	00000248 main
0001d1b4 g     F .text	00000070 get_single_byte_make_code_index
00023b44 g     O .bss	00000004 alt_envp
00023b28 g     O .bss	00000004 __malloc_max_total_mem
0001cedc g     F .text	00000040 alt_up_char_buffer_open_dev
0001ae00 g     F .text	00000060 altera_avalon_jtag_uart_write_fd
0000dfec g     F .text	0000001c __swbuf
0001f16c g     O .rodata	00000100 OSUnMapTbl
00021862 g     O .rwdata	00000002 OSSemEn
0001be90 g     F .text	00000088 alt_up_character_lcd_shift_cursor
0001522c g     F .text	00000388 OSFlagPost
0000b228 g     F .text	00000008 __sclose
04000000 g       *ABS*	00000000 __alt_heap_limit
0000db5c g     F .text	00000014 fclose
000131d0 g     F .text	0000010c OS_EventTaskWait
00027d38 g     O .bss	00002000 task2_stk
0001c8a8 g     F .text	00000070 alt_up_ps2_read_data_byte
00023af0 g     O .bss	00000004 messageBox
00013d8c g     F .text	000000c8 OS_TaskStatStkChk
000197bc g     F .text	00000158 OSTaskDelReq
000065b0 g     F .text	00001728 _dtoa_r
00009000 g     F .text	000007a8 _malloc_r
0000e164 g     F .text	00000030 __ascii_wctomb
000217e8 g     O .rwdata	00000004 y
00021818 g     O .rwdata	00000004 alt_errno
00012cc8 g     F .text	0000006c OSStart
00029d38 g     O .bss	00002000 task3_stk
00023af4 g     O .bss	00000002 strTemp
00011eec g     F .text	0000005c __env_unlock
00008be0 g     F .text	000000c4 _fwalk
00019c7c g     F .text	000001f8 OSTaskResume
00016c24 g     F .text	000000e8 OSMemQuery
00021874 g     O .rwdata	00000002 OSTaskStatEn
0001c208 g     F .text	00000040 alt_up_irda_write_data
0002184e g     O .rwdata	00000002 OSMemMax
00017a68 g     F .text	00000170 OSQPostFront
0001ca90 g     F .text	00000040 alt_up_ps2_open_dev
0000edac g     F .text	00000054 .hidden __divsi3
00001ab4 g     F .text	000001d0 getKey
00023af6 g     O .bss	00000002 d
00023b89 g     O .bss	00000003 OSRdyTbl
00021828 g     O .rwdata	00000002 OSDebugEn
0001bca0 g     F .text	00000040 alt_up_character_lcd_open_dev
0000830c g     F .text	00000124 _malloc_trim_r
0001c608 g     F .text	00000058 alt_up_ps2_enable_read_interrupt
0001ec18 g       *ABS*	00000000 __CTOR_END__
00021840 g     O .rwdata	00000002 OSFlagNodeSize
00021888 g     O .rwdata	00000002 OSTmrCfgMax
0001bc6c g     F .text	00000034 alt_up_character_lcd_init
000020d0 g     F .text	000000a4 strcmp
00016f1c g     F .text	000001fc OSQCreate
00019914 g     F .text	000001a8 OSTaskNameGet
0001ec18 g       *ABS*	00000000 __flash_rodata_start
00017bd8 g     F .text	0000020c OSQPostOpt
00012de0 g     F .text	0000021c OSTimeTick
00021870 g     O .rwdata	00000002 OSTaskMax
0001ec18 g       *ABS*	00000000 __DTOR_LIST__
0001809c g     F .text	00000100 OSSemCreate
00021894 g     O .rwdata	00000002 OSTmrWheelSize
00023af8 g     O .bss	00000004 sem_rotated
0001ce1c g     F .text	00000040 alt_up_rs232_open_dev
00001c84 g     F .text	000000f0 printRinginstelling
000217dc g     O .rwdata	00000004 count
0000ffd4 g     F .text	00000084 .hidden __nedf2
0002186a g     O .rwdata	00000002 OSTaskDelEn
000188e8 g     F .text	00000110 OSSemQuery
00017118 g     F .text	000002c8 OSQDel
00017794 g     F .text	0000016c OSQPendAbort
0001a988 g     F .text	00000034 alt_irq_init
00011bd4 g     F .text	00000060 alt_release_fd
00023afc g     O .bss	00000004 ControlBlock
0001c4e4 g     F .text	00000034 read_data_valid
00002064 g     F .text	0000006c sprintf
0001c02c g     F .text	00000034 alt_up_character_lcd_cursor_off
0001f050 g     O .rodata	00000100 .hidden __clz_tab
00023b1c g     O .bss	00000004 _PathLocale
000217cc g     O .rwdata	00000004 PS2_ptr
000217d4 g     O .rwdata	00000004 pixel_buffer
0001c7a0 g     F .text	00000064 alt_up_ps2_write_data_byte_with_ack
0001e86c g     F .text	00000014 atexit
000217d8 g     O .rwdata	00000004 rotorNummer
0000d8f8 g     F .text	0000005c _write_r
00012b68 g     F .text	00000088 OSSchedLock
00008e20 g     F .text	0000001c setlocale
000145bc g     F .text	00000128 OSFlagCreate
000217f0 g     O .rwdata	00000004 _impure_ptr
00023b3c g     O .bss	00000004 alt_argc
00007cd8 g     F .text	00000208 __sflush_r
00023b00 g     O .bss	00000004 x3
0001d9cc g     F .text	0000005c _do_dtors
00008e0c g     F .text	00000008 __locale_cjk_lang
0002183a g     O .rwdata	00000002 OSEventMultiEn
00023ac8 g     O .bss	00000004 RAVAIL
00023b04 g     O .bss	00000004 x1
0002bd38 g     O .bss	00000028 ascii
000146e4 g     F .text	00000270 OSFlagDel
00023b8c g     O .bss	00000004 OSEventFreeList
00023b08 g     O .bss	00000004 sem_enigma
00000020 g       .exceptions	00000000 alt_irq_entry
00016170 g     F .text	0000016c OSMboxPendAbort
0002bd60 g     O .bss	00002000 crypt_stk
0000a5f0 g     F .text	00000060 __ulp
00014bd4 g     F .text	000005f0 OSFlagPend
00021886 g     O .rwdata	00000002 OSTmrEn
000082f4 g     F .text	00000018 __fp_unlock_all
0002dd60 g     O .bss	00000046 cijferLijst
00000518 g     F .text	00000058 getLetter
00021804 g     O .rwdata	00000008 alt_fs_list
00013b8c g     F .text	00000074 OS_StrCopy
0001cad0 g     F .text	00000058 alt_up_rs232_enable_read_interrupt
0001cc44 g     F .text	00000040 alt_up_rs232_write_data
00021850 g     O .rwdata	00000002 OSMemNameSize
0001e4dc g     F .text	0000001c OSInitHookEnd
00000020 g       *ABS*	00000000 __ram_exceptions_start
0002187c g     O .rwdata	00000002 OSTCBPrioTblMax
00023b0c g     O .bss	00000002 arrowTemp
00008e3c g     F .text	0000000c localeconv
00021878 g     O .rwdata	00000002 OSTaskStatStkChkEn
00015b68 g     F .text	000000fc OSMboxCreate
0002184c g     O .rwdata	00000002 OSMemEn
00021856 g     O .rwdata	00000002 OSMutexEn
000218a8 g       *ABS*	00000000 _edata
000310cc g       *ABS*	00000000 _end
00023b90 g     O .bss	00000001 OSIntNesting
00001d74 g     F .text	00000050 printRotorStand
00000244 g       *ABS*	00000000 __ram_exceptions_end
00023b10 g     O .bss	00000004 sem_hardware
0001b464 g     F .text	000000ec altera_avalon_jtag_uart_ioctl
00000f6c g     F .text	00000268 typen
0001a698 g     F .text	000001f0 OSTimeDlyResume
000217e0 g     O .rwdata	00000004 rij
00014a84 g     F .text	00000150 OSFlagNameSet
00015ecc g     F .text	000002a4 OSMboxPend
00019e74 g     F .text	000001c8 OSTaskStkChk
000011d4 g     F .text	00000430 changeRotor
00021852 g     O .rwdata	00000002 OSMemSize
0000b150 g     F .text	0000007c __swrite
000217fc g     O .rwdata	00000004 __malloc_trim_threshold
00008e00 g     F .text	0000000c __locale_msgcharset
00023b94 g     O .bss	00000004 OSTCBCur
0001e880 g     F .text	00000038 exit
0001c248 g     F .text	00000074 alt_up_irda_read_data
00021854 g     O .rwdata	00000002 OSMemTblSize
00008ca4 g     F .text	000000c4 _fwalk_reent
0001c544 g     F .text	000000c4 alt_up_ps2_init
0000a458 g     F .text	00000198 __mdiff
0000ee00 g     F .text	0000005c .hidden __modsi3
00015ad0 g     F .text	00000098 OSMboxAccept
04000000 g       *ABS*	00000000 __alt_data_end
00000020 g     F .exceptions	00000000 alt_exception
000082d0 g     F .text	00000004 __sfp_lock_release
000129a4 g     F .text	00000054 OSInit
0001a250 g     F .text	0000012c OSTaskQuery
0001bd58 g     F .text	00000074 alt_up_character_lcd_string
00023b14 g     O .bss	00000002 e
00017f40 g     F .text	000000ac OS_QInit
00013c00 g     F .text	00000054 OS_StrLen
0001c3dc g     F .text	00000040 alt_up_irda_open_dev
00016a34 g     F .text	00000118 OSMemNameSet
00000280 g     F .text	00000090 getChar
0002186e g     O .rwdata	00000002 OSTaskProfileEn
00023b98 g     O .bss	00000004 OSTime
0002f728 g     O .bss	00000800 OSTaskIdleStk
0001ebdc g     F .text	0000003c _exit
000163ec g     F .text	0000015c OSMboxPostOpt
0001d720 g     F .text	00000140 alt_alarm_start
00014954 g     F .text	00000130 OSFlagNameGet
0001a888 g     F .text	00000064 OSTimeGet
0001d224 g     F .text	00000250 get_next_state
00008e48 g     F .text	000001b8 __smakebuf_r
0001c730 g     F .text	00000070 alt_up_ps2_wait_for_ack
00002204 g     F .text	00000098 strlen
0001e46c g     F .text	0000001c OSTaskSwHook
0001deec g     F .text	00000158 open
0002ff28 g     O .bss	00000b40 OSEventTbl
00010058 g     F .text	000000e0 .hidden __gedf2
00030a68 g     O .bss	00000510 OSTCBTbl
000189f8 g     F .text	000000fc OSSemSet
000019e8 g     F .text	00000058 clearScreen
00021800 g     O .rwdata	00000004 __wctomb
0000c530 g     F .text	00000018 __sprint_r
0001dab8 g     F .text	00000030 alt_icache_flush_all
0001be1c g     F .text	00000074 alt_up_character_lcd_set_cursor_pos
0002189c g     O .rwdata	00000004 alt_priority_mask
0001819c g     F .text	00000268 OSSemDel
00023b9c g     O .bss	00000004 OSFlagFreeList
00000b18 g     F .text	000000dc task3
00021834 g     O .rwdata	00000002 OSEventNameSize
00015c64 g     F .text	00000268 OSMboxDel
0000617c g     F .text	00000024 __vfprintf_internal
00023ba0 g     O .bss	00000001 OSStatRdy
00030f78 g     O .bss	00000054 OSTCBPrioTbl
0000e194 g     F .text	0000005c _wctomb_r
00011e2c g     F .text	000000c0 __env_lock
0001c96c g     F .text	0000008c alt_up_ps2_read_fd
0002187a g     O .rwdata	00000002 OSTaskSwHookEn
0001093c g     F .text	000008d0 .hidden __subdf3
0001c2bc g     F .text	00000090 alt_up_irda_read_fd
000216fe g     O .rwdata	00000066 single_byte_make_code
00009e80 g     F .text	000000b0 __lo0bits
00023b18 g     O .bss	00000004 sem_rotate
000218a0 g     O .rwdata	00000008 alt_alarm_list
00021842 g     O .rwdata	00000002 OSFlagWidth
0001d970 g     F .text	0000005c _do_ctors
0001cb84 g     F .text	00000040 alt_up_rs232_get_used_space_in_read_FIFO
0000e0a4 g     F .text	000000c0 wcrtomb
000114bc g     F .text	000000d0 close
00023b4c g     O .bss	00000004 alt_envsem
00023ba4 g     O .bss	00000004 OSIdleCtrRun
00012ffc g     F .text	00000020 OSVersion
0002188c g     O .rwdata	00000002 OSTmrCfgWheelSize
00011810 g     F .text	00000080 alt_load
0001a37c g     F .text	0000006c OS_TaskStkClr
00021866 g     O .rwdata	00000002 OSTaskCreateEn
000135d8 g     F .text	00000064 OS_EventWaitListInit
0000dcf4 g     F .text	0000005c fputwc
0001e4f8 g     F .text	0000001c OSTaskIdleHook
00000000  w      *UND*	00000000 free
000082d4 g     F .text	00000004 __sinit_lock_acquire
00009bf4 g     F .text	00000120 __multadd
0001a03c g     F .text	00000214 OSTaskSuspend
00009bcc g     F .text	00000028 _Bfree
00013c54 g     F .text	0000005c OS_TaskIdle
00021892 g     O .rwdata	00000002 OSTmrTblSize
00017de4 g     F .text	0000015c OSQQuery



Disassembly of section .entry:

00000000 <__reset>:
#if NIOS2_ICACHE_SIZE > 0 && defined(ALT_ALLOW_CODE_AT_RESET) && (!defined(ALT_SIM_OPTIMIZE) || defined(NIOS2_ECC_PRESENT))
    /* Assume the instruction cache size is always a power of two. */
#if NIOS2_ICACHE_SIZE > 0x8000
    movhi r2, %hi(NIOS2_ICACHE_SIZE)
#else
    movui r2, NIOS2_ICACHE_SIZE
   0:	00840014 	movui	r2,4096
#endif

0:
    initi r2
   4:	1001483a 	initi	r2
    addi r2, r2, -NIOS2_ICACHE_LINE_SIZE
   8:	10bff804 	addi	r2,r2,-32
    bgt r2, zero, 0b
   c:	00bffd16 	blt	zero,r2,4 <__alt_mem_Flash_flash_data+0xf4000004>
 * Jump to the _start entry point in the .text section if reset code
 * is allowed or if optimizing for RTL simulation.
 */
#if defined(ALT_ALLOW_CODE_AT_RESET) || defined(ALT_SIM_OPTIMIZE)
    /* Jump to the _start entry point in the .text section. */
    movhi r1, %hi(_start)
  10:	00400034 	movhi	at,0
    ori r1, r1, %lo(_start)
  14:	08409114 	ori	at,at,580
    jmp r1
  18:	0800683a 	jmp	at
  1c:	00000000 	call	0 <__reset>

Disassembly of section .exceptions:

00000020 <alt_exception>:

#else /* ALT_EXCEPTION_STACK disabled */
        /* 
         * Reserve space on normal stack for registers about to be pushed.
         */
        addi  sp, sp, -76
  20:	deffed04 	addi	sp,sp,-76
         * documentation for details).
         *
         * Leave a gap in the stack frame at 4(sp) for the muldiv handler to
         * store zero into.
         */
        stw   ra,  0(sp)
  24:	dfc00015 	stw	ra,0(sp)
        stw   r1,   8(sp)
  28:	d8400215 	stw	at,8(sp)
        stw   r2,  12(sp)
  2c:	d8800315 	stw	r2,12(sp)
        stw   r3,  16(sp)
  30:	d8c00415 	stw	r3,16(sp)
        stw   r4,  20(sp)
  34:	d9000515 	stw	r4,20(sp)
        stw   r5,  24(sp)
  38:	d9400615 	stw	r5,24(sp)
        stw   r6,  28(sp)
  3c:	d9800715 	stw	r6,28(sp)
        stw   r7,  32(sp)
  40:	d9c00815 	stw	r7,32(sp)
        rdctl r5, estatus   /* Read early to avoid usage stall */
  44:	000b307a 	rdctl	r5,estatus
        stw   r8,  36(sp)
  48:	da000915 	stw	r8,36(sp)
        stw   r9,  40(sp)
  4c:	da400a15 	stw	r9,40(sp)
        stw   r10, 44(sp)
  50:	da800b15 	stw	r10,44(sp)
        stw   r11, 48(sp)
  54:	dac00c15 	stw	r11,48(sp)
        stw   r12, 52(sp)
  58:	db000d15 	stw	r12,52(sp)
        stw   r13, 56(sp)
  5c:	db400e15 	stw	r13,56(sp)
        stw   r14, 60(sp)
  60:	db800f15 	stw	r14,60(sp)
        stw   r15, 64(sp)
  64:	dbc01015 	stw	r15,64(sp)
        /*
         * ea-4 contains the address of the instruction being executed
         * when the exception occured. For interrupt exceptions, we will
         * will be re-issue the isntruction. Store it in 72(sp)
         */
        stw   r5,  68(sp)  /* estatus */
  68:	d9401115 	stw	r5,68(sp)
        addi  r15, ea, -4  /* instruction that caused exception */
  6c:	ebffff04 	addi	r15,ea,-4
        stw   r15,  72(sp)
  70:	dbc01215 	stw	r15,72(sp)
#else
        /*
         * Test to see if the exception was a software exception or caused 
         * by an external interrupt, and vector accordingly.
         */
        rdctl r4, ipending
  74:	0009313a 	rdctl	r4,ipending
        andi  r2, r5, 1
  78:	2880004c 	andi	r2,r5,1
        beq   r2, zero, .Lnot_irq
  7c:	10000326 	beq	r2,zero,8c <OSCtxSw_SWITCH_PC+0x4c>
        beq   r4, zero, .Lnot_irq
  80:	20000226 	beq	r4,zero,8c <OSCtxSw_SWITCH_PC+0x4c>
        /*
         * Now that all necessary registers have been preserved, call 
         * alt_irq_handler() to process the interrupts.
         */

        call alt_irq_handler
  84:	00000fc0 	call	fc <alt_irq_handler>

        .section .exceptions.irqreturn, "xa"

        br    .Lexception_exit
  88:	00000706 	br	a8 <OSCtxSw_SWITCH_PC+0x68>
         * upon completion, so we write ea (address of instruction *after*
         * the one where the exception occured) into 72(sp). The actual
         * instruction that caused the exception is written in r2, which these
         * handlers will utilize.
         */
        stw   ea,  72(sp)  /* Don't re-issue */
  8c:	df401215 	stw	ea,72(sp)
        ldhu.n  r2, 0(r4)
        ldhu.n  r3, 2(r4)
        slli.n  r3, r3, 16
        or.n    r2, r2, r3 /* Instruction that caused exception */
#else
        ldw   r2, -4(ea)   /* Instruction that caused exception */
  90:	e8bfff17 	ldw	r2,-4(ea)
         * debugger is present) or go into an infinite loop since the
         * handling behavior is undefined; in that case we will not return here.
         */

        /* Load exception-causing address as first argument (r4) */
        addi   r4, ea, -4
  94:	e93fff04 	addi	r4,ea,-4

        /* Call the instruction-exception entry */
        call   alt_instruction_exception_entry
  98:	00001d00 	call	1d0 <alt_instruction_exception_entry>
         * instruction
         *
         * Return code was 0: Skip. The instruction after the exception is
         * already stored in 72(sp).
         */
        bne   r2, r0, .Lexception_exit
  9c:	1000021e 	bne	r2,zero,a8 <OSCtxSw_SWITCH_PC+0x68>

        /*
         * Otherwise, modify 72(sp) to re-issue the instruction that caused the
         * exception.
         */
        addi  r15, ea, -4  /* instruction that caused exception */
  a0:	ebffff04 	addi	r15,ea,-4
        stw   r15,  72(sp)
  a4:	dbc01215 	stw	r15,72(sp)
        /* 
         * Restore the saved registers, so that all general purpose registers 
         * have been restored to their state at the time the interrupt occured.
         */

        ldw   r5,  68(sp)
  a8:	d9401117 	ldw	r5,68(sp)
        ldw   ea,  72(sp)  /* This becomes the PC once eret is executed */
  ac:	df401217 	ldw	ea,72(sp)
        ldw   ra,   0(sp)
  b0:	dfc00017 	ldw	ra,0(sp)

        wrctl estatus, r5
  b4:	2801707a 	wrctl	estatus,r5

        ldw   r1,   8(sp)
  b8:	d8400217 	ldw	at,8(sp)
        ldw   r2,  12(sp)
  bc:	d8800317 	ldw	r2,12(sp)
        ldw   r3,  16(sp)
  c0:	d8c00417 	ldw	r3,16(sp)
        ldw   r4,  20(sp)
  c4:	d9000517 	ldw	r4,20(sp)
        ldw   r5,  24(sp)
  c8:	d9400617 	ldw	r5,24(sp)
        ldw   r6,  28(sp)
  cc:	d9800717 	ldw	r6,28(sp)
        ldw   r7,  32(sp)
  d0:	d9c00817 	ldw	r7,32(sp)

#if defined(ALT_EXCEPTION_STACK) && defined(ALT_STACK_CHECK)
        ldw   et, %gprel(alt_exception_old_stack_limit)(gp)
#endif

        ldw   r8,  36(sp)
  d4:	da000917 	ldw	r8,36(sp)
        ldw   r9,  40(sp)
  d8:	da400a17 	ldw	r9,40(sp)
        ldw   r10, 44(sp)
  dc:	da800b17 	ldw	r10,44(sp)
        ldw   r11, 48(sp)
  e0:	dac00c17 	ldw	r11,48(sp)
        ldw   r12, 52(sp)
  e4:	db000d17 	ldw	r12,52(sp)
        ldw   r13, 56(sp)
  e8:	db400e17 	ldw	r13,56(sp)
        ldw   r14, 60(sp)
  ec:	db800f17 	ldw	r14,60(sp)
        ldw   r15, 64(sp)
  f0:	dbc01017 	ldw	r15,64(sp)
        stw   et, %gprel(alt_stack_limit_value)(gp)
        stw   zero, %gprel(alt_exception_old_stack_limit)(gp)
#endif /* ALT_STACK_CHECK */
        ldw   sp,  76(sp)
#else /* ALT_EXCEPTION_STACK disabled */
        addi  sp, sp, 76
  f4:	dec01304 	addi	sp,sp,76

        /*
         * Return to the interrupted instruction.
         */

        eret
  f8:	ef80083a 	eret

000000fc <alt_irq_handler>:
 * instruction is present if the macro ALT_CI_INTERRUPT_VECTOR defined.
 */

void alt_irq_handler (void) __attribute__ ((section (".exceptions")));
void alt_irq_handler (void)
{
  fc:	defff904 	addi	sp,sp,-28
 100:	dfc00615 	stw	ra,24(sp)
 104:	df000515 	stw	fp,20(sp)
 108:	df000504 	addi	fp,sp,20
  
  /*
   * Notify the operating system that we are at interrupt level.
   */ 
  
  ALT_OS_INT_ENTER();
 10c:	00129f80 	call	129f8 <OSIntEnter>
#ifndef NIOS2_EIC_PRESENT
static ALT_INLINE alt_u32 ALT_ALWAYS_INLINE alt_irq_pending (void)
{
  alt_u32 active;

  NIOS2_READ_IPENDING (active);
 110:	0005313a 	rdctl	r2,ipending
 114:	e0bffe15 	stw	r2,-8(fp)

  return active;
 118:	e0bffe17 	ldw	r2,-8(fp)
   * Consider the case where the high priority interupt is asserted during
   * the interrupt entry sequence for a lower priority interrupt to see why
   * this is the case.
   */

  active = alt_irq_pending ();
 11c:	e0bffb15 	stw	r2,-20(fp)

  do
  {
    i = 0;
 120:	e03ffd15 	stw	zero,-12(fp)
    mask = 1;
 124:	00800044 	movi	r2,1
 128:	e0bffc15 	stw	r2,-16(fp)
     * called to clear the interrupt condition.
     */

    do
    {
      if (active & mask)
 12c:	e0fffb17 	ldw	r3,-20(fp)
 130:	e0bffc17 	ldw	r2,-16(fp)
 134:	1884703a 	and	r2,r3,r2
 138:	10001526 	beq	r2,zero,190 <alt_irq_handler+0x94>
      { 
#ifdef ALT_ENHANCED_INTERRUPT_API_PRESENT
        alt_irq[i].handler(alt_irq[i].context); 
#else
        alt_irq[i].handler(alt_irq[i].context, i); 
 13c:	008000f4 	movhi	r2,3
 140:	1083f304 	addi	r2,r2,4044
 144:	e0fffd17 	ldw	r3,-12(fp)
 148:	180690fa 	slli	r3,r3,3
 14c:	10c5883a 	add	r2,r2,r3
 150:	10c00017 	ldw	r3,0(r2)
 154:	008000f4 	movhi	r2,3
 158:	1083f304 	addi	r2,r2,4044
 15c:	e13ffd17 	ldw	r4,-12(fp)
 160:	200890fa 	slli	r4,r4,3
 164:	21000104 	addi	r4,r4,4
 168:	1105883a 	add	r2,r2,r4
 16c:	10800017 	ldw	r2,0(r2)
 170:	1009883a 	mov	r4,r2
 174:	e17ffd17 	ldw	r5,-12(fp)
 178:	183ee83a 	callr	r3
#endif
        break;
 17c:	0001883a 	nop
#ifndef NIOS2_EIC_PRESENT
static ALT_INLINE alt_u32 ALT_ALWAYS_INLINE alt_irq_pending (void)
{
  alt_u32 active;

  NIOS2_READ_IPENDING (active);
 180:	0005313a 	rdctl	r2,ipending
 184:	e0bfff15 	stw	r2,-4(fp)

  return active;
 188:	e0bfff17 	ldw	r2,-4(fp)
 18c:	00000706 	br	1ac <alt_irq_handler+0xb0>
      }
      mask <<= 1;
 190:	e0bffc17 	ldw	r2,-16(fp)
 194:	1085883a 	add	r2,r2,r2
 198:	e0bffc15 	stw	r2,-16(fp)
      i++;
 19c:	e0bffd17 	ldw	r2,-12(fp)
 1a0:	10800044 	addi	r2,r2,1
 1a4:	e0bffd15 	stw	r2,-12(fp)

    } while (1);
 1a8:	003fe006 	br	12c <__alt_mem_Flash_flash_data+0xf400012c>

    active = alt_irq_pending ();
 1ac:	e0bffb15 	stw	r2,-20(fp)
    
  } while (active);
 1b0:	e0bffb17 	ldw	r2,-20(fp)
 1b4:	103fda1e 	bne	r2,zero,120 <__alt_mem_Flash_flash_data+0xf4000120>

  /*
   * Notify the operating system that interrupt processing is complete.
   */ 

  ALT_OS_INT_EXIT();
 1b8:	0012a740 	call	12a74 <OSIntExit>
}
 1bc:	e037883a 	mov	sp,fp
 1c0:	dfc00117 	ldw	ra,4(sp)
 1c4:	df000017 	ldw	fp,0(sp)
 1c8:	dec00204 	addi	sp,sp,8
 1cc:	f800283a 	ret

000001d0 <alt_instruction_exception_entry>:
 * that handler if it has been registered. Absent a handler, it will
 * break break or hang as discussed below.
 */
int 
alt_instruction_exception_entry (alt_u32 exception_pc)
{
 1d0:	defffb04 	addi	sp,sp,-20
 1d4:	dfc00415 	stw	ra,16(sp)
 1d8:	df000315 	stw	fp,12(sp)
 1dc:	df000304 	addi	fp,sp,12
 1e0:	e13fff15 	stw	r4,-4(fp)
 * NIOS2_EXCEPTION_CAUSE_NOT_PRESENT. Your handling routine should
 * check the validity of the cause argument before proceeding.
 */
#ifdef NIOS2_HAS_EXTRA_EXCEPTION_INFO
  /* Get exception cause & "badaddr" */
  NIOS2_READ_EXCEPTION(cause);
 1e4:	000531fa 	rdctl	r2,exception
 1e8:	e0bffd15 	stw	r2,-12(fp)
  cause = ( (cause & NIOS2_EXCEPTION_REG_CAUSE_MASK) >>
 1ec:	e0bffd17 	ldw	r2,-12(fp)
 1f0:	10801f0c 	andi	r2,r2,124
 1f4:	1004d0ba 	srli	r2,r2,2
 1f8:	e0bffd15 	stw	r2,-12(fp)
              NIOS2_EXCEPTION_REG_CAUSE_OFST );

  NIOS2_READ_BADADDR(badaddr);
 1fc:	0005333a 	rdctl	r2,badaddr
 200:	e0bffe15 	stw	r2,-8(fp)
#else
  cause = NIOS2_EXCEPTION_CAUSE_NOT_PRESENT;
  badaddr = 0;
#endif /* NIOS2_HAS_EXTRA_EXCEPTION_INFO */

  if(alt_instruction_exception_handler) {
 204:	d0a8fb17 	ldw	r2,-23572(gp)
 208:	10000726 	beq	r2,zero,228 <alt_instruction_exception_entry+0x58>
     * Call handler. Its return value indicates whether the exception-causing
     * instruction should be re-issued. The code that called us,
     * alt_eceptions_entry.S, will look at this value and adjust the ea
     * register as necessary
     */
    return alt_instruction_exception_handler(cause, exception_pc, badaddr);
 20c:	d0a8fb17 	ldw	r2,-23572(gp)
 210:	e0fffd17 	ldw	r3,-12(fp)
 214:	1809883a 	mov	r4,r3
 218:	e17fff17 	ldw	r5,-4(fp)
 21c:	e1bffe17 	ldw	r6,-8(fp)
 220:	103ee83a 	callr	r2
 224:	00000206 	br	230 <alt_instruction_exception_entry+0x60>
   *    (a peripheral which negates its interrupt output before its
   *    interrupt handler has been executed will cause spurious interrupts)
   */
  else {
#ifdef NIOS2_HAS_DEBUG_STUB
    NIOS2_BREAK();
 228:	003da03a 	break	0
      ;
#endif /* NIOS2_HAS_DEBUG_STUB */
  }

  /* We should not get here. Remove compiler warning. */
  return NIOS2_EXCEPTION_RETURN_REISSUE_INST;
 22c:	0005883a 	mov	r2,zero
}
 230:	e037883a 	mov	sp,fp
 234:	dfc00117 	ldw	ra,4(sp)
 238:	df000017 	ldw	fp,0(sp)
 23c:	dec00204 	addi	sp,sp,8
 240:	f800283a 	ret

Disassembly of section .text:

00000244 <_start>:

    /*
     * Now that the caches are initialized, set up the stack pointer and global pointer.
     * The values provided by the linker are assumed to be correctly aligned.
     */
    movhi sp, %hi(__alt_stack_pointer)
     244:	06c10034 	movhi	sp,1024
    ori sp, sp, %lo(__alt_stack_pointer)
     248:	dec00014 	ori	sp,sp,0
    movhi gp, %hi(_gp)
     24c:	068000b4 	movhi	gp,2
    ori gp, gp, %lo(_gp)
     250:	d6a5f314 	ori	gp,gp,38860
 */
#ifndef ALT_SIM_OPTIMIZE
    /* Log that the BSS is about to be cleared. */
    ALT_LOG_PUTS(alt_log_msg_bss)

    movhi r2, %hi(__bss_start)
     254:	008000b4 	movhi	r2,2
    ori r2, r2, %lo(__bss_start)
     258:	108eb214 	ori	r2,r2,15048

    movhi r3, %hi(__bss_end)
     25c:	00c000f4 	movhi	r3,3
    ori r3, r3, %lo(__bss_end)
     260:	18c43314 	ori	r3,r3,4300

    beq r2, r3, 1f
     264:	10c00326 	beq	r2,r3,274 <_start+0x30>

0:
    stw zero, (r2)
     268:	10000015 	stw	zero,0(r2)
    addi r2, r2, 4
     26c:	10800104 	addi	r2,r2,4
    bltu r2, r3, 0b
     270:	10fffd36 	bltu	r2,r3,268 <__alt_mem_Flash_flash_data+0xf4000268>
     * section aren't defined until alt_load() has been called).
     */
    mov   et, zero
#endif

    call alt_load
     274:	00118100 	call	11810 <alt_load>

    /* Log that alt_main is about to be called. */
    ALT_LOG_PUTS(alt_log_msg_alt_main)

    /* Call the C entry point. It should never return. */
    call alt_main
     278:	00119b40 	call	119b4 <alt_main>

0000027c <alt_after_alt_main>:

    /* Wait in infinite loop in case alt_main does return. */
alt_after_alt_main:
    br alt_after_alt_main
     27c:	003fff06 	br	27c <__alt_mem_Flash_flash_data+0xf400027c>

00000280 <getChar>:
int ringInstellingen[4] = { 1, 1, 1, 1 };
char rotorStanden[4] = { 'a', 'a', 'a', 'a' };
int y = 5;
int x1, x2, x3, x4, x5, x6;

char getChar(volatile int *UART_ID) {
     280:	defffc04 	addi	sp,sp,-16
     284:	df000315 	stw	fp,12(sp)
     288:	df000304 	addi	fp,sp,12
     28c:	e13fff15 	stw	r4,-4(fp)
	int data;
	data = *(UART_ID); // read the RS232_UART data register
     290:	e0bfff17 	ldw	r2,-4(fp)
     294:	10800017 	ldw	r2,0(r2)
     298:	e0bffd15 	stw	r2,-12(fp)
	if (data & 0x00008000) { // check RVALID to see if there is new data
     29c:	e0bffd17 	ldw	r2,-12(fp)
     2a0:	10a0000c 	andi	r2,r2,32768
     2a4:	10001526 	beq	r2,zero,2fc <getChar+0x7c>
		char character = data & 0xFF;
     2a8:	e0bffd17 	ldw	r2,-12(fp)
     2ac:	e0bffe05 	stb	r2,-8(fp)
		if (((character >= 'a') && (character <= 'z')) || (character == '/')
     2b0:	e0bffe07 	ldb	r2,-8(fp)
     2b4:	10801850 	cmplti	r2,r2,97
     2b8:	1000031e 	bne	r2,zero,2c8 <getChar+0x48>
     2bc:	e0bffe07 	ldb	r2,-8(fp)
     2c0:	10801ed0 	cmplti	r2,r2,123
     2c4:	1000091e 	bne	r2,zero,2ec <getChar+0x6c>
     2c8:	e0bffe07 	ldb	r2,-8(fp)
     2cc:	10800be0 	cmpeqi	r2,r2,47
     2d0:	1000061e 	bne	r2,zero,2ec <getChar+0x6c>
				|| (character == '0') || (character == '1')) {
     2d4:	e0bffe07 	ldb	r2,-8(fp)
     2d8:	10800c20 	cmpeqi	r2,r2,48
     2dc:	1000031e 	bne	r2,zero,2ec <getChar+0x6c>
     2e0:	e0bffe07 	ldb	r2,-8(fp)
     2e4:	10800c58 	cmpnei	r2,r2,49
     2e8:	1000021e 	bne	r2,zero,2f4 <getChar+0x74>
			return character;
     2ec:	e0bffe03 	ldbu	r2,-8(fp)
     2f0:	00000306 	br	300 <getChar+0x80>
		}
	} else {
		return '\0';
	}
	return '\0';
     2f4:	0005883a 	mov	r2,zero
     2f8:	00000106 	br	300 <getChar+0x80>
		if (((character >= 'a') && (character <= 'z')) || (character == '/')
				|| (character == '0') || (character == '1')) {
			return character;
		}
	} else {
		return '\0';
     2fc:	0005883a 	mov	r2,zero
	}
	return '\0';
}
     300:	e037883a 	mov	sp,fp
     304:	df000017 	ldw	fp,0(sp)
     308:	dec00104 	addi	sp,sp,4
     30c:	f800283a 	ret

00000310 <putChar>:

void putChar(volatile int *UART_ID, char c) {
     310:	defffc04 	addi	sp,sp,-16
     314:	df000315 	stw	fp,12(sp)
     318:	df000304 	addi	fp,sp,12
     31c:	e13ffe15 	stw	r4,-8(fp)
     320:	2805883a 	mov	r2,r5
     324:	e0bfff05 	stb	r2,-4(fp)
	int control;
	control = *(UART_ID + 4); // read the RS232_UART control register
     328:	e0bffe17 	ldw	r2,-8(fp)
     32c:	10800417 	ldw	r2,16(r2)
     330:	e0bffd15 	stw	r2,-12(fp)
	if (control & 0x00FF0000) { // if space, write character, else ignore
     334:	e0bffd17 	ldw	r2,-12(fp)
     338:	10803fec 	andhi	r2,r2,255
     33c:	10000326 	beq	r2,zero,34c <putChar+0x3c>
		*(UART_ID) = c;
     340:	e0ffff07 	ldb	r3,-4(fp)
     344:	e0bffe17 	ldw	r2,-8(fp)
     348:	10c00015 	stw	r3,0(r2)
	}
}
     34c:	e037883a 	mov	sp,fp
     350:	df000017 	ldw	fp,0(sp)
     354:	dec00104 	addi	sp,sp,4
     358:	f800283a 	ret

0000035c <sendCommand>:

void sendCommand(char string[]) {
     35c:	defffb04 	addi	sp,sp,-20
     360:	dfc00415 	stw	ra,16(sp)
     364:	df000315 	stw	fp,12(sp)
     368:	dc000215 	stw	r16,8(sp)
     36c:	df000304 	addi	fp,sp,12
     370:	e13ffe15 	stw	r4,-8(fp)
	int i;
	for (i = 0; i < strlen(string); i++) {
     374:	e03ffd15 	stw	zero,-12(fp)
     378:	00000d06 	br	3b0 <sendCommand+0x54>
		putChar(UART_0, string[i]);
     37c:	e0bffd17 	ldw	r2,-12(fp)
     380:	e0fffe17 	ldw	r3,-8(fp)
     384:	1885883a 	add	r2,r3,r2
     388:	10800003 	ldbu	r2,0(r2)
     38c:	10803fcc 	andi	r2,r2,255
     390:	1080201c 	xori	r2,r2,128
     394:	10bfe004 	addi	r2,r2,-128
     398:	01020834 	movhi	r4,2080
     39c:	100b883a 	mov	r5,r2
     3a0:	00003100 	call	310 <putChar>
	}
}

void sendCommand(char string[]) {
	int i;
	for (i = 0; i < strlen(string); i++) {
     3a4:	e0bffd17 	ldw	r2,-12(fp)
     3a8:	10800044 	addi	r2,r2,1
     3ac:	e0bffd15 	stw	r2,-12(fp)
     3b0:	e43ffd17 	ldw	r16,-12(fp)
     3b4:	e13ffe17 	ldw	r4,-8(fp)
     3b8:	00022040 	call	2204 <strlen>
     3bc:	80bfef36 	bltu	r16,r2,37c <__alt_mem_Flash_flash_data+0xf400037c>
		putChar(UART_0, string[i]);
	}
}
     3c0:	e6ffff04 	addi	sp,fp,-4
     3c4:	dfc00217 	ldw	ra,8(sp)
     3c8:	df000117 	ldw	fp,4(sp)
     3cc:	dc000017 	ldw	r16,0(sp)
     3d0:	dec00304 	addi	sp,sp,12
     3d4:	f800283a 	ret

000003d8 <getCommand>:

void getCommand() {
     3d8:	defffd04 	addi	sp,sp,-12
     3dc:	dfc00215 	stw	ra,8(sp)
     3e0:	df000115 	stw	fp,4(sp)
     3e4:	df000104 	addi	fp,sp,4
	memset(command, 0, strlen(command));
     3e8:	010000b4 	movhi	r4,2
     3ec:	210eef04 	addi	r4,r4,15292
     3f0:	00022040 	call	2204 <strlen>
     3f4:	010000b4 	movhi	r4,2
     3f8:	210eef04 	addi	r4,r4,15292
     3fc:	000b883a 	mov	r5,zero
     400:	100d883a 	mov	r6,r2
     404:	0001dc40 	call	1dc4 <memset>
	command[0] = '\0';
     408:	008000b4 	movhi	r2,2
     40c:	108eef04 	addi	r2,r2,15292
     410:	10000005 	stb	zero,0(r2)
	INT8U finished = 0;
     414:	e03fff05 	stb	zero,-4(fp)
	INT8U characterCount = 0;
     418:	e03fff45 	stb	zero,-3(fp)
	char currentChar = '\0';
     41c:	e03fff85 	stb	zero,-2(fp)
	while (!finished) {
     420:	00002306 	br	4b0 <getCommand+0xd8>
		currentChar = getChar(UART_0);
     424:	01020834 	movhi	r4,2080
     428:	00002800 	call	280 <getChar>
     42c:	e0bfff85 	stb	r2,-2(fp)
		if (currentChar != '\0') {
     430:	e0bfff87 	ldb	r2,-2(fp)
     434:	10001d26 	beq	r2,zero,4ac <getCommand+0xd4>
			if ((currentChar >= 'a') || (currentChar == '/')
     438:	e0bfff87 	ldb	r2,-2(fp)
     43c:	10801848 	cmpgei	r2,r2,97
     440:	1000091e 	bne	r2,zero,468 <getCommand+0x90>
     444:	e0bfff87 	ldb	r2,-2(fp)
     448:	10800be0 	cmpeqi	r2,r2,47
     44c:	1000061e 	bne	r2,zero,468 <getCommand+0x90>
					|| (currentChar == '1') || (currentChar == '0')) {
     450:	e0bfff87 	ldb	r2,-2(fp)
     454:	10800c60 	cmpeqi	r2,r2,49
     458:	1000031e 	bne	r2,zero,468 <getCommand+0x90>
     45c:	e0bfff87 	ldb	r2,-2(fp)
     460:	10800c18 	cmpnei	r2,r2,48
     464:	1000111e 	bne	r2,zero,4ac <getCommand+0xd4>
				if (currentChar == '/') {
     468:	e0bfff87 	ldb	r2,-2(fp)
     46c:	10800bd8 	cmpnei	r2,r2,47
     470:	1000051e 	bne	r2,zero,488 <getCommand+0xb0>
					if (characterCount > 0) {
     474:	e0bfff43 	ldbu	r2,-3(fp)
     478:	10000c26 	beq	r2,zero,4ac <getCommand+0xd4>
						finished = 1;
     47c:	00800044 	movi	r2,1
     480:	e0bfff05 	stb	r2,-4(fp)
     484:	00000906 	br	4ac <getCommand+0xd4>
					}
				} else {
					command[characterCount] = currentChar;
     488:	e0ffff43 	ldbu	r3,-3(fp)
     48c:	008000b4 	movhi	r2,2
     490:	108eef04 	addi	r2,r2,15292
     494:	10c5883a 	add	r2,r2,r3
     498:	e0ffff83 	ldbu	r3,-2(fp)
     49c:	10c00005 	stb	r3,0(r2)
					characterCount++;
     4a0:	e0bfff43 	ldbu	r2,-3(fp)
     4a4:	10800044 	addi	r2,r2,1
     4a8:	e0bfff45 	stb	r2,-3(fp)
				}
			}
		}
		currentChar = '\0';
     4ac:	e03fff85 	stb	zero,-2(fp)
	memset(command, 0, strlen(command));
	command[0] = '\0';
	INT8U finished = 0;
	INT8U characterCount = 0;
	char currentChar = '\0';
	while (!finished) {
     4b0:	e0bfff03 	ldbu	r2,-4(fp)
     4b4:	103fdb26 	beq	r2,zero,424 <__alt_mem_Flash_flash_data+0xf4000424>
				}
			}
		}
		currentChar = '\0';
	}
	command[characterCount] = '\0';
     4b8:	e0ffff43 	ldbu	r3,-3(fp)
     4bc:	008000b4 	movhi	r2,2
     4c0:	108eef04 	addi	r2,r2,15292
     4c4:	10c5883a 	add	r2,r2,r3
     4c8:	10000005 	stb	zero,0(r2)
	command[0] = command[strlen(command) - 1];
     4cc:	010000b4 	movhi	r4,2
     4d0:	210eef04 	addi	r4,r4,15292
     4d4:	00022040 	call	2204 <strlen>
     4d8:	10ffffc4 	addi	r3,r2,-1
     4dc:	008000b4 	movhi	r2,2
     4e0:	108eef04 	addi	r2,r2,15292
     4e4:	10c5883a 	add	r2,r2,r3
     4e8:	10c00003 	ldbu	r3,0(r2)
     4ec:	008000b4 	movhi	r2,2
     4f0:	108eef04 	addi	r2,r2,15292
     4f4:	10c00005 	stb	r3,0(r2)
	command[1] = '\0';
     4f8:	008000b4 	movhi	r2,2
     4fc:	108eef04 	addi	r2,r2,15292
     500:	10000045 	stb	zero,1(r2)
}
     504:	e037883a 	mov	sp,fp
     508:	dfc00117 	ldw	ra,4(sp)
     50c:	df000017 	ldw	fp,0(sp)
     510:	dec00204 	addi	sp,sp,8
     514:	f800283a 	ret

00000518 <getLetter>:

void getLetter(char string2[], char character) {
     518:	defff704 	addi	sp,sp,-36
     51c:	dfc00815 	stw	ra,32(sp)
     520:	df000715 	stw	fp,28(sp)
     524:	df000704 	addi	fp,sp,28
     528:	e13ffe15 	stw	r4,-8(fp)
     52c:	2805883a 	mov	r2,r5
     530:	e0bfff05 	stb	r2,-4(fp)
	char string[20];
	sprintf(string, "%s%c/", string2, character);
     534:	e0bfff07 	ldb	r2,-4(fp)
     538:	e13ff904 	addi	r4,fp,-28
     53c:	014000b4 	movhi	r5,2
     540:	297b0604 	addi	r5,r5,-5096
     544:	e1bffe17 	ldw	r6,-8(fp)
     548:	100f883a 	mov	r7,r2
     54c:	00020640 	call	2064 <sprintf>
	sendCommand(string);
     550:	e13ff904 	addi	r4,fp,-28
     554:	000035c0 	call	35c <sendCommand>
	getCommand();
     558:	00003d80 	call	3d8 <getCommand>
}
     55c:	e037883a 	mov	sp,fp
     560:	dfc00117 	ldw	ra,4(sp)
     564:	df000017 	ldw	fp,0(sp)
     568:	dec00204 	addi	sp,sp,8
     56c:	f800283a 	ret

00000570 <cryptTask>:

/* Prints "Hello World" and sleeps for three seconds */
void cryptTask(void* pdata) {
     570:	defff204 	addi	sp,sp,-56
     574:	dfc00d15 	stw	ra,52(sp)
     578:	df000c15 	stw	fp,48(sp)
     57c:	df000c04 	addi	fp,sp,48
     580:	e13fff15 	stw	r4,-4(fp)
	INT8U err;
	while (1) {
		char input[20];
		OSTimeDlyHMSM(0, 0, 0, 50);
     584:	0009883a 	mov	r4,zero
     588:	000b883a 	mov	r5,zero
     58c:	000d883a 	mov	r6,zero
     590:	01c00c84 	movi	r7,50
     594:	001a5300 	call	1a530 <OSTimeDlyHMSM>
		sprintf(input, "%s", OSMboxPend(messageBox, 0, &err));
     598:	d0a8c917 	ldw	r2,-23772(gp)
     59c:	1009883a 	mov	r4,r2
     5a0:	000b883a 	mov	r5,zero
     5a4:	e1bff404 	addi	r6,fp,-48
     5a8:	0015ecc0 	call	15ecc <OSMboxPend>
     5ac:	1007883a 	mov	r3,r2
     5b0:	e0bff444 	addi	r2,fp,-47
     5b4:	1009883a 	mov	r4,r2
     5b8:	180b883a 	mov	r5,r3
     5bc:	00021740 	call	2174 <strcpy>

		if (input[0] != 0) {
     5c0:	e0bff443 	ldbu	r2,-47(fp)
     5c4:	10803fcc 	andi	r2,r2,255
     5c8:	1080201c 	xori	r2,r2,128
     5cc:	10bfe004 	addi	r2,r2,-128
     5d0:	10008526 	beq	r2,zero,7e8 <cryptTask+0x278>
			if ((input[0] >= 'a') && (input[0] <= 'z')) {
     5d4:	e0bff443 	ldbu	r2,-47(fp)
     5d8:	10803fcc 	andi	r2,r2,255
     5dc:	1080201c 	xori	r2,r2,128
     5e0:	10bfe004 	addi	r2,r2,-128
     5e4:	10801850 	cmplti	r2,r2,97
     5e8:	10007f1e 	bne	r2,zero,7e8 <cryptTask+0x278>
     5ec:	e0bff443 	ldbu	r2,-47(fp)
     5f0:	10803fcc 	andi	r2,r2,255
     5f4:	1080201c 	xori	r2,r2,128
     5f8:	10bfe004 	addi	r2,r2,-128
     5fc:	10801ec8 	cmpgei	r2,r2,123
     600:	1000791e 	bne	r2,zero,7e8 <cryptTask+0x278>
				// continues after the rotors have rotated
				OSSemPost(sem_rotate);
     604:	d0a8d317 	ldw	r2,-23732(gp)
     608:	1009883a 	mov	r4,r2
     60c:	00187d80 	call	187d8 <OSSemPost>
				OSTimeDlyHMSM(0, 0, 0, 100);
     610:	0009883a 	mov	r4,zero
     614:	000b883a 	mov	r5,zero
     618:	000d883a 	mov	r6,zero
     61c:	01c01904 	movi	r7,100
     620:	001a5300 	call	1a530 <OSTimeDlyHMSM>
				OSSemPend(sem_rotated, 0, &err);
     624:	d0a8cb17 	ldw	r2,-23764(gp)
     628:	1009883a 	mov	r4,r2
     62c:	000b883a 	mov	r5,zero
     630:	e1bff404 	addi	r6,fp,-48
     634:	00184040 	call	18404 <OSSemPend>
				char string[20];

				getLetter("getPluggedLetter", input[0]);
     638:	e0bff443 	ldbu	r2,-47(fp)
     63c:	10803fcc 	andi	r2,r2,255
     640:	1080201c 	xori	r2,r2,128
     644:	10bfe004 	addi	r2,r2,-128
     648:	010000b4 	movhi	r4,2
     64c:	213b0804 	addi	r4,r4,-5088
     650:	100b883a 	mov	r5,r2
     654:	00005180 	call	518 <getLetter>
				//printf("Na plugboard: %s\n", command);

				getLetter("getLetter 1", command[0]);
     658:	008000b4 	movhi	r2,2
     65c:	108eef04 	addi	r2,r2,15292
     660:	10800003 	ldbu	r2,0(r2)
     664:	10803fcc 	andi	r2,r2,255
     668:	1080201c 	xori	r2,r2,128
     66c:	10bfe004 	addi	r2,r2,-128
     670:	010000b4 	movhi	r4,2
     674:	213b0d04 	addi	r4,r4,-5068
     678:	100b883a 	mov	r5,r2
     67c:	00005180 	call	518 <getLetter>
				//printf("Na rotor een: %s\n", command);

				getLetter("getLetter 2", command[0]);
     680:	008000b4 	movhi	r2,2
     684:	108eef04 	addi	r2,r2,15292
     688:	10800003 	ldbu	r2,0(r2)
     68c:	10803fcc 	andi	r2,r2,255
     690:	1080201c 	xori	r2,r2,128
     694:	10bfe004 	addi	r2,r2,-128
     698:	010000b4 	movhi	r4,2
     69c:	213b1004 	addi	r4,r4,-5056
     6a0:	100b883a 	mov	r5,r2
     6a4:	00005180 	call	518 <getLetter>
				//printf("Na rotor twee: %s\n", command);

				getLetter("getLetter 3", command[0]);
     6a8:	008000b4 	movhi	r2,2
     6ac:	108eef04 	addi	r2,r2,15292
     6b0:	10800003 	ldbu	r2,0(r2)
     6b4:	10803fcc 	andi	r2,r2,255
     6b8:	1080201c 	xori	r2,r2,128
     6bc:	10bfe004 	addi	r2,r2,-128
     6c0:	010000b4 	movhi	r4,2
     6c4:	213b1304 	addi	r4,r4,-5044
     6c8:	100b883a 	mov	r5,r2
     6cc:	00005180 	call	518 <getLetter>
				//printf("Na rotor drie: %s\n", command);

				getLetter("getLetter 4", command[0]);
     6d0:	008000b4 	movhi	r2,2
     6d4:	108eef04 	addi	r2,r2,15292
     6d8:	10800003 	ldbu	r2,0(r2)
     6dc:	10803fcc 	andi	r2,r2,255
     6e0:	1080201c 	xori	r2,r2,128
     6e4:	10bfe004 	addi	r2,r2,-128
     6e8:	010000b4 	movhi	r4,2
     6ec:	213b1604 	addi	r4,r4,-5032
     6f0:	100b883a 	mov	r5,r2
     6f4:	00005180 	call	518 <getLetter>
				//printf("Na rotor vier: %s\n", command);

				getLetter("getReflector ", command[0]);
     6f8:	008000b4 	movhi	r2,2
     6fc:	108eef04 	addi	r2,r2,15292
     700:	10800003 	ldbu	r2,0(r2)
     704:	10803fcc 	andi	r2,r2,255
     708:	1080201c 	xori	r2,r2,128
     70c:	10bfe004 	addi	r2,r2,-128
     710:	010000b4 	movhi	r4,2
     714:	213b1904 	addi	r4,r4,-5020
     718:	100b883a 	mov	r5,r2
     71c:	00005180 	call	518 <getLetter>
				//printf("Na reflector: %s\n", command);

				getLetter("getReverseLetter 4", command[0]);
     720:	008000b4 	movhi	r2,2
     724:	108eef04 	addi	r2,r2,15292
     728:	10800003 	ldbu	r2,0(r2)
     72c:	10803fcc 	andi	r2,r2,255
     730:	1080201c 	xori	r2,r2,128
     734:	10bfe004 	addi	r2,r2,-128
     738:	010000b4 	movhi	r4,2
     73c:	213b1d04 	addi	r4,r4,-5004
     740:	100b883a 	mov	r5,r2
     744:	00005180 	call	518 <getLetter>
				//printf("Na reverse vier: %s\n", command);

				getLetter("getReverseLetter 3", command[0]);
     748:	008000b4 	movhi	r2,2
     74c:	108eef04 	addi	r2,r2,15292
     750:	10800003 	ldbu	r2,0(r2)
     754:	10803fcc 	andi	r2,r2,255
     758:	1080201c 	xori	r2,r2,128
     75c:	10bfe004 	addi	r2,r2,-128
     760:	010000b4 	movhi	r4,2
     764:	213b2204 	addi	r4,r4,-4984
     768:	100b883a 	mov	r5,r2
     76c:	00005180 	call	518 <getLetter>
				//printf("Na reverse drie: %s\n", command);

				getLetter("getReverseLetter 2", command[0]);
     770:	008000b4 	movhi	r2,2
     774:	108eef04 	addi	r2,r2,15292
     778:	10800003 	ldbu	r2,0(r2)
     77c:	10803fcc 	andi	r2,r2,255
     780:	1080201c 	xori	r2,r2,128
     784:	10bfe004 	addi	r2,r2,-128
     788:	010000b4 	movhi	r4,2
     78c:	213b2704 	addi	r4,r4,-4964
     790:	100b883a 	mov	r5,r2
     794:	00005180 	call	518 <getLetter>
				//printf("Na reverse twee: %s\n", command);

				getLetter("getReverseLetter 1", command[0]);
     798:	008000b4 	movhi	r2,2
     79c:	108eef04 	addi	r2,r2,15292
     7a0:	10800003 	ldbu	r2,0(r2)
     7a4:	10803fcc 	andi	r2,r2,255
     7a8:	1080201c 	xori	r2,r2,128
     7ac:	10bfe004 	addi	r2,r2,-128
     7b0:	010000b4 	movhi	r4,2
     7b4:	213b2c04 	addi	r4,r4,-4944
     7b8:	100b883a 	mov	r5,r2
     7bc:	00005180 	call	518 <getLetter>
				//printf("Na reverse een: %s\n", command);

				getLetter("getPluggedLetter ", command[0]);
     7c0:	008000b4 	movhi	r2,2
     7c4:	108eef04 	addi	r2,r2,15292
     7c8:	10800003 	ldbu	r2,0(r2)
     7cc:	10803fcc 	andi	r2,r2,255
     7d0:	1080201c 	xori	r2,r2,128
     7d4:	10bfe004 	addi	r2,r2,-128
     7d8:	010000b4 	movhi	r4,2
     7dc:	213b3104 	addi	r4,r4,-4924
     7e0:	100b883a 	mov	r5,r2
     7e4:	00005180 	call	518 <getLetter>
//				getCommand();
//				//getLetter("getRotorLetter 1", command[0]);
//				printf("rotorLetter: %c\n", command[0]);
			}
		}
	}
     7e8:	003f6606 	br	584 <__alt_mem_Flash_flash_data+0xf4000584>

000007ec <rotateTask>:
}

void rotateTask(void * pdata) {
     7ec:	defffa04 	addi	sp,sp,-24
     7f0:	dfc00515 	stw	ra,20(sp)
     7f4:	df000415 	stw	fp,16(sp)
     7f8:	df000404 	addi	fp,sp,16
     7fc:	e13fff15 	stw	r4,-4(fp)
	INT8U err;
	INT8U rotateOne = 0;
     800:	e03ffc05 	stb	zero,-16(fp)
	INT8U rotateTwo = 0;
     804:	e03ffc45 	stb	zero,-15(fp)

	while (1) {
		OSSemPend(sem_rotate, 0, &err);
     808:	d0e8d317 	ldw	r3,-23732(gp)
     80c:	e0bffe04 	addi	r2,fp,-8
     810:	1809883a 	mov	r4,r3
     814:	000b883a 	mov	r5,zero
     818:	100d883a 	mov	r6,r2
     81c:	00184040 	call	18404 <OSSemPend>
		sendCommand("getTriggered 1/");
     820:	010000b4 	movhi	r4,2
     824:	213b3604 	addi	r4,r4,-4904
     828:	000035c0 	call	35c <sendCommand>
		getCommand();
     82c:	00003d80 	call	3d8 <getCommand>
		//printf("COMMAND: %s\n", command);
		if (command[0] == '1') {
     830:	008000b4 	movhi	r2,2
     834:	108eef04 	addi	r2,r2,15292
     838:	10800003 	ldbu	r2,0(r2)
     83c:	10803fcc 	andi	r2,r2,255
     840:	1080201c 	xori	r2,r2,128
     844:	10bfe004 	addi	r2,r2,-128
     848:	10800c58 	cmpnei	r2,r2,49
     84c:	1000051e 	bne	r2,zero,864 <rotateTask+0x78>
			rotateOne = 1;
     850:	00800044 	movi	r2,1
     854:	e0bffc05 	stb	r2,-16(fp)
			printf("TRIGGERED ROTOR 2");
     858:	010000b4 	movhi	r4,2
     85c:	213b3a04 	addi	r4,r4,-4888
     860:	0001f140 	call	1f14 <printf>
		}

		sendCommand("getTriggered 2/");
     864:	010000b4 	movhi	r4,2
     868:	213b3f04 	addi	r4,r4,-4868
     86c:	000035c0 	call	35c <sendCommand>
		getCommand();
     870:	00003d80 	call	3d8 <getCommand>

		if (command[0] == '1') {
     874:	008000b4 	movhi	r2,2
     878:	108eef04 	addi	r2,r2,15292
     87c:	10800003 	ldbu	r2,0(r2)
     880:	10803fcc 	andi	r2,r2,255
     884:	1080201c 	xori	r2,r2,128
     888:	10bfe004 	addi	r2,r2,-128
     88c:	10800c58 	cmpnei	r2,r2,49
     890:	1000021e 	bne	r2,zero,89c <rotateTask+0xb0>
			rotateTwo = 1;
     894:	00800044 	movi	r2,1
     898:	e0bffc45 	stb	r2,-15(fp)
		}

		if (rotateOne) {
     89c:	e0bffc03 	ldbu	r2,-16(fp)
     8a0:	10001526 	beq	r2,zero,8f8 <rotateTask+0x10c>
			sendCommand("rotateForward 2/");
     8a4:	010000b4 	movhi	r4,2
     8a8:	213b4304 	addi	r4,r4,-4852
     8ac:	000035c0 	call	35c <sendCommand>
			rotateOne = 0;
     8b0:	e03ffc05 	stb	zero,-16(fp)

			rotorStanden[2]++;
     8b4:	d0a00684 	addi	r2,gp,-32742
     8b8:	10800003 	ldbu	r2,0(r2)
     8bc:	10800044 	addi	r2,r2,1
     8c0:	1007883a 	mov	r3,r2
     8c4:	d0a00684 	addi	r2,gp,-32742
     8c8:	10c00005 	stb	r3,0(r2)

			if (rotorStanden[2] > 'z') {
     8cc:	d0a00684 	addi	r2,gp,-32742
     8d0:	10800003 	ldbu	r2,0(r2)
     8d4:	10803fcc 	andi	r2,r2,255
     8d8:	1080201c 	xori	r2,r2,128
     8dc:	10bfe004 	addi	r2,r2,-128
     8e0:	10801ed0 	cmplti	r2,r2,123
     8e4:	10001a1e 	bne	r2,zero,950 <rotateTask+0x164>
				rotorStanden[2] = 'a';
     8e8:	d0a00684 	addi	r2,gp,-32742
     8ec:	00c01844 	movi	r3,97
     8f0:	10c00005 	stb	r3,0(r2)
     8f4:	00001606 	br	950 <rotateTask+0x164>
			}

		} else if (rotateTwo) {
     8f8:	e0bffc43 	ldbu	r2,-15(fp)
     8fc:	10001426 	beq	r2,zero,950 <rotateTask+0x164>
			sendCommand("rotateForward 3/");
     900:	010000b4 	movhi	r4,2
     904:	213b4804 	addi	r4,r4,-4832
     908:	000035c0 	call	35c <sendCommand>
			rotateTwo = 0;
     90c:	e03ffc45 	stb	zero,-15(fp)
			rotorStanden[1]++;
     910:	d0a00644 	addi	r2,gp,-32743
     914:	10800003 	ldbu	r2,0(r2)
     918:	10800044 	addi	r2,r2,1
     91c:	1007883a 	mov	r3,r2
     920:	d0a00644 	addi	r2,gp,-32743
     924:	10c00005 	stb	r3,0(r2)

			if (rotorStanden[1] > 'z') {
     928:	d0a00644 	addi	r2,gp,-32743
     92c:	10800003 	ldbu	r2,0(r2)
     930:	10803fcc 	andi	r2,r2,255
     934:	1080201c 	xori	r2,r2,128
     938:	10bfe004 	addi	r2,r2,-128
     93c:	10801ed0 	cmplti	r2,r2,123
     940:	1000031e 	bne	r2,zero,950 <rotateTask+0x164>
				rotorStanden[1] = 'a';
     944:	d0a00644 	addi	r2,gp,-32743
     948:	00c01844 	movi	r3,97
     94c:	10c00005 	stb	r3,0(r2)
			}
		}

		sendCommand("rotateForward 1/");
     950:	010000b4 	movhi	r4,2
     954:	213b4d04 	addi	r4,r4,-4812
     958:	000035c0 	call	35c <sendCommand>
		rotorStanden[3]++;
     95c:	d0a006c4 	addi	r2,gp,-32741
     960:	10800003 	ldbu	r2,0(r2)
     964:	10800044 	addi	r2,r2,1
     968:	1007883a 	mov	r3,r2
     96c:	d0a006c4 	addi	r2,gp,-32741
     970:	10c00005 	stb	r3,0(r2)

		if (rotorStanden[3] > 'z') {
     974:	d0a006c4 	addi	r2,gp,-32741
     978:	10800003 	ldbu	r2,0(r2)
     97c:	10803fcc 	andi	r2,r2,255
     980:	1080201c 	xori	r2,r2,128
     984:	10bfe004 	addi	r2,r2,-128
     988:	10801ed0 	cmplti	r2,r2,123
     98c:	1000031e 	bne	r2,zero,99c <rotateTask+0x1b0>
			rotorStanden[3] = 'a';
     990:	d0a006c4 	addi	r2,gp,-32741
     994:	00c01844 	movi	r3,97
     998:	10c00005 	stb	r3,0(r2)
		}

		// Updates the rotor positions on the screen
		char string[2];
		int i;
		for (i = 3; i > 1; i--) {
     99c:	008000c4 	movi	r2,3
     9a0:	e0bffd15 	stw	r2,-12(fp)
     9a4:	00001606 	br	a00 <rotateTask+0x214>
			sprintf(string, "%c", rotorStanden[i]);
     9a8:	e0fffd17 	ldw	r3,-12(fp)
     9ac:	d0a00604 	addi	r2,gp,-32744
     9b0:	1885883a 	add	r2,r3,r2
     9b4:	10800003 	ldbu	r2,0(r2)
     9b8:	10803fcc 	andi	r2,r2,255
     9bc:	1080201c 	xori	r2,r2,128
     9c0:	10bfe004 	addi	r2,r2,-128
     9c4:	e0fffe44 	addi	r3,fp,-7
     9c8:	1809883a 	mov	r4,r3
     9cc:	014000b4 	movhi	r5,2
     9d0:	297b5204 	addi	r5,r5,-4792
     9d4:	100d883a 	mov	r6,r2
     9d8:	00020640 	call	2064 <sprintf>
			printRotorStand(string, i + 1);
     9dc:	e0bffd17 	ldw	r2,-12(fp)
     9e0:	10800044 	addi	r2,r2,1
     9e4:	e0fffe44 	addi	r3,fp,-7
     9e8:	1809883a 	mov	r4,r3
     9ec:	100b883a 	mov	r5,r2
     9f0:	0001d740 	call	1d74 <printRotorStand>
		}

		// Updates the rotor positions on the screen
		char string[2];
		int i;
		for (i = 3; i > 1; i--) {
     9f4:	e0bffd17 	ldw	r2,-12(fp)
     9f8:	10bfffc4 	addi	r2,r2,-1
     9fc:	e0bffd15 	stw	r2,-12(fp)
     a00:	e0bffd17 	ldw	r2,-12(fp)
     a04:	10800088 	cmpgei	r2,r2,2
     a08:	103fe71e 	bne	r2,zero,9a8 <__alt_mem_Flash_flash_data+0xf40009a8>
			sprintf(string, "%c", rotorStanden[i]);
			printRotorStand(string, i + 1);
		}

		OSSemPost(sem_rotated);
     a0c:	d0a8cb17 	ldw	r2,-23764(gp)
     a10:	1009883a 	mov	r4,r2
     a14:	00187d80 	call	187d8 <OSSemPost>
	}
     a18:	003f7b06 	br	808 <__alt_mem_Flash_flash_data+0xf4000808>

00000a1c <task1>:
}

void task1(void* pdata) {
     a1c:	defffd04 	addi	sp,sp,-12
     a20:	dfc00215 	stw	ra,8(sp)
     a24:	df000115 	stw	fp,4(sp)
     a28:	df000104 	addi	fp,sp,4
     a2c:	e13fff15 	stw	r4,-4(fp)

	while (1) {
		PS2();
     a30:	0001a400 	call	1a40 <PS2>
		strTemp[0] = getKey();
     a34:	0001ab40 	call	1ab4 <getKey>
     a38:	d0a8ca05 	stb	r2,-23768(gp)
		strTemp[1] = '\0';
     a3c:	d0a8ca44 	addi	r2,gp,-23767
     a40:	10000005 	stb	zero,0(r2)
		OSTimeDlyHMSM(0, 0, 0, 100);
     a44:	0009883a 	mov	r4,zero
     a48:	000b883a 	mov	r5,zero
     a4c:	000d883a 	mov	r6,zero
     a50:	01c01904 	movi	r7,100
     a54:	001a5300 	call	1a530 <OSTimeDlyHMSM>
	}
     a58:	003ff506 	br	a30 <__alt_mem_Flash_flash_data+0xf4000a30>

00000a5c <task2>:
}

void task2(void * pdata) {
     a5c:	defffd04 	addi	sp,sp,-12
     a60:	dfc00215 	stw	ra,8(sp)
     a64:	df000115 	stw	fp,4(sp)
     a68:	df000104 	addi	fp,sp,4
     a6c:	e13fff15 	stw	r4,-4(fp)
	INT8U err;

	while (1) {
		//OSSemPend(sem_enigma, 0, &err);

		if (strTemp[0] >= '1' || strTemp[0] <= '5') {
     a70:	d0a8ca03 	ldbu	r2,-23768(gp)
     a74:	10803fcc 	andi	r2,r2,255
     a78:	1080201c 	xori	r2,r2,128
     a7c:	10bfe004 	addi	r2,r2,-128
     a80:	10800c48 	cmpgei	r2,r2,49
     a84:	1000061e 	bne	r2,zero,aa0 <task2+0x44>
     a88:	d0a8ca03 	ldbu	r2,-23768(gp)
     a8c:	10803fcc 	andi	r2,r2,255
     a90:	1080201c 	xori	r2,r2,128
     a94:	10bfe004 	addi	r2,r2,-128
     a98:	10800d88 	cmpgei	r2,r2,54
     a9c:	1000181e 	bne	r2,zero,b00 <task2+0xa4>
			select(strTemp[0]);
     aa0:	d0a8ca03 	ldbu	r2,-23768(gp)
     aa4:	10803fcc 	andi	r2,r2,255
     aa8:	1080201c 	xori	r2,r2,128
     aac:	10bfe004 	addi	r2,r2,-128
     ab0:	1009883a 	mov	r4,r2
     ab4:	00016040 	call	1604 <select>
			printRinginstelling(d, rotorNummer);
     ab8:	d0a00317 	ldw	r2,-32756(gp)
     abc:	d128ca84 	addi	r4,gp,-23766
     ac0:	100b883a 	mov	r5,r2
     ac4:	0001c840 	call	1c84 <printRinginstelling>
			printRotorStand(e, rotorNummer);
     ac8:	d0a00317 	ldw	r2,-32756(gp)
     acc:	d128d204 	addi	r4,gp,-23736
     ad0:	100b883a 	mov	r5,r2
     ad4:	0001d740 	call	1d74 <printRotorStand>
			d[0] = '\0';
     ad8:	d028ca85 	stb	zero,-23766(gp)
			e[0] = '\0';
     adc:	d028d205 	stb	zero,-23736(gp)

			OSTimeDlyHMSM(0, 0, 0, 100);
     ae0:	0009883a 	mov	r4,zero
     ae4:	000b883a 	mov	r5,zero
     ae8:	000d883a 	mov	r6,zero
     aec:	01c01904 	movi	r7,100
     af0:	001a5300 	call	1a530 <OSTimeDlyHMSM>
			OSSemPost(sem_enigma);
     af4:	d0a8cf17 	ldw	r2,-23748(gp)
     af8:	1009883a 	mov	r4,r2
     afc:	00187d80 	call	187d8 <OSSemPost>
		}
		OSTimeDlyHMSM(0, 0, 0, 50);
     b00:	0009883a 	mov	r4,zero
     b04:	000b883a 	mov	r5,zero
     b08:	000d883a 	mov	r6,zero
     b0c:	01c00c84 	movi	r7,50
     b10:	001a5300 	call	1a530 <OSTimeDlyHMSM>

	}
     b14:	003fd606 	br	a70 <__alt_mem_Flash_flash_data+0xf4000a70>

00000b18 <task3>:
}

void task3(void *pdata) {
     b18:	defff404 	addi	sp,sp,-48
     b1c:	dfc00b15 	stw	ra,44(sp)
     b20:	df000a15 	stw	fp,40(sp)
     b24:	dc000915 	stw	r16,36(sp)
     b28:	df000a04 	addi	fp,sp,40
     b2c:	e13ffe15 	stw	r4,-8(fp)
	INT8U err;

	while (1) {
		OSSemPend(sem_enigma, 0, &err);
     b30:	d0a8cf17 	ldw	r2,-23748(gp)
     b34:	1009883a 	mov	r4,r2
     b38:	000b883a 	mov	r5,zero
     b3c:	e1bff604 	addi	r6,fp,-40
     b40:	00184040 	call	18404 <OSSemPend>
		if (strTemp[0] < '1' || strTemp[0] > '5') {
     b44:	d0a8ca03 	ldbu	r2,-23768(gp)
     b48:	10803fcc 	andi	r2,r2,255
     b4c:	1080201c 	xori	r2,r2,128
     b50:	10bfe004 	addi	r2,r2,-128
     b54:	10800c50 	cmplti	r2,r2,49
     b58:	1000061e 	bne	r2,zero,b74 <task3+0x5c>
     b5c:	d0a8ca03 	ldbu	r2,-23768(gp)
     b60:	10803fcc 	andi	r2,r2,255
     b64:	1080201c 	xori	r2,r2,128
     b68:	10bfe004 	addi	r2,r2,-128
     b6c:	10800d90 	cmplti	r2,r2,54
     b70:	10001a1e 	bne	r2,zero,bdc <task3+0xc4>
			char string[30];
			sprintf(string, "%s", strTemp);
     b74:	e0bff644 	addi	r2,fp,-39
     b78:	1009883a 	mov	r4,r2
     b7c:	d168ca04 	addi	r5,gp,-23768
     b80:	00021740 	call	2174 <strcpy>
			err = OSQPost(ControlBlock, string);
     b84:	d0e8cc17 	ldw	r3,-23760(gp)
     b88:	e0bff644 	addi	r2,fp,-39
     b8c:	1809883a 	mov	r4,r3
     b90:	100b883a 	mov	r5,r2
     b94:	00179000 	call	17900 <OSQPost>
     b98:	e0bff605 	stb	r2,-40(fp)
			err = OSMboxPost(messageBox, OSQPend(ControlBlock, 0, &err));
     b9c:	d428c917 	ldw	r16,-23772(gp)
     ba0:	d0a8cc17 	ldw	r2,-23760(gp)
     ba4:	1009883a 	mov	r4,r2
     ba8:	000b883a 	mov	r5,zero
     bac:	e1bff604 	addi	r6,fp,-40
     bb0:	00174980 	call	17498 <OSQPend>
     bb4:	8009883a 	mov	r4,r16
     bb8:	100b883a 	mov	r5,r2
     bbc:	00162dc0 	call	162dc <OSMboxPost>
     bc0:	e0bff605 	stb	r2,-40(fp)
			typen(strTemp[0]);
     bc4:	d0a8ca03 	ldbu	r2,-23768(gp)
     bc8:	10803fcc 	andi	r2,r2,255
     bcc:	1080201c 	xori	r2,r2,128
     bd0:	10bfe004 	addi	r2,r2,-128
     bd4:	1009883a 	mov	r4,r2
     bd8:	0000f6c0 	call	f6c <typen>
		}

		//OSSemPost(sem_enigma);
		OSTimeDlyHMSM(0, 0, 0, 100);
     bdc:	0009883a 	mov	r4,zero
     be0:	000b883a 	mov	r5,zero
     be4:	000d883a 	mov	r6,zero
     be8:	01c01904 	movi	r7,100
     bec:	001a5300 	call	1a530 <OSTimeDlyHMSM>
	}
     bf0:	003fcf06 	br	b30 <__alt_mem_Flash_flash_data+0xf4000b30>

00000bf4 <main>:
}

/* The main function creates two task and starts multi-tasking */
int main(void) {
     bf4:	defffd04 	addi	sp,sp,-12
     bf8:	dfc00215 	stw	ra,8(sp)
     bfc:	df000115 	stw	fp,4(sp)
     c00:	df000104 	addi	fp,sp,4

	OSInit();								// Initialize uCOS-II.
     c04:	00129a40 	call	129a4 <OSInit>

	sem_hardware = OSSemCreate(1);
     c08:	01000044 	movi	r4,1
     c0c:	001809c0 	call	1809c <OSSemCreate>
     c10:	d0a8d115 	stw	r2,-23740(gp)
	sem_rotate = OSSemCreate(0);
     c14:	0009883a 	mov	r4,zero
     c18:	001809c0 	call	1809c <OSSemCreate>
     c1c:	d0a8d315 	stw	r2,-23732(gp)
	sem_rotated = OSSemCreate(0);
     c20:	0009883a 	mov	r4,zero
     c24:	001809c0 	call	1809c <OSSemCreate>
     c28:	d0a8cb15 	stw	r2,-23764(gp)
	sem_enigma = OSSemCreate(1);
     c2c:	01000044 	movi	r4,1
     c30:	001809c0 	call	1809c <OSSemCreate>
     c34:	d0a8cf15 	stw	r2,-23748(gp)

	ControlBlock = OSQCreate(&messages, 40);
     c38:	010000b4 	movhi	r4,2
     c3c:	211f2604 	addi	r4,r4,31896
     c40:	01400a04 	movi	r5,40
     c44:	0016f1c0 	call	16f1c <OSQCreate>
     c48:	d0a8cc15 	stw	r2,-23760(gp)
	messageBox = OSMboxCreate(NULL);
     c4c:	0009883a 	mov	r4,zero
     c50:	0015b680 	call	15b68 <OSMboxCreate>
     c54:	d0a8c915 	stw	r2,-23772(gp)

	VGA_box(0, 0, 160, 240, 0);
     c58:	d8000015 	stw	zero,0(sp)
     c5c:	0009883a 	mov	r4,zero
     c60:	000b883a 	mov	r5,zero
     c64:	01802804 	movi	r6,160
     c68:	01c03c04 	movi	r7,240
     c6c:	0000e3c0 	call	e3c <VGA_box>
	VGA_box(161, 0, 320, 240, 0);
     c70:	d8000015 	stw	zero,0(sp)
     c74:	01002844 	movi	r4,161
     c78:	000b883a 	mov	r5,zero
     c7c:	01805004 	movi	r6,320
     c80:	01c03c04 	movi	r7,240
     c84:	0000e3c0 	call	e3c <VGA_box>

	VGA_box(20, 200, 60, 220, 0x8410);
     c88:	00a10404 	movi	r2,-31728
     c8c:	d8800015 	stw	r2,0(sp)
     c90:	01000504 	movi	r4,20
     c94:	01403204 	movi	r5,200
     c98:	01800f04 	movi	r6,60
     c9c:	01c03704 	movi	r7,220
     ca0:	0000e3c0 	call	e3c <VGA_box>
	VGA_box(100, 180, 140, 220, 0x8410);
     ca4:	00a10404 	movi	r2,-31728
     ca8:	d8800015 	stw	r2,0(sp)
     cac:	01001904 	movi	r4,100
     cb0:	01402d04 	movi	r5,180
     cb4:	01802304 	movi	r6,140
     cb8:	01c03704 	movi	r7,220
     cbc:	0000e3c0 	call	e3c <VGA_box>
	VGA_box(180, 180, 220, 220, 0x8410);
     cc0:	00a10404 	movi	r2,-31728
     cc4:	d8800015 	stw	r2,0(sp)
     cc8:	01002d04 	movi	r4,180
     ccc:	01402d04 	movi	r5,180
     cd0:	01803704 	movi	r6,220
     cd4:	01c03704 	movi	r7,220
     cd8:	0000e3c0 	call	e3c <VGA_box>
	VGA_box(260, 180, 300, 220, 0x8410);
     cdc:	00a10404 	movi	r2,-31728
     ce0:	d8800015 	stw	r2,0(sp)
     ce4:	01004104 	movi	r4,260
     ce8:	01402d04 	movi	r5,180
     cec:	01804b04 	movi	r6,300
     cf0:	01c03704 	movi	r7,220
     cf4:	0000e3c0 	call	e3c <VGA_box>
	VGA_box(20, 180, 60, 200, 0xF800);
     cf8:	00be0004 	movi	r2,-2048
     cfc:	d8800015 	stw	r2,0(sp)
     d00:	01000504 	movi	r4,20
     d04:	01402d04 	movi	r5,180
     d08:	01800f04 	movi	r6,60
     d0c:	01c03204 	movi	r7,200
     d10:	0000e3c0 	call	e3c <VGA_box>

	printRinginstelling("1", 1);
     d14:	010000b4 	movhi	r4,2
     d18:	213b5304 	addi	r4,r4,-4788
     d1c:	01400044 	movi	r5,1
     d20:	0001c840 	call	1c84 <printRinginstelling>
	printRinginstelling("1", 2);
     d24:	010000b4 	movhi	r4,2
     d28:	213b5304 	addi	r4,r4,-4788
     d2c:	01400084 	movi	r5,2
     d30:	0001c840 	call	1c84 <printRinginstelling>
	printRinginstelling("1", 3);
     d34:	010000b4 	movhi	r4,2
     d38:	213b5304 	addi	r4,r4,-4788
     d3c:	014000c4 	movi	r5,3
     d40:	0001c840 	call	1c84 <printRinginstelling>
	printRinginstelling("1", 4);
     d44:	010000b4 	movhi	r4,2
     d48:	213b5304 	addi	r4,r4,-4788
     d4c:	01400104 	movi	r5,4
     d50:	0001c840 	call	1c84 <printRinginstelling>

	printRotorStand("a", 1);
     d54:	010000b4 	movhi	r4,2
     d58:	213b5404 	addi	r4,r4,-4784
     d5c:	01400044 	movi	r5,1
     d60:	0001d740 	call	1d74 <printRotorStand>
	printRotorStand("a", 2);
     d64:	010000b4 	movhi	r4,2
     d68:	213b5404 	addi	r4,r4,-4784
     d6c:	01400084 	movi	r5,2
     d70:	0001d740 	call	1d74 <printRotorStand>
	printRotorStand("a", 3);
     d74:	010000b4 	movhi	r4,2
     d78:	213b5404 	addi	r4,r4,-4784
     d7c:	014000c4 	movi	r5,3
     d80:	0001d740 	call	1d74 <printRotorStand>
	printRotorStand("a", 4);
     d84:	010000b4 	movhi	r4,2
     d88:	213b5404 	addi	r4,r4,-4784
     d8c:	01400104 	movi	r5,4
     d90:	0001d740 	call	1d74 <printRotorStand>

	OSTaskCreate(task1, (void*) 0, &task1_stk[TASK_STACKSIZE - 1],
     d94:	01000034 	movhi	r4,0
     d98:	21028704 	addi	r4,r4,2588
     d9c:	000b883a 	mov	r5,zero
     da0:	018000b4 	movhi	r6,2
     da4:	31970204 	addi	r6,r6,23560
     da8:	01c00284 	movi	r7,10
     dac:	00190340 	call	19034 <OSTaskCreate>
	TASK1_PRIORITY);
	OSTaskCreate(task2, (void*) 0, &task2_stk[TASK_STACKSIZE - 1],
     db0:	01000034 	movhi	r4,0
     db4:	21029704 	addi	r4,r4,2652
     db8:	000b883a 	mov	r5,zero
     dbc:	018000f4 	movhi	r6,3
     dc0:	31a74d04 	addi	r6,r6,-25292
     dc4:	01c002c4 	movi	r7,11
     dc8:	00190340 	call	19034 <OSTaskCreate>
	TASK2_PRIORITY);
	OSTaskCreate(task3, (void*) 0, &task3_stk[TASK_STACKSIZE - 1],
     dcc:	01000034 	movhi	r4,0
     dd0:	2102c604 	addi	r4,r4,2840
     dd4:	000b883a 	mov	r5,zero
     dd8:	018000f4 	movhi	r6,3
     ddc:	31af4d04 	addi	r6,r6,-17100
     de0:	01c00204 	movi	r7,8
     de4:	00190340 	call	19034 <OSTaskCreate>
	TASK3_PRIORITY);
	OSTaskCreate(cryptTask, (void*) 0, &crypt_stk[TASK_STACKSIZE - 1],
     de8:	01000034 	movhi	r4,0
     dec:	21015c04 	addi	r4,r4,1392
     df0:	000b883a 	mov	r5,zero
     df4:	018000f4 	movhi	r6,3
     df8:	31b75704 	addi	r6,r6,-8868
     dfc:	01c00184 	movi	r7,6
     e00:	00190340 	call	19034 <OSTaskCreate>
	CRYPT_PRIORITY);
	OSTaskCreate(rotateTask, (void*) 0, &rotateTask_stk[TASK_STACKSIZE - 1],
     e04:	01000034 	movhi	r4,0
     e08:	2101fb04 	addi	r4,r4,2028
     e0c:	000b883a 	mov	r5,zero
     e10:	018000b4 	movhi	r6,2
     e14:	319f0204 	addi	r6,r6,31752
     e18:	01c001c4 	movi	r7,7
     e1c:	00190340 	call	19034 <OSTaskCreate>
	ROTATETASK_PRIORITY);

	OSStart();
     e20:	0012cc80 	call	12cc8 <OSStart>
	return 0;
     e24:	0005883a 	mov	r2,zero
}
     e28:	e037883a 	mov	sp,fp
     e2c:	dfc00117 	ldw	ra,4(sp)
     e30:	df000017 	ldw	fp,0(sp)
     e34:	dec00204 	addi	sp,sp,8
     e38:	f800283a 	ret

00000e3c <VGA_box>:

void VGA_box(int x1, int y1, int x2, int y2, short pixel_color) { //320x240
     e3c:	defff704 	addi	sp,sp,-36
     e40:	df000815 	stw	fp,32(sp)
     e44:	df000804 	addi	fp,sp,32
     e48:	e13ffb15 	stw	r4,-20(fp)
     e4c:	e17ffc15 	stw	r5,-16(fp)
     e50:	e1bffd15 	stw	r6,-12(fp)
     e54:	e1fffe15 	stw	r7,-8(fp)
     e58:	e0800117 	ldw	r2,4(fp)
     e5c:	e0bfff0d 	sth	r2,-4(fp)
	int offset, row, col;
	// VGA pixel buffer

	/* assume that the box coordinates are valid */
	for (row = y1; row <= y2; row++) {
     e60:	e0bffc17 	ldw	r2,-16(fp)
     e64:	e0bff815 	stw	r2,-32(fp)
     e68:	00001706 	br	ec8 <VGA_box+0x8c>
		col = x1;
     e6c:	e0bffb17 	ldw	r2,-20(fp)
     e70:	e0bff915 	stw	r2,-28(fp)
		while (col <= x2) {
     e74:	00000e06 	br	eb0 <VGA_box+0x74>
			offset = (row << 9) + col;
     e78:	e0bff817 	ldw	r2,-32(fp)
     e7c:	1006927a 	slli	r3,r2,9
     e80:	e0bff917 	ldw	r2,-28(fp)
     e84:	1885883a 	add	r2,r3,r2
     e88:	e0bffa15 	stw	r2,-24(fp)
			*(pixel_buffer + offset) = pixel_color;	// compute halfword address, set pixel
     e8c:	d0e00217 	ldw	r3,-32760(gp)
     e90:	e0bffa17 	ldw	r2,-24(fp)
     e94:	1085883a 	add	r2,r2,r2
     e98:	1885883a 	add	r2,r3,r2
     e9c:	e0ffff0b 	ldhu	r3,-4(fp)
     ea0:	10c0000d 	sth	r3,0(r2)
			++col;
     ea4:	e0bff917 	ldw	r2,-28(fp)
     ea8:	10800044 	addi	r2,r2,1
     eac:	e0bff915 	stw	r2,-28(fp)
	// VGA pixel buffer

	/* assume that the box coordinates are valid */
	for (row = y1; row <= y2; row++) {
		col = x1;
		while (col <= x2) {
     eb0:	e0bff917 	ldw	r2,-28(fp)
     eb4:	e0fffd17 	ldw	r3,-12(fp)
     eb8:	18bfef0e 	bge	r3,r2,e78 <__alt_mem_Flash_flash_data+0xf4000e78>
void VGA_box(int x1, int y1, int x2, int y2, short pixel_color) { //320x240
	int offset, row, col;
	// VGA pixel buffer

	/* assume that the box coordinates are valid */
	for (row = y1; row <= y2; row++) {
     ebc:	e0bff817 	ldw	r2,-32(fp)
     ec0:	10800044 	addi	r2,r2,1
     ec4:	e0bff815 	stw	r2,-32(fp)
     ec8:	e0bff817 	ldw	r2,-32(fp)
     ecc:	e0fffe17 	ldw	r3,-8(fp)
     ed0:	18bfe60e 	bge	r3,r2,e6c <__alt_mem_Flash_flash_data+0xf4000e6c>
			offset = (row << 9) + col;
			*(pixel_buffer + offset) = pixel_color;	// compute halfword address, set pixel
			++col;
		}
	}
}
     ed4:	e037883a 	mov	sp,fp
     ed8:	df000017 	ldw	fp,0(sp)
     edc:	dec00104 	addi	sp,sp,4
     ee0:	f800283a 	ret

00000ee4 <VGA_text>:

void VGA_text(int x, int y, char * text_ptr) {
     ee4:	defffb04 	addi	sp,sp,-20
     ee8:	df000415 	stw	fp,16(sp)
     eec:	df000404 	addi	fp,sp,16
     ef0:	e13ffd15 	stw	r4,-12(fp)
     ef4:	e17ffe15 	stw	r5,-8(fp)
     ef8:	e1bfff15 	stw	r6,-4(fp)
	int offset;

	/* assume that the text string fits on one line */
	offset = (y << 7) + x;
     efc:	e0bffe17 	ldw	r2,-8(fp)
     f00:	100691fa 	slli	r3,r2,7
     f04:	e0bffd17 	ldw	r2,-12(fp)
     f08:	1885883a 	add	r2,r3,r2
     f0c:	e0bffc15 	stw	r2,-16(fp)
	while (*(text_ptr)) {
     f10:	00000c06 	br	f44 <VGA_text+0x60>

		*(character_buffer + offset) = *(text_ptr);	// write to the character buffer
     f14:	d0e00117 	ldw	r3,-32764(gp)
     f18:	e0bffc17 	ldw	r2,-16(fp)
     f1c:	1885883a 	add	r2,r3,r2
     f20:	e0ffff17 	ldw	r3,-4(fp)
     f24:	18c00003 	ldbu	r3,0(r3)
     f28:	10c00005 	stb	r3,0(r2)
		++text_ptr;
     f2c:	e0bfff17 	ldw	r2,-4(fp)
     f30:	10800044 	addi	r2,r2,1
     f34:	e0bfff15 	stw	r2,-4(fp)
		++offset;
     f38:	e0bffc17 	ldw	r2,-16(fp)
     f3c:	10800044 	addi	r2,r2,1
     f40:	e0bffc15 	stw	r2,-16(fp)
void VGA_text(int x, int y, char * text_ptr) {
	int offset;

	/* assume that the text string fits on one line */
	offset = (y << 7) + x;
	while (*(text_ptr)) {
     f44:	e0bfff17 	ldw	r2,-4(fp)
     f48:	10800003 	ldbu	r2,0(r2)
     f4c:	10803fcc 	andi	r2,r2,255
     f50:	1080201c 	xori	r2,r2,128
     f54:	10bfe004 	addi	r2,r2,-128
     f58:	103fee1e 	bne	r2,zero,f14 <__alt_mem_Flash_flash_data+0xf4000f14>

		*(character_buffer + offset) = *(text_ptr);	// write to the character buffer
		++text_ptr;
		++offset;
	}
}
     f5c:	e037883a 	mov	sp,fp
     f60:	df000017 	ldw	fp,0(sp)
     f64:	dec00104 	addi	sp,sp,4
     f68:	f800283a 	ret

00000f6c <typen>:

void typen(char c) {
     f6c:	defffd04 	addi	sp,sp,-12
     f70:	dfc00215 	stw	ra,8(sp)
     f74:	df000115 	stw	fp,4(sp)
     f78:	df000104 	addi	fp,sp,4
     f7c:	2005883a 	mov	r2,r4
     f80:	e0bfff05 	stb	r2,-4(fp)
	INT8U err;
	strTemp[0] = c;
     f84:	e0bfff03 	ldbu	r2,-4(fp)
     f88:	d0a8ca05 	stb	r2,-23768(gp)
	strTemp[1] = '\0';
     f8c:	d0a8ca44 	addi	r2,gp,-23767
     f90:	10000005 	stb	zero,0(r2)

	if (count <= 5) {
     f94:	d0a00417 	ldw	r2,-32752(gp)
     f98:	10800188 	cmpgei	r2,r2,6
     f9c:	1000031e 	bne	r2,zero,fac <typen+0x40>
		count = 5;
     fa0:	00800144 	movi	r2,5
     fa4:	d0a00415 	stw	r2,-32752(gp)
     fa8:	00001406 	br	ffc <typen+0x90>
	} else if (count >= 35) {
     fac:	d0a00417 	ldw	r2,-32752(gp)
     fb0:	108008d0 	cmplti	r2,r2,35
     fb4:	1000061e 	bne	r2,zero,fd0 <typen+0x64>
		count = 5;
     fb8:	00800144 	movi	r2,5
     fbc:	d0a00415 	stw	r2,-32752(gp)
		y++;
     fc0:	d0a00717 	ldw	r2,-32740(gp)
     fc4:	10800044 	addi	r2,r2,1
     fc8:	d0a00715 	stw	r2,-32740(gp)
     fcc:	00000b06 	br	ffc <typen+0x90>
	} else if (y <= 5) {
     fd0:	d0a00717 	ldw	r2,-32740(gp)
     fd4:	10800188 	cmpgei	r2,r2,6
     fd8:	1000031e 	bne	r2,zero,fe8 <typen+0x7c>
		y = 5;
     fdc:	00800144 	movi	r2,5
     fe0:	d0a00715 	stw	r2,-32740(gp)
     fe4:	00000506 	br	ffc <typen+0x90>
	} else if (y >= 40) {
     fe8:	d0a00717 	ldw	r2,-32740(gp)
     fec:	10800a10 	cmplti	r2,r2,40
     ff0:	1000021e 	bne	r2,zero,ffc <typen+0x90>
		y = 40;
     ff4:	00800a04 	movi	r2,40
     ff8:	d0a00715 	stw	r2,-32740(gp)
	}

	if (strTemp[0] == ESC) {
     ffc:	d0a8ca03 	ldbu	r2,-23768(gp)
    1000:	10803fcc 	andi	r2,r2,255
    1004:	1080201c 	xori	r2,r2,128
    1008:	10bfe004 	addi	r2,r2,-128
    100c:	10800e18 	cmpnei	r2,r2,56
    1010:	1000061e 	bne	r2,zero,102c <typen+0xc0>
		clearScreen();
    1014:	00019e80 	call	19e8 <clearScreen>
		count = 5;
    1018:	00800144 	movi	r2,5
    101c:	d0a00415 	stw	r2,-32752(gp)
		y = 5;
    1020:	00800144 	movi	r2,5
    1024:	d0a00715 	stw	r2,-32740(gp)
    1028:	00006506 	br	11c0 <typen+0x254>
	} else if (strTemp[0] == BKSP) {
    102c:	d0a8ca03 	ldbu	r2,-23768(gp)
    1030:	10803fcc 	andi	r2,r2,255
    1034:	1080201c 	xori	r2,r2,128
    1038:	10bfe004 	addi	r2,r2,-128
    103c:	10800dd8 	cmpnei	r2,r2,55
    1040:	10001e1e 	bne	r2,zero,10bc <typen+0x150>
		if (count == 5 && y > 5) {
    1044:	d0a00417 	ldw	r2,-32752(gp)
    1048:	10800158 	cmpnei	r2,r2,5
    104c:	1000081e 	bne	r2,zero,1070 <typen+0x104>
    1050:	d0a00717 	ldw	r2,-32740(gp)
    1054:	10800190 	cmplti	r2,r2,6
    1058:	1000051e 	bne	r2,zero,1070 <typen+0x104>
			y--;
    105c:	d0a00717 	ldw	r2,-32740(gp)
    1060:	10bfffc4 	addi	r2,r2,-1
    1064:	d0a00715 	stw	r2,-32740(gp)
			count = 35;
    1068:	008008c4 	movi	r2,35
    106c:	d0a00415 	stw	r2,-32752(gp)
		}
		count--;
    1070:	d0a00417 	ldw	r2,-32752(gp)
    1074:	10bfffc4 	addi	r2,r2,-1
    1078:	d0a00415 	stw	r2,-32752(gp)
		VGA_text(count, y, " ");
    107c:	d0e00417 	ldw	r3,-32752(gp)
    1080:	d0a00717 	ldw	r2,-32740(gp)
    1084:	1809883a 	mov	r4,r3
    1088:	100b883a 	mov	r5,r2
    108c:	018000b4 	movhi	r6,2
    1090:	31bb5504 	addi	r6,r6,-4780
    1094:	0000ee40 	call	ee4 <VGA_text>
		VGA_text(count + 40, y, " ");
    1098:	d0a00417 	ldw	r2,-32752(gp)
    109c:	10c00a04 	addi	r3,r2,40
    10a0:	d0a00717 	ldw	r2,-32740(gp)
    10a4:	1809883a 	mov	r4,r3
    10a8:	100b883a 	mov	r5,r2
    10ac:	018000b4 	movhi	r6,2
    10b0:	31bb5504 	addi	r6,r6,-4780
    10b4:	0000ee40 	call	ee4 <VGA_text>
    10b8:	00004106 	br	11c0 <typen+0x254>
	} else if (strTemp[0] == SPACE) {
    10bc:	d0a8ca03 	ldbu	r2,-23768(gp)
    10c0:	10803fcc 	andi	r2,r2,255
    10c4:	1080201c 	xori	r2,r2,128
    10c8:	10bfe004 	addi	r2,r2,-128
    10cc:	10800d98 	cmpnei	r2,r2,54
    10d0:	1000131e 	bne	r2,zero,1120 <typen+0x1b4>
		VGA_text(count, y, " ");
    10d4:	d0e00417 	ldw	r3,-32752(gp)
    10d8:	d0a00717 	ldw	r2,-32740(gp)
    10dc:	1809883a 	mov	r4,r3
    10e0:	100b883a 	mov	r5,r2
    10e4:	018000b4 	movhi	r6,2
    10e8:	31bb5504 	addi	r6,r6,-4780
    10ec:	0000ee40 	call	ee4 <VGA_text>
		VGA_text(count + 40, y, " ");
    10f0:	d0a00417 	ldw	r2,-32752(gp)
    10f4:	10c00a04 	addi	r3,r2,40
    10f8:	d0a00717 	ldw	r2,-32740(gp)
    10fc:	1809883a 	mov	r4,r3
    1100:	100b883a 	mov	r5,r2
    1104:	018000b4 	movhi	r6,2
    1108:	31bb5504 	addi	r6,r6,-4780
    110c:	0000ee40 	call	ee4 <VGA_text>
		count++;
    1110:	d0a00417 	ldw	r2,-32752(gp)
    1114:	10800044 	addi	r2,r2,1
    1118:	d0a00415 	stw	r2,-32752(gp)
    111c:	00002806 	br	11c0 <typen+0x254>
	} else if (strTemp[0] == ENTER) {
    1120:	d0a8ca03 	ldbu	r2,-23768(gp)
    1124:	10803fcc 	andi	r2,r2,255
    1128:	1080201c 	xori	r2,r2,128
    112c:	10bfe004 	addi	r2,r2,-128
    1130:	10800e58 	cmpnei	r2,r2,57
    1134:	1000061e 	bne	r2,zero,1150 <typen+0x1e4>
		count = 5;
    1138:	00800144 	movi	r2,5
    113c:	d0a00415 	stw	r2,-32752(gp)
		y++;
    1140:	d0a00717 	ldw	r2,-32740(gp)
    1144:	10800044 	addi	r2,r2,1
    1148:	d0a00715 	stw	r2,-32740(gp)
    114c:	00001c06 	br	11c0 <typen+0x254>
	} else {
		if (strTemp[0] != 0) {
    1150:	d0a8ca03 	ldbu	r2,-23768(gp)
    1154:	10803fcc 	andi	r2,r2,255
    1158:	1080201c 	xori	r2,r2,128
    115c:	10bfe004 	addi	r2,r2,-128
    1160:	10001726 	beq	r2,zero,11c0 <typen+0x254>
			VGA_text(count, y, strTemp);
    1164:	d0e00417 	ldw	r3,-32752(gp)
    1168:	d0a00717 	ldw	r2,-32740(gp)
    116c:	1809883a 	mov	r4,r3
    1170:	100b883a 	mov	r5,r2
    1174:	d1a8ca04 	addi	r6,gp,-23768
    1178:	0000ee40 	call	ee4 <VGA_text>
			//printf("string: %s %c\n", command, command[0]);
			OSTimeDlyHMSM(0, 0, 0, 65);
    117c:	0009883a 	mov	r4,zero
    1180:	000b883a 	mov	r5,zero
    1184:	000d883a 	mov	r6,zero
    1188:	01c01044 	movi	r7,65
    118c:	001a5300 	call	1a530 <OSTimeDlyHMSM>
			VGA_text(count + 40, y, command);
    1190:	d0a00417 	ldw	r2,-32752(gp)
    1194:	10c00a04 	addi	r3,r2,40
    1198:	d0a00717 	ldw	r2,-32740(gp)
    119c:	1809883a 	mov	r4,r3
    11a0:	100b883a 	mov	r5,r2
    11a4:	018000b4 	movhi	r6,2
    11a8:	318eef04 	addi	r6,r6,15292
    11ac:	0000ee40 	call	ee4 <VGA_text>
			strTemp[0] = 0;
    11b0:	d028ca05 	stb	zero,-23768(gp)
			count++;
    11b4:	d0a00417 	ldw	r2,-32752(gp)
    11b8:	10800044 	addi	r2,r2,1
    11bc:	d0a00415 	stw	r2,-32752(gp)
		}
	}
}
    11c0:	e037883a 	mov	sp,fp
    11c4:	dfc00117 	ldw	ra,4(sp)
    11c8:	df000017 	ldw	fp,0(sp)
    11cc:	dec00204 	addi	sp,sp,8
    11d0:	f800283a 	ret

000011d4 <changeRotor>:

void changeRotor(char knop) {
    11d4:	defff504 	addi	sp,sp,-44
    11d8:	dfc00a15 	stw	ra,40(sp)
    11dc:	df000915 	stw	fp,36(sp)
    11e0:	df000904 	addi	fp,sp,36
    11e4:	2005883a 	mov	r2,r4
    11e8:	e0bfff05 	stb	r2,-4(fp)
	char tempo[30];
	if (knop == UP) {
    11ec:	e0bfff07 	ldb	r2,-4(fp)
    11f0:	10800c58 	cmpnei	r2,r2,49
    11f4:	10007d1e 	bne	r2,zero,13ec <changeRotor+0x218>
		if (rij == 1) {
    11f8:	d0a00517 	ldw	r2,-32748(gp)
    11fc:	10800058 	cmpnei	r2,r2,1
    1200:	1000341e 	bne	r2,zero,12d4 <changeRotor+0x100>
			rotorStanden[rotorNummer - 1]++;
    1204:	d0a00317 	ldw	r2,-32756(gp)
    1208:	10bfffc4 	addi	r2,r2,-1
    120c:	d0e00604 	addi	r3,gp,-32744
    1210:	10c7883a 	add	r3,r2,r3
    1214:	18c00003 	ldbu	r3,0(r3)
    1218:	18c00044 	addi	r3,r3,1
    121c:	1809883a 	mov	r4,r3
    1220:	d0e00604 	addi	r3,gp,-32744
    1224:	10c5883a 	add	r2,r2,r3
    1228:	11000005 	stb	r4,0(r2)
			if (rotorStanden[rotorNummer - 1] > 'z') {
    122c:	d0a00317 	ldw	r2,-32756(gp)
    1230:	10ffffc4 	addi	r3,r2,-1
    1234:	d0a00604 	addi	r2,gp,-32744
    1238:	1885883a 	add	r2,r3,r2
    123c:	10800003 	ldbu	r2,0(r2)
    1240:	10803fcc 	andi	r2,r2,255
    1244:	1080201c 	xori	r2,r2,128
    1248:	10bfe004 	addi	r2,r2,-128
    124c:	10801ed0 	cmplti	r2,r2,123
    1250:	1000061e 	bne	r2,zero,126c <changeRotor+0x98>
				rotorStanden[rotorNummer - 1] = 'a';
    1254:	d0a00317 	ldw	r2,-32756(gp)
    1258:	10ffffc4 	addi	r3,r2,-1
    125c:	d0a00604 	addi	r2,gp,-32744
    1260:	1885883a 	add	r2,r3,r2
    1264:	00c01844 	movi	r3,97
    1268:	10c00005 	stb	r3,0(r2)
			}
			sprintf(tempo, "rotateForward %d/", 5 - rotorNummer);
    126c:	d0a00317 	ldw	r2,-32756(gp)
    1270:	00c00144 	movi	r3,5
    1274:	1885c83a 	sub	r2,r3,r2
    1278:	e13ff704 	addi	r4,fp,-36
    127c:	014000b4 	movhi	r5,2
    1280:	297b5604 	addi	r5,r5,-4776
    1284:	100d883a 	mov	r6,r2
    1288:	00020640 	call	2064 <sprintf>
			printf("%s\n", tempo);
    128c:	e13ff704 	addi	r4,fp,-36
    1290:	0001ff80 	call	1ff8 <puts>
			sendCommand(tempo);
    1294:	e13ff704 	addi	r4,fp,-36
    1298:	000035c0 	call	35c <sendCommand>
			sprintf(e, "%c", rotorStanden[rotorNummer - 1]);
    129c:	d0a00317 	ldw	r2,-32756(gp)
    12a0:	10ffffc4 	addi	r3,r2,-1
    12a4:	d0a00604 	addi	r2,gp,-32744
    12a8:	1885883a 	add	r2,r3,r2
    12ac:	10800003 	ldbu	r2,0(r2)
    12b0:	10803fcc 	andi	r2,r2,255
    12b4:	1080201c 	xori	r2,r2,128
    12b8:	10bfe004 	addi	r2,r2,-128
    12bc:	d128d204 	addi	r4,gp,-23736
    12c0:	014000b4 	movhi	r5,2
    12c4:	297b5204 	addi	r5,r5,-4792
    12c8:	100d883a 	mov	r6,r2
    12cc:	00020640 	call	2064 <sprintf>
    12d0:	0000c206 	br	15dc <changeRotor+0x408>
		} else if (rij == 2) {
    12d4:	d0a00517 	ldw	r2,-32748(gp)
    12d8:	10800098 	cmpnei	r2,r2,2
    12dc:	1000bf1e 	bne	r2,zero,15dc <changeRotor+0x408>
			ringInstellingen[rotorNummer - 1]++;
    12e0:	d0a00317 	ldw	r2,-32756(gp)
    12e4:	10bfffc4 	addi	r2,r2,-1
    12e8:	00c000b4 	movhi	r3,2
    12ec:	18fda204 	addi	r3,r3,-2424
    12f0:	1089883a 	add	r4,r2,r2
    12f4:	2109883a 	add	r4,r4,r4
    12f8:	1907883a 	add	r3,r3,r4
    12fc:	18c00017 	ldw	r3,0(r3)
    1300:	19000044 	addi	r4,r3,1
    1304:	00c000b4 	movhi	r3,2
    1308:	18fda204 	addi	r3,r3,-2424
    130c:	1085883a 	add	r2,r2,r2
    1310:	1085883a 	add	r2,r2,r2
    1314:	1885883a 	add	r2,r3,r2
    1318:	11000015 	stw	r4,0(r2)
			if (ringInstellingen[rotorNummer - 1] > 26) {
    131c:	d0a00317 	ldw	r2,-32756(gp)
    1320:	10ffffc4 	addi	r3,r2,-1
    1324:	008000b4 	movhi	r2,2
    1328:	10bda204 	addi	r2,r2,-2424
    132c:	18c7883a 	add	r3,r3,r3
    1330:	18c7883a 	add	r3,r3,r3
    1334:	10c5883a 	add	r2,r2,r3
    1338:	10800017 	ldw	r2,0(r2)
    133c:	108006d0 	cmplti	r2,r2,27
    1340:	1000091e 	bne	r2,zero,1368 <changeRotor+0x194>
				ringInstellingen[rotorNummer - 1] = 1;
    1344:	d0a00317 	ldw	r2,-32756(gp)
    1348:	10ffffc4 	addi	r3,r2,-1
    134c:	008000b4 	movhi	r2,2
    1350:	10bda204 	addi	r2,r2,-2424
    1354:	18c7883a 	add	r3,r3,r3
    1358:	18c7883a 	add	r3,r3,r3
    135c:	10c5883a 	add	r2,r2,r3
    1360:	00c00044 	movi	r3,1
    1364:	10c00015 	stw	r3,0(r2)
			}
			sprintf(tempo, "changeRingCfg %d%c/", 5 - rotorNummer,
    1368:	d0a00317 	ldw	r2,-32756(gp)
    136c:	00c00144 	movi	r3,5
    1370:	188dc83a 	sub	r6,r3,r2
					ringInstellingen[rotorNummer - 1] + 'a' - 1);
    1374:	d0a00317 	ldw	r2,-32756(gp)
    1378:	10ffffc4 	addi	r3,r2,-1
    137c:	008000b4 	movhi	r2,2
    1380:	10bda204 	addi	r2,r2,-2424
    1384:	18c7883a 	add	r3,r3,r3
    1388:	18c7883a 	add	r3,r3,r3
    138c:	10c5883a 	add	r2,r2,r3
    1390:	10800017 	ldw	r2,0(r2)
		} else if (rij == 2) {
			ringInstellingen[rotorNummer - 1]++;
			if (ringInstellingen[rotorNummer - 1] > 26) {
				ringInstellingen[rotorNummer - 1] = 1;
			}
			sprintf(tempo, "changeRingCfg %d%c/", 5 - rotorNummer,
    1394:	10801804 	addi	r2,r2,96
    1398:	e13ff704 	addi	r4,fp,-36
    139c:	014000b4 	movhi	r5,2
    13a0:	297b5b04 	addi	r5,r5,-4756
    13a4:	100f883a 	mov	r7,r2
    13a8:	00020640 	call	2064 <sprintf>
					ringInstellingen[rotorNummer - 1] + 'a' - 1);
			sendCommand(tempo);
    13ac:	e13ff704 	addi	r4,fp,-36
    13b0:	000035c0 	call	35c <sendCommand>
			sprintf(d, "%d", ringInstellingen[rotorNummer - 1]);
    13b4:	d0a00317 	ldw	r2,-32756(gp)
    13b8:	10ffffc4 	addi	r3,r2,-1
    13bc:	008000b4 	movhi	r2,2
    13c0:	10bda204 	addi	r2,r2,-2424
    13c4:	18c7883a 	add	r3,r3,r3
    13c8:	18c7883a 	add	r3,r3,r3
    13cc:	10c5883a 	add	r2,r2,r3
    13d0:	10800017 	ldw	r2,0(r2)
    13d4:	d128ca84 	addi	r4,gp,-23766
    13d8:	014000b4 	movhi	r5,2
    13dc:	297b6004 	addi	r5,r5,-4736
    13e0:	100d883a 	mov	r6,r2
    13e4:	00020640 	call	2064 <sprintf>
    13e8:	00007c06 	br	15dc <changeRotor+0x408>
		}
	} else if (knop == DOWN) {
    13ec:	e0bfff07 	ldb	r2,-4(fp)
    13f0:	10800d18 	cmpnei	r2,r2,52
    13f4:	1000791e 	bne	r2,zero,15dc <changeRotor+0x408>
		if (rij == 1) {
    13f8:	d0a00517 	ldw	r2,-32748(gp)
    13fc:	10800058 	cmpnei	r2,r2,1
    1400:	1000321e 	bne	r2,zero,14cc <changeRotor+0x2f8>
			rotorStanden[rotorNummer - 1]--;
    1404:	d0a00317 	ldw	r2,-32756(gp)
    1408:	10bfffc4 	addi	r2,r2,-1
    140c:	d0e00604 	addi	r3,gp,-32744
    1410:	10c7883a 	add	r3,r2,r3
    1414:	18c00003 	ldbu	r3,0(r3)
    1418:	18ffffc4 	addi	r3,r3,-1
    141c:	1809883a 	mov	r4,r3
    1420:	d0e00604 	addi	r3,gp,-32744
    1424:	10c5883a 	add	r2,r2,r3
    1428:	11000005 	stb	r4,0(r2)
			if (rotorStanden[rotorNummer - 1] < 'a') {
    142c:	d0a00317 	ldw	r2,-32756(gp)
    1430:	10ffffc4 	addi	r3,r2,-1
    1434:	d0a00604 	addi	r2,gp,-32744
    1438:	1885883a 	add	r2,r3,r2
    143c:	10800003 	ldbu	r2,0(r2)
    1440:	10803fcc 	andi	r2,r2,255
    1444:	1080201c 	xori	r2,r2,128
    1448:	10bfe004 	addi	r2,r2,-128
    144c:	10801848 	cmpgei	r2,r2,97
    1450:	1000061e 	bne	r2,zero,146c <changeRotor+0x298>
				rotorStanden[rotorNummer - 1] = 'z';
    1454:	d0a00317 	ldw	r2,-32756(gp)
    1458:	10ffffc4 	addi	r3,r2,-1
    145c:	d0a00604 	addi	r2,gp,-32744
    1460:	1885883a 	add	r2,r3,r2
    1464:	00c01e84 	movi	r3,122
    1468:	10c00005 	stb	r3,0(r2)
			}
			sprintf(tempo, "rotateBackwards %d/", 5 - rotorNummer);
    146c:	d0a00317 	ldw	r2,-32756(gp)
    1470:	00c00144 	movi	r3,5
    1474:	1885c83a 	sub	r2,r3,r2
    1478:	e13ff704 	addi	r4,fp,-36
    147c:	014000b4 	movhi	r5,2
    1480:	297b6104 	addi	r5,r5,-4732
    1484:	100d883a 	mov	r6,r2
    1488:	00020640 	call	2064 <sprintf>
			sendCommand(tempo);
    148c:	e13ff704 	addi	r4,fp,-36
    1490:	000035c0 	call	35c <sendCommand>
			sprintf(e, "%c", rotorStanden[rotorNummer - 1]);
    1494:	d0a00317 	ldw	r2,-32756(gp)
    1498:	10ffffc4 	addi	r3,r2,-1
    149c:	d0a00604 	addi	r2,gp,-32744
    14a0:	1885883a 	add	r2,r3,r2
    14a4:	10800003 	ldbu	r2,0(r2)
    14a8:	10803fcc 	andi	r2,r2,255
    14ac:	1080201c 	xori	r2,r2,128
    14b0:	10bfe004 	addi	r2,r2,-128
    14b4:	d128d204 	addi	r4,gp,-23736
    14b8:	014000b4 	movhi	r5,2
    14bc:	297b5204 	addi	r5,r5,-4792
    14c0:	100d883a 	mov	r6,r2
    14c4:	00020640 	call	2064 <sprintf>
    14c8:	00004406 	br	15dc <changeRotor+0x408>
		} else if (rij == 2) {
    14cc:	d0a00517 	ldw	r2,-32748(gp)
    14d0:	10800098 	cmpnei	r2,r2,2
    14d4:	1000411e 	bne	r2,zero,15dc <changeRotor+0x408>
			ringInstellingen[rotorNummer - 1]--;
    14d8:	d0a00317 	ldw	r2,-32756(gp)
    14dc:	10bfffc4 	addi	r2,r2,-1
    14e0:	00c000b4 	movhi	r3,2
    14e4:	18fda204 	addi	r3,r3,-2424
    14e8:	1089883a 	add	r4,r2,r2
    14ec:	2109883a 	add	r4,r4,r4
    14f0:	1907883a 	add	r3,r3,r4
    14f4:	18c00017 	ldw	r3,0(r3)
    14f8:	193fffc4 	addi	r4,r3,-1
    14fc:	00c000b4 	movhi	r3,2
    1500:	18fda204 	addi	r3,r3,-2424
    1504:	1085883a 	add	r2,r2,r2
    1508:	1085883a 	add	r2,r2,r2
    150c:	1885883a 	add	r2,r3,r2
    1510:	11000015 	stw	r4,0(r2)
			if (ringInstellingen[rotorNummer - 1] < 1) {
    1514:	d0a00317 	ldw	r2,-32756(gp)
    1518:	10ffffc4 	addi	r3,r2,-1
    151c:	008000b4 	movhi	r2,2
    1520:	10bda204 	addi	r2,r2,-2424
    1524:	18c7883a 	add	r3,r3,r3
    1528:	18c7883a 	add	r3,r3,r3
    152c:	10c5883a 	add	r2,r2,r3
    1530:	10800017 	ldw	r2,0(r2)
    1534:	00800916 	blt	zero,r2,155c <changeRotor+0x388>
				ringInstellingen[rotorNummer - 1] = 26;
    1538:	d0a00317 	ldw	r2,-32756(gp)
    153c:	10ffffc4 	addi	r3,r2,-1
    1540:	008000b4 	movhi	r2,2
    1544:	10bda204 	addi	r2,r2,-2424
    1548:	18c7883a 	add	r3,r3,r3
    154c:	18c7883a 	add	r3,r3,r3
    1550:	10c5883a 	add	r2,r2,r3
    1554:	00c00684 	movi	r3,26
    1558:	10c00015 	stw	r3,0(r2)
			}
			sprintf(tempo, "changeRingCfg %d%c/", 5 - rotorNummer,
    155c:	d0a00317 	ldw	r2,-32756(gp)
    1560:	00c00144 	movi	r3,5
    1564:	188dc83a 	sub	r6,r3,r2
					ringInstellingen[rotorNummer - 1] + 'a' - 1);
    1568:	d0a00317 	ldw	r2,-32756(gp)
    156c:	10ffffc4 	addi	r3,r2,-1
    1570:	008000b4 	movhi	r2,2
    1574:	10bda204 	addi	r2,r2,-2424
    1578:	18c7883a 	add	r3,r3,r3
    157c:	18c7883a 	add	r3,r3,r3
    1580:	10c5883a 	add	r2,r2,r3
    1584:	10800017 	ldw	r2,0(r2)
		} else if (rij == 2) {
			ringInstellingen[rotorNummer - 1]--;
			if (ringInstellingen[rotorNummer - 1] < 1) {
				ringInstellingen[rotorNummer - 1] = 26;
			}
			sprintf(tempo, "changeRingCfg %d%c/", 5 - rotorNummer,
    1588:	10801804 	addi	r2,r2,96
    158c:	e13ff704 	addi	r4,fp,-36
    1590:	014000b4 	movhi	r5,2
    1594:	297b5b04 	addi	r5,r5,-4756
    1598:	100f883a 	mov	r7,r2
    159c:	00020640 	call	2064 <sprintf>
					ringInstellingen[rotorNummer - 1] + 'a' - 1);
			sendCommand(tempo);
    15a0:	e13ff704 	addi	r4,fp,-36
    15a4:	000035c0 	call	35c <sendCommand>
			sprintf(d, "%d", ringInstellingen[rotorNummer - 1]);
    15a8:	d0a00317 	ldw	r2,-32756(gp)
    15ac:	10ffffc4 	addi	r3,r2,-1
    15b0:	008000b4 	movhi	r2,2
    15b4:	10bda204 	addi	r2,r2,-2424
    15b8:	18c7883a 	add	r3,r3,r3
    15bc:	18c7883a 	add	r3,r3,r3
    15c0:	10c5883a 	add	r2,r2,r3
    15c4:	10800017 	ldw	r2,0(r2)
    15c8:	d128ca84 	addi	r4,gp,-23766
    15cc:	014000b4 	movhi	r5,2
    15d0:	297b6004 	addi	r5,r5,-4736
    15d4:	100d883a 	mov	r6,r2
    15d8:	00020640 	call	2064 <sprintf>
//	sprintf(tempor, "getRotorLetter 1/");
//	sendCommand(tempor);
//	getCommand();
//	//getLetter("getRotorLetter 1", command[0]);
//	printf("rotorLetter: %c\n", command[0]);
	OSTimeDlyHMSM(0, 0, 0, 75);
    15dc:	0009883a 	mov	r4,zero
    15e0:	000b883a 	mov	r5,zero
    15e4:	000d883a 	mov	r6,zero
    15e8:	01c012c4 	movi	r7,75
    15ec:	001a5300 	call	1a530 <OSTimeDlyHMSM>
}
    15f0:	e037883a 	mov	sp,fp
    15f4:	dfc00117 	ldw	ra,4(sp)
    15f8:	df000017 	ldw	fp,0(sp)
    15fc:	dec00204 	addi	sp,sp,8
    1600:	f800283a 	ret

00001604 <select>:

void select(char c) {
    1604:	defffc04 	addi	sp,sp,-16
    1608:	dfc00315 	stw	ra,12(sp)
    160c:	df000215 	stw	fp,8(sp)
    1610:	df000204 	addi	fp,sp,8
    1614:	2005883a 	mov	r2,r4
    1618:	e0bfff05 	stb	r2,-4(fp)
	arrowTemp[0] = c;
    161c:	e0bfff03 	ldbu	r2,-4(fp)
    1620:	d0a8d005 	stb	r2,-23744(gp)
	arrowTemp[1] = '\0';
    1624:	d0a8d044 	addi	r2,gp,-23743
    1628:	10000005 	stb	zero,0(r2)

	if (rotorNummer > 4) {
    162c:	d0a00317 	ldw	r2,-32756(gp)
    1630:	10800150 	cmplti	r2,r2,5
    1634:	1000021e 	bne	r2,zero,1640 <select+0x3c>
		rotorNummer = 4;
    1638:	00800104 	movi	r2,4
    163c:	d0a00315 	stw	r2,-32756(gp)
	}

	if (rotorNummer < 1) {
    1640:	d0a00317 	ldw	r2,-32756(gp)
    1644:	00800216 	blt	zero,r2,1650 <select+0x4c>
		rotorNummer = 1;
    1648:	00800044 	movi	r2,1
    164c:	d0a00315 	stw	r2,-32756(gp)
	}

	if (arrowTemp[0] == TAB) {
    1650:	d0a8d003 	ldbu	r2,-23744(gp)
    1654:	10803fcc 	andi	r2,r2,255
    1658:	1080201c 	xori	r2,r2,128
    165c:	10bfe004 	addi	r2,r2,-128
    1660:	10800d58 	cmpnei	r2,r2,53
    1664:	1000291e 	bne	r2,zero,170c <select+0x108>
		setX();
    1668:	00019300 	call	1930 <setX>
		if (rij == 1) {
    166c:	d0a00517 	ldw	r2,-32748(gp)
    1670:	10800058 	cmpnei	r2,r2,1
    1674:	1000131e 	bne	r2,zero,16c4 <select+0xc0>
			rij = 2;
    1678:	00800084 	movi	r2,2
    167c:	d0a00515 	stw	r2,-32748(gp)
			VGA_box(x1, 180, x2, 200, 0x8410);
    1680:	d128ce17 	ldw	r4,-23752(gp)
    1684:	d0e8c717 	ldw	r3,-23780(gp)
    1688:	00a10404 	movi	r2,-31728
    168c:	d8800015 	stw	r2,0(sp)
    1690:	01402d04 	movi	r5,180
    1694:	180d883a 	mov	r6,r3
    1698:	01c03204 	movi	r7,200
    169c:	0000e3c0 	call	e3c <VGA_box>
			VGA_box(x1, 200, x2, 220, 0xF800);
    16a0:	d128ce17 	ldw	r4,-23752(gp)
    16a4:	d0e8c717 	ldw	r3,-23780(gp)
    16a8:	00be0004 	movi	r2,-2048
    16ac:	d8800015 	stw	r2,0(sp)
    16b0:	01403204 	movi	r5,200
    16b4:	180d883a 	mov	r6,r3
    16b8:	01c03704 	movi	r7,220
    16bc:	0000e3c0 	call	e3c <VGA_box>
    16c0:	00001206 	br	170c <select+0x108>
		} else {
			rij = 1;
    16c4:	00800044 	movi	r2,1
    16c8:	d0a00515 	stw	r2,-32748(gp)
			VGA_box(x1, 180, x2, 200, 0xF800);
    16cc:	d128ce17 	ldw	r4,-23752(gp)
    16d0:	d0e8c717 	ldw	r3,-23780(gp)
    16d4:	00be0004 	movi	r2,-2048
    16d8:	d8800015 	stw	r2,0(sp)
    16dc:	01402d04 	movi	r5,180
    16e0:	180d883a 	mov	r6,r3
    16e4:	01c03204 	movi	r7,200
    16e8:	0000e3c0 	call	e3c <VGA_box>
			VGA_box(x1, 200, x2, 220, 0x8410);
    16ec:	d128ce17 	ldw	r4,-23752(gp)
    16f0:	d0e8c717 	ldw	r3,-23780(gp)
    16f4:	00a10404 	movi	r2,-31728
    16f8:	d8800015 	stw	r2,0(sp)
    16fc:	01403204 	movi	r5,200
    1700:	180d883a 	mov	r6,r3
    1704:	01c03704 	movi	r7,220
    1708:	0000e3c0 	call	e3c <VGA_box>
		}
	}
	if (arrowTemp[0] == UP) {
    170c:	d0a8d003 	ldbu	r2,-23744(gp)
    1710:	10803fcc 	andi	r2,r2,255
    1714:	1080201c 	xori	r2,r2,128
    1718:	10bfe004 	addi	r2,r2,-128
    171c:	10800c58 	cmpnei	r2,r2,49
    1720:	1000031e 	bne	r2,zero,1730 <select+0x12c>
		changeRotor(UP);
    1724:	01000c44 	movi	r4,49
    1728:	00011d40 	call	11d4 <changeRotor>
    172c:	00007b06 	br	191c <select+0x318>
	} else if (arrowTemp[0] == DOWN) {
    1730:	d0a8d003 	ldbu	r2,-23744(gp)
    1734:	10803fcc 	andi	r2,r2,255
    1738:	1080201c 	xori	r2,r2,128
    173c:	10bfe004 	addi	r2,r2,-128
    1740:	10800d18 	cmpnei	r2,r2,52
    1744:	1000031e 	bne	r2,zero,1754 <select+0x150>
		changeRotor(DOWN);
    1748:	01000d04 	movi	r4,52
    174c:	00011d40 	call	11d4 <changeRotor>
    1750:	00007206 	br	191c <select+0x318>
	} else if (arrowTemp[0] == LEFT) {
    1754:	d0a8d003 	ldbu	r2,-23744(gp)
    1758:	10803fcc 	andi	r2,r2,255
    175c:	1080201c 	xori	r2,r2,128
    1760:	10bfe004 	addi	r2,r2,-128
    1764:	10800cd8 	cmpnei	r2,r2,51
    1768:	1000321e 	bne	r2,zero,1834 <select+0x230>
		if (rotorNummer < 1) {
    176c:	d0a00317 	ldw	r2,-32756(gp)
    1770:	00800316 	blt	zero,r2,1780 <select+0x17c>
			rotorNummer = 1;
    1774:	00800044 	movi	r2,1
    1778:	d0a00315 	stw	r2,-32756(gp)
    177c:	00006706 	br	191c <select+0x318>
		} else if (rotorNummer >= 1) {
    1780:	d0a00317 	ldw	r2,-32756(gp)
    1784:	0080650e 	bge	zero,r2,191c <select+0x318>
			rotorNummer--;
    1788:	d0a00317 	ldw	r2,-32756(gp)
    178c:	10bfffc4 	addi	r2,r2,-1
    1790:	d0a00315 	stw	r2,-32756(gp)
			if (rotorNummer >= 1) {
    1794:	d0a00317 	ldw	r2,-32756(gp)
    1798:	0080600e 	bge	zero,r2,191c <select+0x318>
				setX();
    179c:	00019300 	call	1930 <setX>
				if (rij == 1) {
    17a0:	d0a00517 	ldw	r2,-32748(gp)
    17a4:	10800058 	cmpnei	r2,r2,1
    17a8:	1000111e 	bne	r2,zero,17f0 <select+0x1ec>
					VGA_box(x1, 180, x2, 200, 0xF800);
    17ac:	d128ce17 	ldw	r4,-23752(gp)
    17b0:	d0e8c717 	ldw	r3,-23780(gp)
    17b4:	00be0004 	movi	r2,-2048
    17b8:	d8800015 	stw	r2,0(sp)
    17bc:	01402d04 	movi	r5,180
    17c0:	180d883a 	mov	r6,r3
    17c4:	01c03204 	movi	r7,200
    17c8:	0000e3c0 	call	e3c <VGA_box>
					VGA_box(x3, 180, x4, 200, 0x8410);
    17cc:	d128cd17 	ldw	r4,-23756(gp)
    17d0:	d0e8c817 	ldw	r3,-23776(gp)
    17d4:	00a10404 	movi	r2,-31728
    17d8:	d8800015 	stw	r2,0(sp)
    17dc:	01402d04 	movi	r5,180
    17e0:	180d883a 	mov	r6,r3
    17e4:	01c03204 	movi	r7,200
    17e8:	0000e3c0 	call	e3c <VGA_box>
    17ec:	00004b06 	br	191c <select+0x318>
				} else {
					VGA_box(x1, 200, x2, 220, 0xF800);
    17f0:	d128ce17 	ldw	r4,-23752(gp)
    17f4:	d0e8c717 	ldw	r3,-23780(gp)
    17f8:	00be0004 	movi	r2,-2048
    17fc:	d8800015 	stw	r2,0(sp)
    1800:	01403204 	movi	r5,200
    1804:	180d883a 	mov	r6,r3
    1808:	01c03704 	movi	r7,220
    180c:	0000e3c0 	call	e3c <VGA_box>
					VGA_box(x3, 200, x4, 220, 0x8410);
    1810:	d128cd17 	ldw	r4,-23756(gp)
    1814:	d0e8c817 	ldw	r3,-23776(gp)
    1818:	00a10404 	movi	r2,-31728
    181c:	d8800015 	stw	r2,0(sp)
    1820:	01403204 	movi	r5,200
    1824:	180d883a 	mov	r6,r3
    1828:	01c03704 	movi	r7,220
    182c:	0000e3c0 	call	e3c <VGA_box>
    1830:	00003a06 	br	191c <select+0x318>
				}
			}
		}
	} else if (arrowTemp[0] == RIGHT) {
    1834:	d0a8d003 	ldbu	r2,-23744(gp)
    1838:	10803fcc 	andi	r2,r2,255
    183c:	1080201c 	xori	r2,r2,128
    1840:	10bfe004 	addi	r2,r2,-128
    1844:	10800c98 	cmpnei	r2,r2,50
    1848:	1000341e 	bne	r2,zero,191c <select+0x318>
		if (rotorNummer > 4) {
    184c:	d0a00317 	ldw	r2,-32756(gp)
    1850:	10800150 	cmplti	r2,r2,5
    1854:	1000031e 	bne	r2,zero,1864 <select+0x260>
			rotorNummer = 4;
    1858:	00800104 	movi	r2,4
    185c:	d0a00315 	stw	r2,-32756(gp)
    1860:	00002e06 	br	191c <select+0x318>
		} else if (rotorNummer <= 4) {
    1864:	d0a00317 	ldw	r2,-32756(gp)
    1868:	10800148 	cmpgei	r2,r2,5
    186c:	10002b1e 	bne	r2,zero,191c <select+0x318>
			rotorNummer++;
    1870:	d0a00317 	ldw	r2,-32756(gp)
    1874:	10800044 	addi	r2,r2,1
    1878:	d0a00315 	stw	r2,-32756(gp)
			if (rotorNummer < 5) {
    187c:	d0a00317 	ldw	r2,-32756(gp)
    1880:	10800148 	cmpgei	r2,r2,5
    1884:	1000251e 	bne	r2,zero,191c <select+0x318>
				setX();
    1888:	00019300 	call	1930 <setX>
				if (rij == 1) {
    188c:	d0a00517 	ldw	r2,-32748(gp)
    1890:	10800058 	cmpnei	r2,r2,1
    1894:	1000111e 	bne	r2,zero,18dc <select+0x2d8>
					VGA_box(x5, 180, x6, 200, 0x8410);
    1898:	d128c517 	ldw	r4,-23788(gp)
    189c:	d0e8c017 	ldw	r3,-23808(gp)
    18a0:	00a10404 	movi	r2,-31728
    18a4:	d8800015 	stw	r2,0(sp)
    18a8:	01402d04 	movi	r5,180
    18ac:	180d883a 	mov	r6,r3
    18b0:	01c03204 	movi	r7,200
    18b4:	0000e3c0 	call	e3c <VGA_box>
					VGA_box(x1, 180, x2, 200, 0xF800);
    18b8:	d128ce17 	ldw	r4,-23752(gp)
    18bc:	d0e8c717 	ldw	r3,-23780(gp)
    18c0:	00be0004 	movi	r2,-2048
    18c4:	d8800015 	stw	r2,0(sp)
    18c8:	01402d04 	movi	r5,180
    18cc:	180d883a 	mov	r6,r3
    18d0:	01c03204 	movi	r7,200
    18d4:	0000e3c0 	call	e3c <VGA_box>
    18d8:	00001006 	br	191c <select+0x318>
				} else {
					VGA_box(x5, 200, x6, 220, 0x8410);
    18dc:	d128c517 	ldw	r4,-23788(gp)
    18e0:	d0e8c017 	ldw	r3,-23808(gp)
    18e4:	00a10404 	movi	r2,-31728
    18e8:	d8800015 	stw	r2,0(sp)
    18ec:	01403204 	movi	r5,200
    18f0:	180d883a 	mov	r6,r3
    18f4:	01c03704 	movi	r7,220
    18f8:	0000e3c0 	call	e3c <VGA_box>
					VGA_box(x1, 200, x2, 220, 0xF800);
    18fc:	d128ce17 	ldw	r4,-23752(gp)
    1900:	d0e8c717 	ldw	r3,-23780(gp)
    1904:	00be0004 	movi	r2,-2048
    1908:	d8800015 	stw	r2,0(sp)
    190c:	01403204 	movi	r5,200
    1910:	180d883a 	mov	r6,r3
    1914:	01c03704 	movi	r7,220
    1918:	0000e3c0 	call	e3c <VGA_box>
				}
			}
		}
	}
}
    191c:	e037883a 	mov	sp,fp
    1920:	dfc00117 	ldw	ra,4(sp)
    1924:	df000017 	ldw	fp,0(sp)
    1928:	dec00204 	addi	sp,sp,8
    192c:	f800283a 	ret

00001930 <setX>:

void setX() {
    1930:	deffff04 	addi	sp,sp,-4
    1934:	df000015 	stw	fp,0(sp)
    1938:	d839883a 	mov	fp,sp
	x1 = (80 * rotorNummer) - 60;
    193c:	d0a00317 	ldw	r2,-32756(gp)
    1940:	10801424 	muli	r2,r2,80
    1944:	10bff104 	addi	r2,r2,-60
    1948:	d0a8ce15 	stw	r2,-23752(gp)
	x2 = (40 * rotorNummer) + 20 + (40 * (rotorNummer - 1));
    194c:	d0a00317 	ldw	r2,-32756(gp)
    1950:	10800a24 	muli	r2,r2,40
    1954:	10c00504 	addi	r3,r2,20
    1958:	d0a00317 	ldw	r2,-32756(gp)
    195c:	10bfffc4 	addi	r2,r2,-1
    1960:	10800a24 	muli	r2,r2,40
    1964:	1885883a 	add	r2,r3,r2
    1968:	d0a8c715 	stw	r2,-23780(gp)

	x3 = (80 * (rotorNummer + 1)) - 60;
    196c:	d0a00317 	ldw	r2,-32756(gp)
    1970:	10800044 	addi	r2,r2,1
    1974:	10801424 	muli	r2,r2,80
    1978:	10bff104 	addi	r2,r2,-60
    197c:	d0a8cd15 	stw	r2,-23756(gp)
	x4 = (40 * (rotorNummer + 1)) + 20 + (40 * rotorNummer);
    1980:	d0a00317 	ldw	r2,-32756(gp)
    1984:	10800044 	addi	r2,r2,1
    1988:	10800a24 	muli	r2,r2,40
    198c:	10c00504 	addi	r3,r2,20
    1990:	d0a00317 	ldw	r2,-32756(gp)
    1994:	10800a24 	muli	r2,r2,40
    1998:	1885883a 	add	r2,r3,r2
    199c:	d0a8c815 	stw	r2,-23776(gp)

	x5 = (80 * (rotorNummer - 1)) - 60;
    19a0:	d0a00317 	ldw	r2,-32756(gp)
    19a4:	10bfffc4 	addi	r2,r2,-1
    19a8:	10801424 	muli	r2,r2,80
    19ac:	10bff104 	addi	r2,r2,-60
    19b0:	d0a8c515 	stw	r2,-23788(gp)
	x6 = (40 * (rotorNummer - 1)) + 20 + (40 * (rotorNummer - 2));
    19b4:	d0a00317 	ldw	r2,-32756(gp)
    19b8:	10bfffc4 	addi	r2,r2,-1
    19bc:	10800a24 	muli	r2,r2,40
    19c0:	10c00504 	addi	r3,r2,20
    19c4:	d0a00317 	ldw	r2,-32756(gp)
    19c8:	10bfff84 	addi	r2,r2,-2
    19cc:	10800a24 	muli	r2,r2,40
    19d0:	1885883a 	add	r2,r3,r2
    19d4:	d0a8c015 	stw	r2,-23808(gp)
}
    19d8:	e037883a 	mov	sp,fp
    19dc:	df000017 	ldw	fp,0(sp)
    19e0:	dec00104 	addi	sp,sp,4
    19e4:	f800283a 	ret

000019e8 <clearScreen>:

void clearScreen() {
    19e8:	defffd04 	addi	sp,sp,-12
    19ec:	dfc00215 	stw	ra,8(sp)
    19f0:	df000115 	stw	fp,4(sp)
    19f4:	df000104 	addi	fp,sp,4
	int i;
	for (i = 0; i <= 44; i++) {
    19f8:	e03fff15 	stw	zero,-4(fp)
    19fc:	00000806 	br	1a20 <clearScreen+0x38>
		VGA_text(0, i,
    1a00:	0009883a 	mov	r4,zero
    1a04:	e17fff17 	ldw	r5,-4(fp)
    1a08:	018000b4 	movhi	r6,2
    1a0c:	31bb6604 	addi	r6,r6,-4712
    1a10:	0000ee40 	call	ee4 <VGA_text>
	x6 = (40 * (rotorNummer - 1)) + 20 + (40 * (rotorNummer - 2));
}

void clearScreen() {
	int i;
	for (i = 0; i <= 44; i++) {
    1a14:	e0bfff17 	ldw	r2,-4(fp)
    1a18:	10800044 	addi	r2,r2,1
    1a1c:	e0bfff15 	stw	r2,-4(fp)
    1a20:	e0bfff17 	ldw	r2,-4(fp)
    1a24:	10800b50 	cmplti	r2,r2,45
    1a28:	103ff51e 	bne	r2,zero,1a00 <__alt_mem_Flash_flash_data+0xf4001a00>
		VGA_text(0, i,
				"                                                                                                        ");
	}
}
    1a2c:	e037883a 	mov	sp,fp
    1a30:	dfc00117 	ldw	ra,4(sp)
    1a34:	df000017 	ldw	fp,0(sp)
    1a38:	dec00204 	addi	sp,sp,8
    1a3c:	f800283a 	ret

00001a40 <PS2>:

void PS2() {
    1a40:	defffe04 	addi	sp,sp,-8
    1a44:	dfc00115 	stw	ra,4(sp)
    1a48:	df000015 	stw	fp,0(sp)
    1a4c:	d839883a 	mov	fp,sp
	PS2_data = *(PS2_ptr);	// read the Data register in the PS/2 port
    1a50:	d0a00017 	ldw	r2,-32768(gp)
    1a54:	10800017 	ldw	r2,0(r2)
    1a58:	d0a8c415 	stw	r2,-23792(gp)
	RAVAIL = (PS2_data & 0xFFFF0000) >> 16;	// extract the RAVAIL field
    1a5c:	d0a8c417 	ldw	r2,-23792(gp)
    1a60:	1004d43a 	srli	r2,r2,16
    1a64:	d0a8bf15 	stw	r2,-23812(gp)
	if (RAVAIL > 0) {
    1a68:	d0a8bf17 	ldw	r2,-23812(gp)
    1a6c:	00800c0e 	bge	zero,r2,1aa0 <PS2+0x60>

		byte1 = PS2_data & 0xFF;
    1a70:	d0a8c417 	ldw	r2,-23792(gp)
    1a74:	10803fcc 	andi	r2,r2,255
    1a78:	d0a8c215 	stw	r2,-23800(gp)
		*PS2_ptr &= 0x00000000;
    1a7c:	d0a00017 	ldw	r2,-32768(gp)
    1a80:	10800017 	ldw	r2,0(r2)
    1a84:	d0a00017 	ldw	r2,-32768(gp)
    1a88:	10000015 	stw	zero,0(r2)

		OSTimeDlyHMSM(0, 0, 0, 10);
    1a8c:	0009883a 	mov	r4,zero
    1a90:	000b883a 	mov	r5,zero
    1a94:	000d883a 	mov	r6,zero
    1a98:	01c00284 	movi	r7,10
    1a9c:	001a5300 	call	1a530 <OSTimeDlyHMSM>

	}
}
    1aa0:	e037883a 	mov	sp,fp
    1aa4:	dfc00117 	ldw	ra,4(sp)
    1aa8:	df000017 	ldw	fp,0(sp)
    1aac:	dec00204 	addi	sp,sp,8
    1ab0:	f800283a 	ret

00001ab4 <getKey>:

char getKey() {
    1ab4:	defffd04 	addi	sp,sp,-12
    1ab8:	dfc00215 	stw	ra,8(sp)
    1abc:	df000115 	stw	fp,4(sp)
    1ac0:	df000104 	addi	fp,sp,4
	if (byte1 != BREAKCODE && byte1 != 0xE0) {//checks if the received scancode is a BREAKCODE indicator, 0xF0
    1ac4:	d0a8c217 	ldw	r2,-23800(gp)
    1ac8:	10803c20 	cmpeqi	r2,r2,240
    1acc:	10000b1e 	bne	r2,zero,1afc <getKey+0x48>
    1ad0:	d0a8c217 	ldw	r2,-23800(gp)
    1ad4:	10803820 	cmpeqi	r2,r2,224
    1ad8:	1000081e 	bne	r2,zero,1afc <getKey+0x48>
		translate_make_code(KB_ASCII_MAKE_CODE, (char *) byte1, &ascii);//if not, translates it to ascii
    1adc:	d0a8c217 	ldw	r2,-23800(gp)
    1ae0:	10803fcc 	andi	r2,r2,255
    1ae4:	01000044 	movi	r4,1
    1ae8:	100b883a 	mov	r5,r2
    1aec:	018000f4 	movhi	r6,3
    1af0:	31af4e04 	addi	r6,r6,-17096
    1af4:	001d5900 	call	1d590 <translate_make_code>
		byte1 = 0;
    1af8:	d028c215 	stw	zero,-23800(gp)
	}

	char tempo = ascii[0];
    1afc:	008000f4 	movhi	r2,3
    1b00:	10af4e04 	addi	r2,r2,-17096
    1b04:	10800017 	ldw	r2,0(r2)
    1b08:	e0bfff05 	stb	r2,-4(fp)

	if (strcmp(ascii, "KP 8") == 0) {
    1b0c:	010000f4 	movhi	r4,3
    1b10:	212f4e04 	addi	r4,r4,-17096
    1b14:	014000b4 	movhi	r5,2
    1b18:	297b8104 	addi	r5,r5,-4604
    1b1c:	00020d00 	call	20d0 <strcmp>
    1b20:	1000021e 	bne	r2,zero,1b2c <getKey+0x78>
		return UP;
    1b24:	00800c44 	movi	r2,49
    1b28:	00005106 	br	1c70 <getKey+0x1bc>
	} else if (strcmp(ascii, "KP 2") == 0) {
    1b2c:	010000f4 	movhi	r4,3
    1b30:	212f4e04 	addi	r4,r4,-17096
    1b34:	014000b4 	movhi	r5,2
    1b38:	297b8304 	addi	r5,r5,-4596
    1b3c:	00020d00 	call	20d0 <strcmp>
    1b40:	1000021e 	bne	r2,zero,1b4c <getKey+0x98>
		return DOWN;
    1b44:	00800d04 	movi	r2,52
    1b48:	00004906 	br	1c70 <getKey+0x1bc>
	} else if (strcmp(ascii, "KP 6") == 0) {
    1b4c:	010000f4 	movhi	r4,3
    1b50:	212f4e04 	addi	r4,r4,-17096
    1b54:	014000b4 	movhi	r5,2
    1b58:	297b8504 	addi	r5,r5,-4588
    1b5c:	00020d00 	call	20d0 <strcmp>
    1b60:	1000021e 	bne	r2,zero,1b6c <getKey+0xb8>
		return RIGHT;
    1b64:	00800c84 	movi	r2,50
    1b68:	00004106 	br	1c70 <getKey+0x1bc>
	} else if (strcmp(ascii, "KP 4") == 0) {
    1b6c:	010000f4 	movhi	r4,3
    1b70:	212f4e04 	addi	r4,r4,-17096
    1b74:	014000b4 	movhi	r5,2
    1b78:	297b8704 	addi	r5,r5,-4580
    1b7c:	00020d00 	call	20d0 <strcmp>
    1b80:	1000021e 	bne	r2,zero,1b8c <getKey+0xd8>
		return LEFT;
    1b84:	00800cc4 	movi	r2,51
    1b88:	00003906 	br	1c70 <getKey+0x1bc>
	} else if (strcmp(ascii, "ESC") == 0) {
    1b8c:	010000f4 	movhi	r4,3
    1b90:	212f4e04 	addi	r4,r4,-17096
    1b94:	014000b4 	movhi	r5,2
    1b98:	297b8904 	addi	r5,r5,-4572
    1b9c:	00020d00 	call	20d0 <strcmp>
    1ba0:	1000021e 	bne	r2,zero,1bac <getKey+0xf8>
		return ESC;
    1ba4:	00800e04 	movi	r2,56
    1ba8:	00003106 	br	1c70 <getKey+0x1bc>
	} else if (strcmp(ascii, "BKSP") == 0) {
    1bac:	010000f4 	movhi	r4,3
    1bb0:	212f4e04 	addi	r4,r4,-17096
    1bb4:	014000b4 	movhi	r5,2
    1bb8:	297b8a04 	addi	r5,r5,-4568
    1bbc:	00020d00 	call	20d0 <strcmp>
    1bc0:	1000021e 	bne	r2,zero,1bcc <getKey+0x118>
		return BKSP;
    1bc4:	00800dc4 	movi	r2,55
    1bc8:	00002906 	br	1c70 <getKey+0x1bc>
	} else if (strcmp(ascii, "SPACE") == 0) {
    1bcc:	010000f4 	movhi	r4,3
    1bd0:	212f4e04 	addi	r4,r4,-17096
    1bd4:	014000b4 	movhi	r5,2
    1bd8:	297b8c04 	addi	r5,r5,-4560
    1bdc:	00020d00 	call	20d0 <strcmp>
    1be0:	1000021e 	bne	r2,zero,1bec <getKey+0x138>
		return SPACE;
    1be4:	00800d84 	movi	r2,54
    1be8:	00002106 	br	1c70 <getKey+0x1bc>
	} else if (strcmp(ascii, "ENTER") == 0) {
    1bec:	010000f4 	movhi	r4,3
    1bf0:	212f4e04 	addi	r4,r4,-17096
    1bf4:	014000b4 	movhi	r5,2
    1bf8:	297b8e04 	addi	r5,r5,-4552
    1bfc:	00020d00 	call	20d0 <strcmp>
    1c00:	1000021e 	bne	r2,zero,1c0c <getKey+0x158>
		return ENTER;
    1c04:	00800e44 	movi	r2,57
    1c08:	00001906 	br	1c70 <getKey+0x1bc>
	} else if (strcmp(ascii, "TAB") == 0) {
    1c0c:	010000f4 	movhi	r4,3
    1c10:	212f4e04 	addi	r4,r4,-17096
    1c14:	014000b4 	movhi	r5,2
    1c18:	297b9004 	addi	r5,r5,-4544
    1c1c:	00020d00 	call	20d0 <strcmp>
    1c20:	1000021e 	bne	r2,zero,1c2c <getKey+0x178>
		return TAB;
    1c24:	00800d44 	movi	r2,53
    1c28:	00001106 	br	1c70 <getKey+0x1bc>
	} else if ((tempo >= 'A' && tempo <= 'Z')) {//checks wether or not the received byte is a letter
    1c2c:	e0bfff07 	ldb	r2,-4(fp)
    1c30:	10801050 	cmplti	r2,r2,65
    1c34:	10000d1e 	bne	r2,zero,1c6c <getKey+0x1b8>
    1c38:	e0bfff07 	ldb	r2,-4(fp)
    1c3c:	108016c8 	cmpgei	r2,r2,91
    1c40:	10000a1e 	bne	r2,zero,1c6c <getKey+0x1b8>
		if (strlen(ascii) == 1) {
    1c44:	010000f4 	movhi	r4,3
    1c48:	212f4e04 	addi	r4,r4,-17096
    1c4c:	00022040 	call	2204 <strlen>
    1c50:	10800058 	cmpnei	r2,r2,1
    1c54:	1000051e 	bne	r2,zero,1c6c <getKey+0x1b8>
			tempo = tempo + 32;	//makes it a small letter instead of a capital
    1c58:	e0bfff03 	ldbu	r2,-4(fp)
    1c5c:	10800804 	addi	r2,r2,32
    1c60:	e0bfff05 	stb	r2,-4(fp)
			return tempo;							//returns the character
    1c64:	e0bfff03 	ldbu	r2,-4(fp)
    1c68:	00000106 	br	1c70 <getKey+0x1bc>
		}
	}
	return 0;									// returns null
    1c6c:	0005883a 	mov	r2,zero
}
    1c70:	e037883a 	mov	sp,fp
    1c74:	dfc00117 	ldw	ra,4(sp)
    1c78:	df000017 	ldw	fp,0(sp)
    1c7c:	dec00204 	addi	sp,sp,8
    1c80:	f800283a 	ret

00001c84 <printRinginstelling>:

void printRinginstelling(char c[2], int rotor) { //d
    1c84:	defffb04 	addi	sp,sp,-20
    1c88:	dfc00415 	stw	ra,16(sp)
    1c8c:	df000315 	stw	fp,12(sp)
    1c90:	df000304 	addi	fp,sp,12
    1c94:	e13ffe15 	stw	r4,-8(fp)
    1c98:	e17fff15 	stw	r5,-4(fp)
	int x1;
	x1 = (20 * (rotor - 1)) + 10;
    1c9c:	e0bfff17 	ldw	r2,-4(fp)
    1ca0:	10bfffc4 	addi	r2,r2,-1
    1ca4:	10800524 	muli	r2,r2,20
    1ca8:	10800284 	addi	r2,r2,10
    1cac:	e0bffd15 	stw	r2,-12(fp)
	VGA_text(x1, 51, c);
    1cb0:	e13ffd17 	ldw	r4,-12(fp)
    1cb4:	01400cc4 	movi	r5,51
    1cb8:	e1bffe17 	ldw	r6,-8(fp)
    1cbc:	0000ee40 	call	ee4 <VGA_text>
	if (ringInstellingen[0] < 10) {
    1cc0:	008000b4 	movhi	r2,2
    1cc4:	10bda204 	addi	r2,r2,-2424
    1cc8:	10800017 	ldw	r2,0(r2)
    1ccc:	10800288 	cmpgei	r2,r2,10
    1cd0:	1000051e 	bne	r2,zero,1ce8 <printRinginstelling+0x64>
		VGA_text(11, 51, " ");
    1cd4:	010002c4 	movi	r4,11
    1cd8:	01400cc4 	movi	r5,51
    1cdc:	018000b4 	movhi	r6,2
    1ce0:	31bb5504 	addi	r6,r6,-4780
    1ce4:	0000ee40 	call	ee4 <VGA_text>
	}
	if (ringInstellingen[1] < 10) {
    1ce8:	008000b4 	movhi	r2,2
    1cec:	10bda204 	addi	r2,r2,-2424
    1cf0:	10800117 	ldw	r2,4(r2)
    1cf4:	10800288 	cmpgei	r2,r2,10
    1cf8:	1000051e 	bne	r2,zero,1d10 <printRinginstelling+0x8c>
		VGA_text(31, 51, " ");
    1cfc:	010007c4 	movi	r4,31
    1d00:	01400cc4 	movi	r5,51
    1d04:	018000b4 	movhi	r6,2
    1d08:	31bb5504 	addi	r6,r6,-4780
    1d0c:	0000ee40 	call	ee4 <VGA_text>
	}
	if (ringInstellingen[2] < 10) {
    1d10:	008000b4 	movhi	r2,2
    1d14:	10bda204 	addi	r2,r2,-2424
    1d18:	10800217 	ldw	r2,8(r2)
    1d1c:	10800288 	cmpgei	r2,r2,10
    1d20:	1000051e 	bne	r2,zero,1d38 <printRinginstelling+0xb4>
		VGA_text(51, 51, " ");
    1d24:	01000cc4 	movi	r4,51
    1d28:	01400cc4 	movi	r5,51
    1d2c:	018000b4 	movhi	r6,2
    1d30:	31bb5504 	addi	r6,r6,-4780
    1d34:	0000ee40 	call	ee4 <VGA_text>
	}
	if (ringInstellingen[3] < 10) {
    1d38:	008000b4 	movhi	r2,2
    1d3c:	10bda204 	addi	r2,r2,-2424
    1d40:	10800317 	ldw	r2,12(r2)
    1d44:	10800288 	cmpgei	r2,r2,10
    1d48:	1000051e 	bne	r2,zero,1d60 <printRinginstelling+0xdc>
		VGA_text(71, 51, " ");
    1d4c:	010011c4 	movi	r4,71
    1d50:	01400cc4 	movi	r5,51
    1d54:	018000b4 	movhi	r6,2
    1d58:	31bb5504 	addi	r6,r6,-4780
    1d5c:	0000ee40 	call	ee4 <VGA_text>
	}
}
    1d60:	e037883a 	mov	sp,fp
    1d64:	dfc00117 	ldw	ra,4(sp)
    1d68:	df000017 	ldw	fp,0(sp)
    1d6c:	dec00204 	addi	sp,sp,8
    1d70:	f800283a 	ret

00001d74 <printRotorStand>:

void printRotorStand(char c[2], int rotor) { //e
    1d74:	defffb04 	addi	sp,sp,-20
    1d78:	dfc00415 	stw	ra,16(sp)
    1d7c:	df000315 	stw	fp,12(sp)
    1d80:	df000304 	addi	fp,sp,12
    1d84:	e13ffe15 	stw	r4,-8(fp)
    1d88:	e17fff15 	stw	r5,-4(fp)
	int x1;
	x1 = (20 * (rotor - 1)) + 10;
    1d8c:	e0bfff17 	ldw	r2,-4(fp)
    1d90:	10bfffc4 	addi	r2,r2,-1
    1d94:	10800524 	muli	r2,r2,20
    1d98:	10800284 	addi	r2,r2,10
    1d9c:	e0bffd15 	stw	r2,-12(fp)
	VGA_text(x1, 45, c);
    1da0:	e13ffd17 	ldw	r4,-12(fp)
    1da4:	01400b44 	movi	r5,45
    1da8:	e1bffe17 	ldw	r6,-8(fp)
    1dac:	0000ee40 	call	ee4 <VGA_text>
}
    1db0:	e037883a 	mov	sp,fp
    1db4:	dfc00117 	ldw	ra,4(sp)
    1db8:	df000017 	ldw	fp,0(sp)
    1dbc:	dec00204 	addi	sp,sp,8
    1dc0:	f800283a 	ret

00001dc4 <memset>:
    1dc4:	20c000cc 	andi	r3,r4,3
    1dc8:	2005883a 	mov	r2,r4
    1dcc:	18004326 	beq	r3,zero,1edc <memset+0x118>
    1dd0:	31ffffc4 	addi	r7,r6,-1
    1dd4:	30004026 	beq	r6,zero,1ed8 <memset+0x114>
    1dd8:	2813883a 	mov	r9,r5
    1ddc:	200d883a 	mov	r6,r4
    1de0:	2007883a 	mov	r3,r4
    1de4:	00000406 	br	1df8 <memset+0x34>
    1de8:	3a3fffc4 	addi	r8,r7,-1
    1dec:	31800044 	addi	r6,r6,1
    1df0:	38003926 	beq	r7,zero,1ed8 <memset+0x114>
    1df4:	400f883a 	mov	r7,r8
    1df8:	18c00044 	addi	r3,r3,1
    1dfc:	32400005 	stb	r9,0(r6)
    1e00:	1a0000cc 	andi	r8,r3,3
    1e04:	403ff81e 	bne	r8,zero,1de8 <__alt_mem_Flash_flash_data+0xf4001de8>
    1e08:	010000c4 	movi	r4,3
    1e0c:	21c02d2e 	bgeu	r4,r7,1ec4 <memset+0x100>
    1e10:	29803fcc 	andi	r6,r5,255
    1e14:	3008923a 	slli	r4,r6,8
    1e18:	218cb03a 	or	r6,r4,r6
    1e1c:	3008943a 	slli	r4,r6,16
    1e20:	218cb03a 	or	r6,r4,r6
    1e24:	010003c4 	movi	r4,15
    1e28:	21c0182e 	bgeu	r4,r7,1e8c <memset+0xc8>
    1e2c:	3b3ffc04 	addi	r12,r7,-16
    1e30:	6018d13a 	srli	r12,r12,4
    1e34:	1a000104 	addi	r8,r3,4
    1e38:	1ac00204 	addi	r11,r3,8
    1e3c:	6008913a 	slli	r4,r12,4
    1e40:	1a800304 	addi	r10,r3,12
    1e44:	1813883a 	mov	r9,r3
    1e48:	21000504 	addi	r4,r4,20
    1e4c:	1909883a 	add	r4,r3,r4
    1e50:	49800015 	stw	r6,0(r9)
    1e54:	41800015 	stw	r6,0(r8)
    1e58:	59800015 	stw	r6,0(r11)
    1e5c:	51800015 	stw	r6,0(r10)
    1e60:	42000404 	addi	r8,r8,16
    1e64:	4a400404 	addi	r9,r9,16
    1e68:	5ac00404 	addi	r11,r11,16
    1e6c:	52800404 	addi	r10,r10,16
    1e70:	413ff71e 	bne	r8,r4,1e50 <__alt_mem_Flash_flash_data+0xf4001e50>
    1e74:	63000044 	addi	r12,r12,1
    1e78:	6018913a 	slli	r12,r12,4
    1e7c:	39c003cc 	andi	r7,r7,15
    1e80:	010000c4 	movi	r4,3
    1e84:	1b07883a 	add	r3,r3,r12
    1e88:	21c00e2e 	bgeu	r4,r7,1ec4 <memset+0x100>
    1e8c:	1813883a 	mov	r9,r3
    1e90:	3811883a 	mov	r8,r7
    1e94:	010000c4 	movi	r4,3
    1e98:	49800015 	stw	r6,0(r9)
    1e9c:	423fff04 	addi	r8,r8,-4
    1ea0:	4a400104 	addi	r9,r9,4
    1ea4:	223ffc36 	bltu	r4,r8,1e98 <__alt_mem_Flash_flash_data+0xf4001e98>
    1ea8:	393fff04 	addi	r4,r7,-4
    1eac:	2008d0ba 	srli	r4,r4,2
    1eb0:	39c000cc 	andi	r7,r7,3
    1eb4:	21000044 	addi	r4,r4,1
    1eb8:	2109883a 	add	r4,r4,r4
    1ebc:	2109883a 	add	r4,r4,r4
    1ec0:	1907883a 	add	r3,r3,r4
    1ec4:	38000426 	beq	r7,zero,1ed8 <memset+0x114>
    1ec8:	19cf883a 	add	r7,r3,r7
    1ecc:	19400005 	stb	r5,0(r3)
    1ed0:	18c00044 	addi	r3,r3,1
    1ed4:	19fffd1e 	bne	r3,r7,1ecc <__alt_mem_Flash_flash_data+0xf4001ecc>
    1ed8:	f800283a 	ret
    1edc:	2007883a 	mov	r3,r4
    1ee0:	300f883a 	mov	r7,r6
    1ee4:	003fc806 	br	1e08 <__alt_mem_Flash_flash_data+0xf4001e08>

00001ee8 <_printf_r>:
    1ee8:	defffd04 	addi	sp,sp,-12
    1eec:	dfc00015 	stw	ra,0(sp)
    1ef0:	d9800115 	stw	r6,4(sp)
    1ef4:	d9c00215 	stw	r7,8(sp)
    1ef8:	280d883a 	mov	r6,r5
    1efc:	21400217 	ldw	r5,8(r4)
    1f00:	d9c00104 	addi	r7,sp,4
    1f04:	000422c0 	call	422c <___vfprintf_internal_r>
    1f08:	dfc00017 	ldw	ra,0(sp)
    1f0c:	dec00304 	addi	sp,sp,12
    1f10:	f800283a 	ret

00001f14 <printf>:
    1f14:	defffc04 	addi	sp,sp,-16
    1f18:	dfc00015 	stw	ra,0(sp)
    1f1c:	d9400115 	stw	r5,4(sp)
    1f20:	d9800215 	stw	r6,8(sp)
    1f24:	d9c00315 	stw	r7,12(sp)
    1f28:	008000b4 	movhi	r2,2
    1f2c:	1085fc04 	addi	r2,r2,6128
    1f30:	10800017 	ldw	r2,0(r2)
    1f34:	200b883a 	mov	r5,r4
    1f38:	d9800104 	addi	r6,sp,4
    1f3c:	11000217 	ldw	r4,8(r2)
    1f40:	000617c0 	call	617c <__vfprintf_internal>
    1f44:	dfc00017 	ldw	ra,0(sp)
    1f48:	dec00404 	addi	sp,sp,16
    1f4c:	f800283a 	ret

00001f50 <_puts_r>:
    1f50:	defff604 	addi	sp,sp,-40
    1f54:	dc000715 	stw	r16,28(sp)
    1f58:	2021883a 	mov	r16,r4
    1f5c:	2809883a 	mov	r4,r5
    1f60:	dc400815 	stw	r17,32(sp)
    1f64:	dfc00915 	stw	ra,36(sp)
    1f68:	2823883a 	mov	r17,r5
    1f6c:	00022040 	call	2204 <strlen>
    1f70:	81400217 	ldw	r5,8(r16)
    1f74:	11000044 	addi	r4,r2,1
    1f78:	d8800115 	stw	r2,4(sp)
    1f7c:	008000b4 	movhi	r2,2
    1f80:	2980030b 	ldhu	r6,12(r5)
    1f84:	10bb9104 	addi	r2,r2,-4540
    1f88:	d8800215 	stw	r2,8(sp)
    1f8c:	00800044 	movi	r2,1
    1f90:	d8800315 	stw	r2,12(sp)
    1f94:	00800084 	movi	r2,2
    1f98:	d8800515 	stw	r2,20(sp)
    1f9c:	dc400015 	stw	r17,0(sp)
    1fa0:	d9000615 	stw	r4,24(sp)
    1fa4:	dec00415 	stw	sp,16(sp)
    1fa8:	3088000c 	andi	r2,r6,8192
    1fac:	1000061e 	bne	r2,zero,1fc8 <_puts_r+0x78>
    1fb0:	29001917 	ldw	r4,100(r5)
    1fb4:	00b7ffc4 	movi	r2,-8193
    1fb8:	31880014 	ori	r6,r6,8192
    1fbc:	2084703a 	and	r2,r4,r2
    1fc0:	2980030d 	sth	r6,12(r5)
    1fc4:	28801915 	stw	r2,100(r5)
    1fc8:	8009883a 	mov	r4,r16
    1fcc:	d9800404 	addi	r6,sp,16
    1fd0:	00087200 	call	8720 <__sfvwrite_r>
    1fd4:	1000061e 	bne	r2,zero,1ff0 <_puts_r+0xa0>
    1fd8:	00800284 	movi	r2,10
    1fdc:	dfc00917 	ldw	ra,36(sp)
    1fe0:	dc400817 	ldw	r17,32(sp)
    1fe4:	dc000717 	ldw	r16,28(sp)
    1fe8:	dec00a04 	addi	sp,sp,40
    1fec:	f800283a 	ret
    1ff0:	00bfffc4 	movi	r2,-1
    1ff4:	003ff906 	br	1fdc <__alt_mem_Flash_flash_data+0xf4001fdc>

00001ff8 <puts>:
    1ff8:	008000b4 	movhi	r2,2
    1ffc:	1085fc04 	addi	r2,r2,6128
    2000:	200b883a 	mov	r5,r4
    2004:	11000017 	ldw	r4,0(r2)
    2008:	0001f501 	jmpi	1f50 <_puts_r>

0000200c <_sprintf_r>:
    200c:	deffe404 	addi	sp,sp,-112
    2010:	2807883a 	mov	r3,r5
    2014:	dfc01a15 	stw	ra,104(sp)
    2018:	d9c01b15 	stw	r7,108(sp)
    201c:	00a00034 	movhi	r2,32768
    2020:	10bfffc4 	addi	r2,r2,-1
    2024:	02008204 	movi	r8,520
    2028:	d8800215 	stw	r2,8(sp)
    202c:	d8800515 	stw	r2,20(sp)
    2030:	d80b883a 	mov	r5,sp
    2034:	d9c01b04 	addi	r7,sp,108
    2038:	00bfffc4 	movi	r2,-1
    203c:	d8c00015 	stw	r3,0(sp)
    2040:	d8c00415 	stw	r3,16(sp)
    2044:	da00030d 	sth	r8,12(sp)
    2048:	d880038d 	sth	r2,14(sp)
    204c:	000229c0 	call	229c <___svfprintf_internal_r>
    2050:	d8c00017 	ldw	r3,0(sp)
    2054:	18000005 	stb	zero,0(r3)
    2058:	dfc01a17 	ldw	ra,104(sp)
    205c:	dec01c04 	addi	sp,sp,112
    2060:	f800283a 	ret

00002064 <sprintf>:
    2064:	deffe304 	addi	sp,sp,-116
    2068:	2007883a 	mov	r3,r4
    206c:	dfc01a15 	stw	ra,104(sp)
    2070:	d9801b15 	stw	r6,108(sp)
    2074:	d9c01c15 	stw	r7,112(sp)
    2078:	010000b4 	movhi	r4,2
    207c:	2105fc04 	addi	r4,r4,6128
    2080:	21000017 	ldw	r4,0(r4)
    2084:	00a00034 	movhi	r2,32768
    2088:	10bfffc4 	addi	r2,r2,-1
    208c:	280d883a 	mov	r6,r5
    2090:	02008204 	movi	r8,520
    2094:	d8800215 	stw	r2,8(sp)
    2098:	d8800515 	stw	r2,20(sp)
    209c:	d80b883a 	mov	r5,sp
    20a0:	d9c01b04 	addi	r7,sp,108
    20a4:	00bfffc4 	movi	r2,-1
    20a8:	d8c00015 	stw	r3,0(sp)
    20ac:	d8c00415 	stw	r3,16(sp)
    20b0:	da00030d 	sth	r8,12(sp)
    20b4:	d880038d 	sth	r2,14(sp)
    20b8:	000229c0 	call	229c <___svfprintf_internal_r>
    20bc:	d8c00017 	ldw	r3,0(sp)
    20c0:	18000005 	stb	zero,0(r3)
    20c4:	dfc01a17 	ldw	ra,104(sp)
    20c8:	dec01d04 	addi	sp,sp,116
    20cc:	f800283a 	ret

000020d0 <strcmp>:
    20d0:	2144b03a 	or	r2,r4,r5
    20d4:	108000cc 	andi	r2,r2,3
    20d8:	1000171e 	bne	r2,zero,2138 <strcmp+0x68>
    20dc:	20800017 	ldw	r2,0(r4)
    20e0:	28c00017 	ldw	r3,0(r5)
    20e4:	10c0141e 	bne	r2,r3,2138 <strcmp+0x68>
    20e8:	027fbff4 	movhi	r9,65279
    20ec:	4a7fbfc4 	addi	r9,r9,-257
    20f0:	0086303a 	nor	r3,zero,r2
    20f4:	02202074 	movhi	r8,32897
    20f8:	1245883a 	add	r2,r2,r9
    20fc:	42202004 	addi	r8,r8,-32640
    2100:	10c4703a 	and	r2,r2,r3
    2104:	1204703a 	and	r2,r2,r8
    2108:	10000226 	beq	r2,zero,2114 <strcmp+0x44>
    210c:	00001706 	br	216c <strcmp+0x9c>
    2110:	1000161e 	bne	r2,zero,216c <strcmp+0x9c>
    2114:	21000104 	addi	r4,r4,4
    2118:	20c00017 	ldw	r3,0(r4)
    211c:	29400104 	addi	r5,r5,4
    2120:	29800017 	ldw	r6,0(r5)
    2124:	1a4f883a 	add	r7,r3,r9
    2128:	00c4303a 	nor	r2,zero,r3
    212c:	3884703a 	and	r2,r7,r2
    2130:	1204703a 	and	r2,r2,r8
    2134:	19bff626 	beq	r3,r6,2110 <__alt_mem_Flash_flash_data+0xf4002110>
    2138:	20800007 	ldb	r2,0(r4)
    213c:	1000051e 	bne	r2,zero,2154 <strcmp+0x84>
    2140:	00000606 	br	215c <strcmp+0x8c>
    2144:	21000044 	addi	r4,r4,1
    2148:	20800007 	ldb	r2,0(r4)
    214c:	29400044 	addi	r5,r5,1
    2150:	10000226 	beq	r2,zero,215c <strcmp+0x8c>
    2154:	28c00007 	ldb	r3,0(r5)
    2158:	10fffa26 	beq	r2,r3,2144 <__alt_mem_Flash_flash_data+0xf4002144>
    215c:	20800003 	ldbu	r2,0(r4)
    2160:	28c00003 	ldbu	r3,0(r5)
    2164:	10c5c83a 	sub	r2,r2,r3
    2168:	f800283a 	ret
    216c:	0005883a 	mov	r2,zero
    2170:	f800283a 	ret

00002174 <strcpy>:
    2174:	2906b03a 	or	r3,r5,r4
    2178:	18c000cc 	andi	r3,r3,3
    217c:	2005883a 	mov	r2,r4
    2180:	1800161e 	bne	r3,zero,21dc <strcpy+0x68>
    2184:	29c00017 	ldw	r7,0(r5)
    2188:	02ffbff4 	movhi	r11,65279
    218c:	5affbfc4 	addi	r11,r11,-257
    2190:	02a02074 	movhi	r10,32897
    2194:	01c8303a 	nor	r4,zero,r7
    2198:	3ac7883a 	add	r3,r7,r11
    219c:	52a02004 	addi	r10,r10,-32640
    21a0:	20c6703a 	and	r3,r4,r3
    21a4:	1a86703a 	and	r3,r3,r10
    21a8:	18000c1e 	bne	r3,zero,21dc <strcpy+0x68>
    21ac:	1011883a 	mov	r8,r2
    21b0:	41c00015 	stw	r7,0(r8)
    21b4:	29400104 	addi	r5,r5,4
    21b8:	29c00017 	ldw	r7,0(r5)
    21bc:	41800104 	addi	r6,r8,4
    21c0:	3011883a 	mov	r8,r6
    21c4:	01d2303a 	nor	r9,zero,r7
    21c8:	3ac7883a 	add	r3,r7,r11
    21cc:	48c6703a 	and	r3,r9,r3
    21d0:	1a86703a 	and	r3,r3,r10
    21d4:	183ff626 	beq	r3,zero,21b0 <__alt_mem_Flash_flash_data+0xf40021b0>
    21d8:	00000106 	br	21e0 <strcpy+0x6c>
    21dc:	100d883a 	mov	r6,r2
    21e0:	28c00003 	ldbu	r3,0(r5)
    21e4:	31800044 	addi	r6,r6,1
    21e8:	29400044 	addi	r5,r5,1
    21ec:	30ffffc5 	stb	r3,-1(r6)
    21f0:	18c03fcc 	andi	r3,r3,255
    21f4:	18c0201c 	xori	r3,r3,128
    21f8:	18ffe004 	addi	r3,r3,-128
    21fc:	183ff81e 	bne	r3,zero,21e0 <__alt_mem_Flash_flash_data+0xf40021e0>
    2200:	f800283a 	ret

00002204 <strlen>:
    2204:	208000cc 	andi	r2,r4,3
    2208:	10002026 	beq	r2,zero,228c <strlen+0x88>
    220c:	20800007 	ldb	r2,0(r4)
    2210:	10002026 	beq	r2,zero,2294 <strlen+0x90>
    2214:	2005883a 	mov	r2,r4
    2218:	00000206 	br	2224 <strlen+0x20>
    221c:	10c00007 	ldb	r3,0(r2)
    2220:	18001826 	beq	r3,zero,2284 <strlen+0x80>
    2224:	10800044 	addi	r2,r2,1
    2228:	10c000cc 	andi	r3,r2,3
    222c:	183ffb1e 	bne	r3,zero,221c <__alt_mem_Flash_flash_data+0xf400221c>
    2230:	10c00017 	ldw	r3,0(r2)
    2234:	01ffbff4 	movhi	r7,65279
    2238:	39ffbfc4 	addi	r7,r7,-257
    223c:	00ca303a 	nor	r5,zero,r3
    2240:	01a02074 	movhi	r6,32897
    2244:	19c7883a 	add	r3,r3,r7
    2248:	31a02004 	addi	r6,r6,-32640
    224c:	1946703a 	and	r3,r3,r5
    2250:	1986703a 	and	r3,r3,r6
    2254:	1800091e 	bne	r3,zero,227c <strlen+0x78>
    2258:	10800104 	addi	r2,r2,4
    225c:	10c00017 	ldw	r3,0(r2)
    2260:	19cb883a 	add	r5,r3,r7
    2264:	00c6303a 	nor	r3,zero,r3
    2268:	28c6703a 	and	r3,r5,r3
    226c:	1986703a 	and	r3,r3,r6
    2270:	183ff926 	beq	r3,zero,2258 <__alt_mem_Flash_flash_data+0xf4002258>
    2274:	00000106 	br	227c <strlen+0x78>
    2278:	10800044 	addi	r2,r2,1
    227c:	10c00007 	ldb	r3,0(r2)
    2280:	183ffd1e 	bne	r3,zero,2278 <__alt_mem_Flash_flash_data+0xf4002278>
    2284:	1105c83a 	sub	r2,r2,r4
    2288:	f800283a 	ret
    228c:	2005883a 	mov	r2,r4
    2290:	003fe706 	br	2230 <__alt_mem_Flash_flash_data+0xf4002230>
    2294:	0005883a 	mov	r2,zero
    2298:	f800283a 	ret

0000229c <___svfprintf_internal_r>:
    229c:	deffb504 	addi	sp,sp,-300
    22a0:	dfc04a15 	stw	ra,296(sp)
    22a4:	ddc04815 	stw	r23,288(sp)
    22a8:	d9002f15 	stw	r4,188(sp)
    22ac:	282f883a 	mov	r23,r5
    22b0:	d9802915 	stw	r6,164(sp)
    22b4:	d9c02d15 	stw	r7,180(sp)
    22b8:	df004915 	stw	fp,292(sp)
    22bc:	dd804715 	stw	r22,284(sp)
    22c0:	dd404615 	stw	r21,280(sp)
    22c4:	dd004515 	stw	r20,276(sp)
    22c8:	dcc04415 	stw	r19,272(sp)
    22cc:	dc804315 	stw	r18,268(sp)
    22d0:	dc404215 	stw	r17,264(sp)
    22d4:	dc004115 	stw	r16,260(sp)
    22d8:	0008e140 	call	8e14 <_localeconv_r>
    22dc:	10800017 	ldw	r2,0(r2)
    22e0:	1009883a 	mov	r4,r2
    22e4:	d8803515 	stw	r2,212(sp)
    22e8:	00022040 	call	2204 <strlen>
    22ec:	d8803915 	stw	r2,228(sp)
    22f0:	b880030b 	ldhu	r2,12(r23)
    22f4:	1080200c 	andi	r2,r2,128
    22f8:	10000226 	beq	r2,zero,2304 <___svfprintf_internal_r+0x68>
    22fc:	b8800417 	ldw	r2,16(r23)
    2300:	10065f26 	beq	r2,zero,3c80 <___svfprintf_internal_r+0x19e4>
    2304:	db001dc4 	addi	r12,sp,119
    2308:	dd801e04 	addi	r22,sp,120
    230c:	d8800404 	addi	r2,sp,16
    2310:	050000b4 	movhi	r20,2
    2314:	b317c83a 	sub	r11,r22,r12
    2318:	a53ba284 	addi	r20,r20,-4470
    231c:	db002815 	stw	r12,160(sp)
    2320:	d8801e15 	stw	r2,120(sp)
    2324:	d8002015 	stw	zero,128(sp)
    2328:	d8001f15 	stw	zero,124(sp)
    232c:	d8003315 	stw	zero,204(sp)
    2330:	d8003715 	stw	zero,220(sp)
    2334:	d8003815 	stw	zero,224(sp)
    2338:	1011883a 	mov	r8,r2
    233c:	d8003b15 	stw	zero,236(sp)
    2340:	d8003a15 	stw	zero,232(sp)
    2344:	d8003015 	stw	zero,192(sp)
    2348:	dac03d15 	stw	r11,244(sp)
    234c:	db002917 	ldw	r12,164(sp)
    2350:	60800007 	ldb	r2,0(r12)
    2354:	1000ab26 	beq	r2,zero,2604 <___svfprintf_internal_r+0x368>
    2358:	00c00944 	movi	r3,37
    235c:	10c0a926 	beq	r2,r3,2604 <___svfprintf_internal_r+0x368>
    2360:	6021883a 	mov	r16,r12
    2364:	00000106 	br	236c <___svfprintf_internal_r+0xd0>
    2368:	10c08426 	beq	r2,r3,257c <___svfprintf_internal_r+0x2e0>
    236c:	84000044 	addi	r16,r16,1
    2370:	80800007 	ldb	r2,0(r16)
    2374:	103ffc1e 	bne	r2,zero,2368 <__alt_mem_Flash_flash_data+0xf4002368>
    2378:	dac02917 	ldw	r11,164(sp)
    237c:	82e3c83a 	sub	r17,r16,r11
    2380:	88000f26 	beq	r17,zero,23c0 <___svfprintf_internal_r+0x124>
    2384:	d8c02017 	ldw	r3,128(sp)
    2388:	d8801f17 	ldw	r2,124(sp)
    238c:	dac02917 	ldw	r11,164(sp)
    2390:	1c47883a 	add	r3,r3,r17
    2394:	10800044 	addi	r2,r2,1
    2398:	d8c02015 	stw	r3,128(sp)
    239c:	42c00015 	stw	r11,0(r8)
    23a0:	44400115 	stw	r17,4(r8)
    23a4:	d8801f15 	stw	r2,124(sp)
    23a8:	00c001c4 	movi	r3,7
    23ac:	18807616 	blt	r3,r2,2588 <___svfprintf_internal_r+0x2ec>
    23b0:	42000204 	addi	r8,r8,8
    23b4:	db003017 	ldw	r12,192(sp)
    23b8:	6459883a 	add	r12,r12,r17
    23bc:	db003015 	stw	r12,192(sp)
    23c0:	80800007 	ldb	r2,0(r16)
    23c4:	10007726 	beq	r2,zero,25a4 <___svfprintf_internal_r+0x308>
    23c8:	80800044 	addi	r2,r16,1
    23cc:	84000047 	ldb	r16,1(r16)
    23d0:	d8002785 	stb	zero,158(sp)
    23d4:	000d883a 	mov	r6,zero
    23d8:	027fffc4 	movi	r9,-1
    23dc:	d8002e15 	stw	zero,184(sp)
    23e0:	0023883a 	mov	r17,zero
    23e4:	01001604 	movi	r4,88
    23e8:	01400244 	movi	r5,9
    23ec:	02800a84 	movi	r10,42
    23f0:	01c01b04 	movi	r7,108
    23f4:	10c00044 	addi	r3,r2,1
    23f8:	80bff804 	addi	r2,r16,-32
    23fc:	2082e636 	bltu	r4,r2,2f98 <___svfprintf_internal_r+0xcfc>
    2400:	100490ba 	slli	r2,r2,2
    2404:	02c00034 	movhi	r11,0
    2408:	5ac90604 	addi	r11,r11,9240
    240c:	12c5883a 	add	r2,r2,r11
    2410:	10800017 	ldw	r2,0(r2)
    2414:	1000683a 	jmp	r2
    2418:	00002d78 	rdprs	zero,zero,181
    241c:	00002f98 	cmpnei	zero,zero,190
    2420:	00002f98 	cmpnei	zero,zero,190
    2424:	00002d98 	cmpnei	zero,zero,182
    2428:	00002f98 	cmpnei	zero,zero,190
    242c:	00002f98 	cmpnei	zero,zero,190
    2430:	00002f98 	cmpnei	zero,zero,190
    2434:	00002f98 	cmpnei	zero,zero,190
    2438:	00002f98 	cmpnei	zero,zero,190
    243c:	00002f98 	cmpnei	zero,zero,190
    2440:	00002da8 	cmpgeui	zero,zero,182
    2444:	00002dd4 	movui	zero,183
    2448:	00002f98 	cmpnei	zero,zero,190
    244c:	0000260c 	andi	zero,zero,152
    2450:	0000261c 	xori	zero,zero,152
    2454:	00002f98 	cmpnei	zero,zero,190
    2458:	0000265c 	xori	zero,zero,153
    245c:	00002c3c 	xorhi	zero,zero,176
    2460:	00002c3c 	xorhi	zero,zero,176
    2464:	00002c3c 	xorhi	zero,zero,176
    2468:	00002c3c 	xorhi	zero,zero,176
    246c:	00002c3c 	xorhi	zero,zero,176
    2470:	00002c3c 	xorhi	zero,zero,176
    2474:	00002c3c 	xorhi	zero,zero,176
    2478:	00002c3c 	xorhi	zero,zero,176
    247c:	00002c3c 	xorhi	zero,zero,176
    2480:	00002f98 	cmpnei	zero,zero,190
    2484:	00002f98 	cmpnei	zero,zero,190
    2488:	00002f98 	cmpnei	zero,zero,190
    248c:	00002f98 	cmpnei	zero,zero,190
    2490:	00002f98 	cmpnei	zero,zero,190
    2494:	00002f98 	cmpnei	zero,zero,190
    2498:	00002f98 	cmpnei	zero,zero,190
    249c:	00002f98 	cmpnei	zero,zero,190
    24a0:	00002f98 	cmpnei	zero,zero,190
    24a4:	00002f98 	cmpnei	zero,zero,190
    24a8:	0000266c 	andhi	zero,zero,153
    24ac:	00002aec 	andhi	zero,zero,171
    24b0:	00002f98 	cmpnei	zero,zero,190
    24b4:	00002aec 	andhi	zero,zero,171
    24b8:	00002f98 	cmpnei	zero,zero,190
    24bc:	00002f98 	cmpnei	zero,zero,190
    24c0:	00002f98 	cmpnei	zero,zero,190
    24c4:	00002f98 	cmpnei	zero,zero,190
    24c8:	00002b90 	cmplti	zero,zero,174
    24cc:	00002f98 	cmpnei	zero,zero,190
    24d0:	00002f98 	cmpnei	zero,zero,190
    24d4:	00002f2c 	andhi	zero,zero,188
    24d8:	00002f98 	cmpnei	zero,zero,190
    24dc:	00002f98 	cmpnei	zero,zero,190
    24e0:	00002f98 	cmpnei	zero,zero,190
    24e4:	00002f98 	cmpnei	zero,zero,190
    24e8:	00002f98 	cmpnei	zero,zero,190
    24ec:	00002ba0 	cmpeqi	zero,zero,174
    24f0:	00002f98 	cmpnei	zero,zero,190
    24f4:	00002f98 	cmpnei	zero,zero,190
    24f8:	00002be0 	cmpeqi	zero,zero,175
    24fc:	00002f98 	cmpnei	zero,zero,190
    2500:	00002f98 	cmpnei	zero,zero,190
    2504:	00002f98 	cmpnei	zero,zero,190
    2508:	00002f98 	cmpnei	zero,zero,190
    250c:	00002f98 	cmpnei	zero,zero,190
    2510:	00002f98 	cmpnei	zero,zero,190
    2514:	00002f98 	cmpnei	zero,zero,190
    2518:	00002f98 	cmpnei	zero,zero,190
    251c:	00002f98 	cmpnei	zero,zero,190
    2520:	00002f98 	cmpnei	zero,zero,190
    2524:	00002e84 	movi	zero,186
    2528:	00002ec4 	movi	zero,187
    252c:	00002aec 	andhi	zero,zero,171
    2530:	00002aec 	andhi	zero,zero,171
    2534:	00002aec 	andhi	zero,zero,171
    2538:	00002de4 	muli	zero,zero,183
    253c:	00002ec4 	movi	zero,187
    2540:	00002f98 	cmpnei	zero,zero,190
    2544:	00002f98 	cmpnei	zero,zero,190
    2548:	00002df4 	movhi	zero,183
    254c:	00002f98 	cmpnei	zero,zero,190
    2550:	00002e08 	cmpgei	zero,zero,184
    2554:	00002f5c 	xori	zero,zero,189
    2558:	00002e3c 	xorhi	zero,zero,184
    255c:	00002c70 	cmpltui	zero,zero,177
    2560:	00002f98 	cmpnei	zero,zero,190
    2564:	00002c80 	call	2c8 <getChar+0x48>
    2568:	00002f98 	cmpnei	zero,zero,190
    256c:	00002cf8 	rdprs	zero,zero,179
    2570:	00002f98 	cmpnei	zero,zero,190
    2574:	00002f98 	cmpnei	zero,zero,190
    2578:	00002d38 	rdprs	zero,zero,180
    257c:	db002917 	ldw	r12,164(sp)
    2580:	8323c83a 	sub	r17,r16,r12
    2584:	003f7e06 	br	2380 <__alt_mem_Flash_flash_data+0xf4002380>
    2588:	d9002f17 	ldw	r4,188(sp)
    258c:	b80b883a 	mov	r5,r23
    2590:	b00d883a 	mov	r6,r22
    2594:	000b2300 	call	b230 <__ssprint_r>
    2598:	1000081e 	bne	r2,zero,25bc <___svfprintf_internal_r+0x320>
    259c:	da000404 	addi	r8,sp,16
    25a0:	003f8406 	br	23b4 <__alt_mem_Flash_flash_data+0xf40023b4>
    25a4:	d8802017 	ldw	r2,128(sp)
    25a8:	10000426 	beq	r2,zero,25bc <___svfprintf_internal_r+0x320>
    25ac:	d9002f17 	ldw	r4,188(sp)
    25b0:	b80b883a 	mov	r5,r23
    25b4:	d9801e04 	addi	r6,sp,120
    25b8:	000b2300 	call	b230 <__ssprint_r>
    25bc:	b880030b 	ldhu	r2,12(r23)
    25c0:	1080100c 	andi	r2,r2,64
    25c4:	10000d1e 	bne	r2,zero,25fc <___svfprintf_internal_r+0x360>
    25c8:	d8803017 	ldw	r2,192(sp)
    25cc:	dfc04a17 	ldw	ra,296(sp)
    25d0:	df004917 	ldw	fp,292(sp)
    25d4:	ddc04817 	ldw	r23,288(sp)
    25d8:	dd804717 	ldw	r22,284(sp)
    25dc:	dd404617 	ldw	r21,280(sp)
    25e0:	dd004517 	ldw	r20,276(sp)
    25e4:	dcc04417 	ldw	r19,272(sp)
    25e8:	dc804317 	ldw	r18,268(sp)
    25ec:	dc404217 	ldw	r17,264(sp)
    25f0:	dc004117 	ldw	r16,260(sp)
    25f4:	dec04b04 	addi	sp,sp,300
    25f8:	f800283a 	ret
    25fc:	00bfffc4 	movi	r2,-1
    2600:	003ff206 	br	25cc <__alt_mem_Flash_flash_data+0xf40025cc>
    2604:	dc002917 	ldw	r16,164(sp)
    2608:	003f6d06 	br	23c0 <__alt_mem_Flash_flash_data+0xf40023c0>
    260c:	1805883a 	mov	r2,r3
    2610:	8c400114 	ori	r17,r17,4
    2614:	1c000007 	ldb	r16,0(r3)
    2618:	003f7606 	br	23f4 <__alt_mem_Flash_flash_data+0xf40023f4>
    261c:	1c000007 	ldb	r16,0(r3)
    2620:	18800044 	addi	r2,r3,1
    2624:	8286e726 	beq	r16,r10,41c4 <___svfprintf_internal_r+0x1f28>
    2628:	82fff404 	addi	r11,r16,-48
    262c:	1007883a 	mov	r3,r2
    2630:	0013883a 	mov	r9,zero
    2634:	2aff7036 	bltu	r5,r11,23f8 <__alt_mem_Flash_flash_data+0xf40023f8>
    2638:	1c000007 	ldb	r16,0(r3)
    263c:	4a4002a4 	muli	r9,r9,10
    2640:	18c00044 	addi	r3,r3,1
    2644:	5a53883a 	add	r9,r11,r9
    2648:	82fff404 	addi	r11,r16,-48
    264c:	2afffa2e 	bgeu	r5,r11,2638 <__alt_mem_Flash_flash_data+0xf4002638>
    2650:	483f690e 	bge	r9,zero,23f8 <__alt_mem_Flash_flash_data+0xf40023f8>
    2654:	027fffc4 	movi	r9,-1
    2658:	003f6706 	br	23f8 <__alt_mem_Flash_flash_data+0xf40023f8>
    265c:	8c402014 	ori	r17,r17,128
    2660:	1805883a 	mov	r2,r3
    2664:	1c000007 	ldb	r16,0(r3)
    2668:	003f6206 	br	23f4 <__alt_mem_Flash_flash_data+0xf40023f4>
    266c:	8c400414 	ori	r17,r17,16
    2670:	d8c02915 	stw	r3,164(sp)
    2674:	d9802785 	stb	r6,158(sp)
    2678:	8880080c 	andi	r2,r17,32
    267c:	d8c02d17 	ldw	r3,180(sp)
    2680:	10021526 	beq	r2,zero,2ed8 <___svfprintf_internal_r+0xc3c>
    2684:	db002d17 	ldw	r12,180(sp)
    2688:	18800117 	ldw	r2,4(r3)
    268c:	1cc00017 	ldw	r19,0(r3)
    2690:	63000204 	addi	r12,r12,8
    2694:	db002d15 	stw	r12,180(sp)
    2698:	1039883a 	mov	fp,r2
    269c:	10021916 	blt	r2,zero,2f04 <___svfprintf_internal_r+0xc68>
    26a0:	dd402783 	ldbu	r21,158(sp)
    26a4:	da403215 	stw	r9,200(sp)
    26a8:	00800044 	movi	r2,1
    26ac:	9f06b03a 	or	r3,r19,fp
    26b0:	48000216 	blt	r9,zero,26bc <___svfprintf_internal_r+0x420>
    26b4:	013fdfc4 	movi	r4,-129
    26b8:	8922703a 	and	r17,r17,r4
    26bc:	1802461e 	bne	r3,zero,2fd8 <___svfprintf_internal_r+0xd3c>
    26c0:	48035426 	beq	r9,zero,3414 <___svfprintf_internal_r+0x1178>
    26c4:	10803fcc 	andi	r2,r2,255
    26c8:	00c00044 	movi	r3,1
    26cc:	10c26726 	beq	r2,r3,306c <___svfprintf_internal_r+0xdd0>
    26d0:	00c00084 	movi	r3,2
    26d4:	10c2ea26 	beq	r2,r3,3280 <___svfprintf_internal_r+0xfe4>
    26d8:	b007883a 	mov	r3,r22
    26dc:	9808d0fa 	srli	r4,r19,3
    26e0:	e00a977a 	slli	r5,fp,29
    26e4:	e038d0fa 	srli	fp,fp,3
    26e8:	9cc001cc 	andi	r19,r19,7
    26ec:	98800c04 	addi	r2,r19,48
    26f0:	18ffffc4 	addi	r3,r3,-1
    26f4:	2926b03a 	or	r19,r5,r4
    26f8:	18800005 	stb	r2,0(r3)
    26fc:	9f08b03a 	or	r4,r19,fp
    2700:	203ff61e 	bne	r4,zero,26dc <__alt_mem_Flash_flash_data+0xf40026dc>
    2704:	8900004c 	andi	r4,r17,1
    2708:	d8c03115 	stw	r3,196(sp)
    270c:	2002ea26 	beq	r4,zero,32b8 <___svfprintf_internal_r+0x101c>
    2710:	10803fcc 	andi	r2,r2,255
    2714:	1080201c 	xori	r2,r2,128
    2718:	10bfe004 	addi	r2,r2,-128
    271c:	01000c04 	movi	r4,48
    2720:	11057526 	beq	r2,r4,3cf8 <___svfprintf_internal_r+0x1a5c>
    2724:	dac03117 	ldw	r11,196(sp)
    2728:	193fffc5 	stb	r4,-1(r3)
    272c:	5affffc4 	addi	r11,r11,-1
    2730:	dac03115 	stw	r11,196(sp)
    2734:	b2e5c83a 	sub	r18,r22,r11
    2738:	9005883a 	mov	r2,r18
    273c:	9240010e 	bge	r18,r9,2744 <___svfprintf_internal_r+0x4a8>
    2740:	4805883a 	mov	r2,r9
    2744:	d8802a15 	stw	r2,168(sp)
    2748:	d8003415 	stw	zero,208(sp)
    274c:	a8803fcc 	andi	r2,r21,255
    2750:	1080201c 	xori	r2,r2,128
    2754:	10bfe004 	addi	r2,r2,-128
    2758:	10000326 	beq	r2,zero,2768 <___svfprintf_internal_r+0x4cc>
    275c:	d8c02a17 	ldw	r3,168(sp)
    2760:	18c00044 	addi	r3,r3,1
    2764:	d8c02a15 	stw	r3,168(sp)
    2768:	8ac0008c 	andi	r11,r17,2
    276c:	dac02b15 	stw	r11,172(sp)
    2770:	58000326 	beq	r11,zero,2780 <___svfprintf_internal_r+0x4e4>
    2774:	db002a17 	ldw	r12,168(sp)
    2778:	63000084 	addi	r12,r12,2
    277c:	db002a15 	stw	r12,168(sp)
    2780:	88c0210c 	andi	r3,r17,132
    2784:	d8c02c15 	stw	r3,176(sp)
    2788:	1802111e 	bne	r3,zero,2fd0 <___svfprintf_internal_r+0xd34>
    278c:	dac02e17 	ldw	r11,184(sp)
    2790:	db002a17 	ldw	r12,168(sp)
    2794:	5b39c83a 	sub	fp,r11,r12
    2798:	07020d0e 	bge	zero,fp,2fd0 <___svfprintf_internal_r+0xd34>
    279c:	02400404 	movi	r9,16
    27a0:	d8c02017 	ldw	r3,128(sp)
    27a4:	d8801f17 	ldw	r2,124(sp)
    27a8:	4f058c0e 	bge	r9,fp,3ddc <___svfprintf_internal_r+0x1b40>
    27ac:	014000b4 	movhi	r5,2
    27b0:	e009883a 	mov	r4,fp
    27b4:	297ba684 	addi	r5,r5,-4454
    27b8:	dc003c15 	stw	r16,240(sp)
    27bc:	9039883a 	mov	fp,r18
    27c0:	d9403615 	stw	r5,216(sp)
    27c4:	8825883a 	mov	r18,r17
    27c8:	482b883a 	mov	r21,r9
    27cc:	04c001c4 	movi	r19,7
    27d0:	dc002f17 	ldw	r16,188(sp)
    27d4:	2023883a 	mov	r17,r4
    27d8:	00000306 	br	27e8 <___svfprintf_internal_r+0x54c>
    27dc:	8c7ffc04 	addi	r17,r17,-16
    27e0:	42000204 	addi	r8,r8,8
    27e4:	ac40130e 	bge	r21,r17,2834 <___svfprintf_internal_r+0x598>
    27e8:	02c000b4 	movhi	r11,2
    27ec:	18c00404 	addi	r3,r3,16
    27f0:	10800044 	addi	r2,r2,1
    27f4:	5afba684 	addi	r11,r11,-4454
    27f8:	42c00015 	stw	r11,0(r8)
    27fc:	45400115 	stw	r21,4(r8)
    2800:	d8c02015 	stw	r3,128(sp)
    2804:	d8801f15 	stw	r2,124(sp)
    2808:	98bff40e 	bge	r19,r2,27dc <__alt_mem_Flash_flash_data+0xf40027dc>
    280c:	8009883a 	mov	r4,r16
    2810:	b80b883a 	mov	r5,r23
    2814:	b00d883a 	mov	r6,r22
    2818:	000b2300 	call	b230 <__ssprint_r>
    281c:	103f671e 	bne	r2,zero,25bc <__alt_mem_Flash_flash_data+0xf40025bc>
    2820:	8c7ffc04 	addi	r17,r17,-16
    2824:	d8c02017 	ldw	r3,128(sp)
    2828:	d8801f17 	ldw	r2,124(sp)
    282c:	da000404 	addi	r8,sp,16
    2830:	ac7fed16 	blt	r21,r17,27e8 <__alt_mem_Flash_flash_data+0xf40027e8>
    2834:	dc003c17 	ldw	r16,240(sp)
    2838:	8809883a 	mov	r4,r17
    283c:	9023883a 	mov	r17,r18
    2840:	e025883a 	mov	r18,fp
    2844:	2039883a 	mov	fp,r4
    2848:	db003617 	ldw	r12,216(sp)
    284c:	e0c7883a 	add	r3,fp,r3
    2850:	10800044 	addi	r2,r2,1
    2854:	43000015 	stw	r12,0(r8)
    2858:	47000115 	stw	fp,4(r8)
    285c:	d8c02015 	stw	r3,128(sp)
    2860:	d8801f15 	stw	r2,124(sp)
    2864:	010001c4 	movi	r4,7
    2868:	20834416 	blt	r4,r2,357c <___svfprintf_internal_r+0x12e0>
    286c:	d8802787 	ldb	r2,158(sp)
    2870:	42000204 	addi	r8,r8,8
    2874:	10000c26 	beq	r2,zero,28a8 <___svfprintf_internal_r+0x60c>
    2878:	d8801f17 	ldw	r2,124(sp)
    287c:	d9002784 	addi	r4,sp,158
    2880:	18c00044 	addi	r3,r3,1
    2884:	10800044 	addi	r2,r2,1
    2888:	41000015 	stw	r4,0(r8)
    288c:	01000044 	movi	r4,1
    2890:	41000115 	stw	r4,4(r8)
    2894:	d8c02015 	stw	r3,128(sp)
    2898:	d8801f15 	stw	r2,124(sp)
    289c:	010001c4 	movi	r4,7
    28a0:	2082f616 	blt	r4,r2,347c <___svfprintf_internal_r+0x11e0>
    28a4:	42000204 	addi	r8,r8,8
    28a8:	dac02b17 	ldw	r11,172(sp)
    28ac:	58000c26 	beq	r11,zero,28e0 <___svfprintf_internal_r+0x644>
    28b0:	d8801f17 	ldw	r2,124(sp)
    28b4:	d9002704 	addi	r4,sp,156
    28b8:	18c00084 	addi	r3,r3,2
    28bc:	10800044 	addi	r2,r2,1
    28c0:	41000015 	stw	r4,0(r8)
    28c4:	01000084 	movi	r4,2
    28c8:	41000115 	stw	r4,4(r8)
    28cc:	d8c02015 	stw	r3,128(sp)
    28d0:	d8801f15 	stw	r2,124(sp)
    28d4:	010001c4 	movi	r4,7
    28d8:	2082e016 	blt	r4,r2,345c <___svfprintf_internal_r+0x11c0>
    28dc:	42000204 	addi	r8,r8,8
    28e0:	db002c17 	ldw	r12,176(sp)
    28e4:	00802004 	movi	r2,128
    28e8:	60822f26 	beq	r12,r2,31a8 <___svfprintf_internal_r+0xf0c>
    28ec:	db003217 	ldw	r12,200(sp)
    28f0:	64abc83a 	sub	r21,r12,r18
    28f4:	0540310e 	bge	zero,r21,29bc <___svfprintf_internal_r+0x720>
    28f8:	07000404 	movi	fp,16
    28fc:	d8801f17 	ldw	r2,124(sp)
    2900:	e544270e 	bge	fp,r21,39a0 <___svfprintf_internal_r+0x1704>
    2904:	014000b4 	movhi	r5,2
    2908:	a809883a 	mov	r4,r21
    290c:	297ba284 	addi	r5,r5,-4470
    2910:	dc002c15 	stw	r16,176(sp)
    2914:	902b883a 	mov	r21,r18
    2918:	d9402b15 	stw	r5,172(sp)
    291c:	8825883a 	mov	r18,r17
    2920:	04c001c4 	movi	r19,7
    2924:	dc002f17 	ldw	r16,188(sp)
    2928:	2023883a 	mov	r17,r4
    292c:	00000306 	br	293c <___svfprintf_internal_r+0x6a0>
    2930:	8c7ffc04 	addi	r17,r17,-16
    2934:	42000204 	addi	r8,r8,8
    2938:	e440110e 	bge	fp,r17,2980 <___svfprintf_internal_r+0x6e4>
    293c:	18c00404 	addi	r3,r3,16
    2940:	10800044 	addi	r2,r2,1
    2944:	45000015 	stw	r20,0(r8)
    2948:	47000115 	stw	fp,4(r8)
    294c:	d8c02015 	stw	r3,128(sp)
    2950:	d8801f15 	stw	r2,124(sp)
    2954:	98bff60e 	bge	r19,r2,2930 <__alt_mem_Flash_flash_data+0xf4002930>
    2958:	8009883a 	mov	r4,r16
    295c:	b80b883a 	mov	r5,r23
    2960:	b00d883a 	mov	r6,r22
    2964:	000b2300 	call	b230 <__ssprint_r>
    2968:	103f141e 	bne	r2,zero,25bc <__alt_mem_Flash_flash_data+0xf40025bc>
    296c:	8c7ffc04 	addi	r17,r17,-16
    2970:	d8c02017 	ldw	r3,128(sp)
    2974:	d8801f17 	ldw	r2,124(sp)
    2978:	da000404 	addi	r8,sp,16
    297c:	e47fef16 	blt	fp,r17,293c <__alt_mem_Flash_flash_data+0xf400293c>
    2980:	dc002c17 	ldw	r16,176(sp)
    2984:	8809883a 	mov	r4,r17
    2988:	9023883a 	mov	r17,r18
    298c:	a825883a 	mov	r18,r21
    2990:	202b883a 	mov	r21,r4
    2994:	dac02b17 	ldw	r11,172(sp)
    2998:	1d47883a 	add	r3,r3,r21
    299c:	10800044 	addi	r2,r2,1
    29a0:	42c00015 	stw	r11,0(r8)
    29a4:	45400115 	stw	r21,4(r8)
    29a8:	d8c02015 	stw	r3,128(sp)
    29ac:	d8801f15 	stw	r2,124(sp)
    29b0:	010001c4 	movi	r4,7
    29b4:	2082a116 	blt	r4,r2,343c <___svfprintf_internal_r+0x11a0>
    29b8:	42000204 	addi	r8,r8,8
    29bc:	8880400c 	andi	r2,r17,256
    29c0:	1001b01e 	bne	r2,zero,3084 <___svfprintf_internal_r+0xde8>
    29c4:	d8801f17 	ldw	r2,124(sp)
    29c8:	db003117 	ldw	r12,196(sp)
    29cc:	1c87883a 	add	r3,r3,r18
    29d0:	10800044 	addi	r2,r2,1
    29d4:	43000015 	stw	r12,0(r8)
    29d8:	44800115 	stw	r18,4(r8)
    29dc:	d8c02015 	stw	r3,128(sp)
    29e0:	d8801f15 	stw	r2,124(sp)
    29e4:	010001c4 	movi	r4,7
    29e8:	20828216 	blt	r4,r2,33f4 <___svfprintf_internal_r+0x1158>
    29ec:	42000204 	addi	r8,r8,8
    29f0:	8c40010c 	andi	r17,r17,4
    29f4:	88003226 	beq	r17,zero,2ac0 <___svfprintf_internal_r+0x824>
    29f8:	db002e17 	ldw	r12,184(sp)
    29fc:	dac02a17 	ldw	r11,168(sp)
    2a00:	62e1c83a 	sub	r16,r12,r11
    2a04:	04002e0e 	bge	zero,r16,2ac0 <___svfprintf_internal_r+0x824>
    2a08:	04400404 	movi	r17,16
    2a0c:	d8801f17 	ldw	r2,124(sp)
    2a10:	8c05330e 	bge	r17,r16,3ee0 <___svfprintf_internal_r+0x1c44>
    2a14:	010000b4 	movhi	r4,2
    2a18:	213ba684 	addi	r4,r4,-4454
    2a1c:	d9003615 	stw	r4,216(sp)
    2a20:	048001c4 	movi	r18,7
    2a24:	dcc02f17 	ldw	r19,188(sp)
    2a28:	00000306 	br	2a38 <___svfprintf_internal_r+0x79c>
    2a2c:	843ffc04 	addi	r16,r16,-16
    2a30:	42000204 	addi	r8,r8,8
    2a34:	8c00130e 	bge	r17,r16,2a84 <___svfprintf_internal_r+0x7e8>
    2a38:	014000b4 	movhi	r5,2
    2a3c:	18c00404 	addi	r3,r3,16
    2a40:	10800044 	addi	r2,r2,1
    2a44:	297ba684 	addi	r5,r5,-4454
    2a48:	41400015 	stw	r5,0(r8)
    2a4c:	44400115 	stw	r17,4(r8)
    2a50:	d8c02015 	stw	r3,128(sp)
    2a54:	d8801f15 	stw	r2,124(sp)
    2a58:	90bff40e 	bge	r18,r2,2a2c <__alt_mem_Flash_flash_data+0xf4002a2c>
    2a5c:	9809883a 	mov	r4,r19
    2a60:	b80b883a 	mov	r5,r23
    2a64:	b00d883a 	mov	r6,r22
    2a68:	000b2300 	call	b230 <__ssprint_r>
    2a6c:	103ed31e 	bne	r2,zero,25bc <__alt_mem_Flash_flash_data+0xf40025bc>
    2a70:	843ffc04 	addi	r16,r16,-16
    2a74:	d8c02017 	ldw	r3,128(sp)
    2a78:	d8801f17 	ldw	r2,124(sp)
    2a7c:	da000404 	addi	r8,sp,16
    2a80:	8c3fed16 	blt	r17,r16,2a38 <__alt_mem_Flash_flash_data+0xf4002a38>
    2a84:	dac03617 	ldw	r11,216(sp)
    2a88:	1c07883a 	add	r3,r3,r16
    2a8c:	10800044 	addi	r2,r2,1
    2a90:	42c00015 	stw	r11,0(r8)
    2a94:	44000115 	stw	r16,4(r8)
    2a98:	d8c02015 	stw	r3,128(sp)
    2a9c:	d8801f15 	stw	r2,124(sp)
    2aa0:	010001c4 	movi	r4,7
    2aa4:	2080060e 	bge	r4,r2,2ac0 <___svfprintf_internal_r+0x824>
    2aa8:	d9002f17 	ldw	r4,188(sp)
    2aac:	b80b883a 	mov	r5,r23
    2ab0:	b00d883a 	mov	r6,r22
    2ab4:	000b2300 	call	b230 <__ssprint_r>
    2ab8:	103ec01e 	bne	r2,zero,25bc <__alt_mem_Flash_flash_data+0xf40025bc>
    2abc:	d8c02017 	ldw	r3,128(sp)
    2ac0:	d8802a17 	ldw	r2,168(sp)
    2ac4:	db002e17 	ldw	r12,184(sp)
    2ac8:	1300010e 	bge	r2,r12,2ad0 <___svfprintf_internal_r+0x834>
    2acc:	6005883a 	mov	r2,r12
    2ad0:	dac03017 	ldw	r11,192(sp)
    2ad4:	5897883a 	add	r11,r11,r2
    2ad8:	dac03015 	stw	r11,192(sp)
    2adc:	1802331e 	bne	r3,zero,33ac <___svfprintf_internal_r+0x1110>
    2ae0:	d8001f15 	stw	zero,124(sp)
    2ae4:	da000404 	addi	r8,sp,16
    2ae8:	003e1806 	br	234c <__alt_mem_Flash_flash_data+0xf400234c>
    2aec:	db002d17 	ldw	r12,180(sp)
    2af0:	dac02d17 	ldw	r11,180(sp)
    2af4:	d8c02915 	stw	r3,164(sp)
    2af8:	63000017 	ldw	r12,0(r12)
    2afc:	5ac00117 	ldw	r11,4(r11)
    2b00:	d9802785 	stb	r6,158(sp)
    2b04:	6009883a 	mov	r4,r12
    2b08:	580b883a 	mov	r5,r11
    2b0c:	db003715 	stw	r12,220(sp)
    2b10:	da004015 	stw	r8,256(sp)
    2b14:	da403f15 	stw	r9,252(sp)
    2b18:	dac03815 	stw	r11,224(sp)
    2b1c:	000b02c0 	call	b02c <__fpclassifyd>
    2b20:	db002d17 	ldw	r12,180(sp)
    2b24:	04800044 	movi	r18,1
    2b28:	da004017 	ldw	r8,256(sp)
    2b2c:	64c00204 	addi	r19,r12,8
    2b30:	da403f17 	ldw	r9,252(sp)
    2b34:	d9003717 	ldw	r4,220(sp)
    2b38:	d9403817 	ldw	r5,224(sp)
    2b3c:	1483561e 	bne	r2,r18,3898 <___svfprintf_internal_r+0x15fc>
    2b40:	000d883a 	mov	r6,zero
    2b44:	000f883a 	mov	r7,zero
    2b48:	00101380 	call	10138 <__ledf2>
    2b4c:	da004017 	ldw	r8,256(sp)
    2b50:	1004ee16 	blt	r2,zero,3f0c <___svfprintf_internal_r+0x1c70>
    2b54:	dd402783 	ldbu	r21,158(sp)
    2b58:	008011c4 	movi	r2,71
    2b5c:	1404440e 	bge	r2,r16,3c70 <___svfprintf_internal_r+0x19d4>
    2b60:	00c000b4 	movhi	r3,2
    2b64:	18fb9304 	addi	r3,r3,-4532
    2b68:	d8c03115 	stw	r3,196(sp)
    2b6c:	02c000c4 	movi	r11,3
    2b70:	00bfdfc4 	movi	r2,-129
    2b74:	dac02a15 	stw	r11,168(sp)
    2b78:	88a2703a 	and	r17,r17,r2
    2b7c:	dcc02d15 	stw	r19,180(sp)
    2b80:	5825883a 	mov	r18,r11
    2b84:	d8003215 	stw	zero,200(sp)
    2b88:	d8003415 	stw	zero,208(sp)
    2b8c:	003eef06 	br	274c <__alt_mem_Flash_flash_data+0xf400274c>
    2b90:	8c400214 	ori	r17,r17,8
    2b94:	1805883a 	mov	r2,r3
    2b98:	1c000007 	ldb	r16,0(r3)
    2b9c:	003e1506 	br	23f4 <__alt_mem_Flash_flash_data+0xf40023f4>
    2ba0:	8c400414 	ori	r17,r17,16
    2ba4:	d8c02915 	stw	r3,164(sp)
    2ba8:	88c0080c 	andi	r3,r17,32
    2bac:	d8802d17 	ldw	r2,180(sp)
    2bb0:	18005526 	beq	r3,zero,2d08 <___svfprintf_internal_r+0xa6c>
    2bb4:	dac02d17 	ldw	r11,180(sp)
    2bb8:	14c00017 	ldw	r19,0(r2)
    2bbc:	17000117 	ldw	fp,4(r2)
    2bc0:	5ac00204 	addi	r11,r11,8
    2bc4:	dac02d15 	stw	r11,180(sp)
    2bc8:	00800044 	movi	r2,1
    2bcc:	9f06b03a 	or	r3,r19,fp
    2bd0:	d8002785 	stb	zero,158(sp)
    2bd4:	da403215 	stw	r9,200(sp)
    2bd8:	002b883a 	mov	r21,zero
    2bdc:	003eb406 	br	26b0 <__alt_mem_Flash_flash_data+0xf40026b0>
    2be0:	030000b4 	movhi	r12,2
    2be4:	633b9604 	addi	r12,r12,-4520
    2be8:	d8c02915 	stw	r3,164(sp)
    2bec:	d9802785 	stb	r6,158(sp)
    2bf0:	db003b15 	stw	r12,236(sp)
    2bf4:	88c0080c 	andi	r3,r17,32
    2bf8:	d8802d17 	ldw	r2,180(sp)
    2bfc:	18005626 	beq	r3,zero,2d58 <___svfprintf_internal_r+0xabc>
    2c00:	dac02d17 	ldw	r11,180(sp)
    2c04:	14c00017 	ldw	r19,0(r2)
    2c08:	17000117 	ldw	fp,4(r2)
    2c0c:	5ac00204 	addi	r11,r11,8
    2c10:	dac02d15 	stw	r11,180(sp)
    2c14:	8880004c 	andi	r2,r17,1
    2c18:	10029326 	beq	r2,zero,3668 <___svfprintf_internal_r+0x13cc>
    2c1c:	9f06b03a 	or	r3,r19,fp
    2c20:	18033526 	beq	r3,zero,38f8 <___svfprintf_internal_r+0x165c>
    2c24:	00800c04 	movi	r2,48
    2c28:	d8802705 	stb	r2,156(sp)
    2c2c:	dc002745 	stb	r16,157(sp)
    2c30:	8c400094 	ori	r17,r17,2
    2c34:	00800084 	movi	r2,2
    2c38:	003fe506 	br	2bd0 <__alt_mem_Flash_flash_data+0xf4002bd0>
    2c3c:	1805883a 	mov	r2,r3
    2c40:	d8002e15 	stw	zero,184(sp)
    2c44:	82fff404 	addi	r11,r16,-48
    2c48:	0019883a 	mov	r12,zero
    2c4c:	14000007 	ldb	r16,0(r2)
    2c50:	630002a4 	muli	r12,r12,10
    2c54:	18c00044 	addi	r3,r3,1
    2c58:	1805883a 	mov	r2,r3
    2c5c:	62d9883a 	add	r12,r12,r11
    2c60:	82fff404 	addi	r11,r16,-48
    2c64:	2afff92e 	bgeu	r5,r11,2c4c <__alt_mem_Flash_flash_data+0xf4002c4c>
    2c68:	db002e15 	stw	r12,184(sp)
    2c6c:	003de206 	br	23f8 <__alt_mem_Flash_flash_data+0xf40023f8>
    2c70:	8c400814 	ori	r17,r17,32
    2c74:	1805883a 	mov	r2,r3
    2c78:	1c000007 	ldb	r16,0(r3)
    2c7c:	003ddd06 	br	23f4 <__alt_mem_Flash_flash_data+0xf40023f4>
    2c80:	dac02d17 	ldw	r11,180(sp)
    2c84:	db002d17 	ldw	r12,180(sp)
    2c88:	d8c02915 	stw	r3,164(sp)
    2c8c:	5ac00017 	ldw	r11,0(r11)
    2c90:	d8002785 	stb	zero,158(sp)
    2c94:	64c00104 	addi	r19,r12,4
    2c98:	dac03115 	stw	r11,196(sp)
    2c9c:	58048126 	beq	r11,zero,3ea4 <___svfprintf_internal_r+0x1c08>
    2ca0:	d9003117 	ldw	r4,196(sp)
    2ca4:	48041716 	blt	r9,zero,3d04 <___svfprintf_internal_r+0x1a68>
    2ca8:	480d883a 	mov	r6,r9
    2cac:	000b883a 	mov	r5,zero
    2cb0:	da004015 	stw	r8,256(sp)
    2cb4:	da403f15 	stw	r9,252(sp)
    2cb8:	00097a80 	call	97a8 <memchr>
    2cbc:	da004017 	ldw	r8,256(sp)
    2cc0:	da403f17 	ldw	r9,252(sp)
    2cc4:	1004db26 	beq	r2,zero,4034 <___svfprintf_internal_r+0x1d98>
    2cc8:	d8c03117 	ldw	r3,196(sp)
    2ccc:	10e5c83a 	sub	r18,r2,r3
    2cd0:	4c80010e 	bge	r9,r18,2cd8 <___svfprintf_internal_r+0xa3c>
    2cd4:	4825883a 	mov	r18,r9
    2cd8:	9005883a 	mov	r2,r18
    2cdc:	90040e16 	blt	r18,zero,3d18 <___svfprintf_internal_r+0x1a7c>
    2ce0:	dd402783 	ldbu	r21,158(sp)
    2ce4:	d8802a15 	stw	r2,168(sp)
    2ce8:	dcc02d15 	stw	r19,180(sp)
    2cec:	d8003215 	stw	zero,200(sp)
    2cf0:	d8003415 	stw	zero,208(sp)
    2cf4:	003e9506 	br	274c <__alt_mem_Flash_flash_data+0xf400274c>
    2cf8:	d8c02915 	stw	r3,164(sp)
    2cfc:	88c0080c 	andi	r3,r17,32
    2d00:	d8802d17 	ldw	r2,180(sp)
    2d04:	183fab1e 	bne	r3,zero,2bb4 <__alt_mem_Flash_flash_data+0xf4002bb4>
    2d08:	88c0040c 	andi	r3,r17,16
    2d0c:	1802681e 	bne	r3,zero,36b0 <___svfprintf_internal_r+0x1414>
    2d10:	88c0100c 	andi	r3,r17,64
    2d14:	18026626 	beq	r3,zero,36b0 <___svfprintf_internal_r+0x1414>
    2d18:	dac02d17 	ldw	r11,180(sp)
    2d1c:	14c0000b 	ldhu	r19,0(r2)
    2d20:	0039883a 	mov	fp,zero
    2d24:	5ac00104 	addi	r11,r11,4
    2d28:	dac02d15 	stw	r11,180(sp)
    2d2c:	00800044 	movi	r2,1
    2d30:	9807883a 	mov	r3,r19
    2d34:	003fa606 	br	2bd0 <__alt_mem_Flash_flash_data+0xf4002bd0>
    2d38:	008000b4 	movhi	r2,2
    2d3c:	10bb9b04 	addi	r2,r2,-4500
    2d40:	d8c02915 	stw	r3,164(sp)
    2d44:	d8803b15 	stw	r2,236(sp)
    2d48:	d9802785 	stb	r6,158(sp)
    2d4c:	88c0080c 	andi	r3,r17,32
    2d50:	d8802d17 	ldw	r2,180(sp)
    2d54:	183faa1e 	bne	r3,zero,2c00 <__alt_mem_Flash_flash_data+0xf4002c00>
    2d58:	88c0040c 	andi	r3,r17,16
    2d5c:	1802e826 	beq	r3,zero,3900 <___svfprintf_internal_r+0x1664>
    2d60:	db002d17 	ldw	r12,180(sp)
    2d64:	14c00017 	ldw	r19,0(r2)
    2d68:	0039883a 	mov	fp,zero
    2d6c:	63000104 	addi	r12,r12,4
    2d70:	db002d15 	stw	r12,180(sp)
    2d74:	003fa706 	br	2c14 <__alt_mem_Flash_flash_data+0xf4002c14>
    2d78:	30803fcc 	andi	r2,r6,255
    2d7c:	1080201c 	xori	r2,r2,128
    2d80:	10bfe004 	addi	r2,r2,-128
    2d84:	1002d91e 	bne	r2,zero,38ec <___svfprintf_internal_r+0x1650>
    2d88:	1805883a 	mov	r2,r3
    2d8c:	01800804 	movi	r6,32
    2d90:	1c000007 	ldb	r16,0(r3)
    2d94:	003d9706 	br	23f4 <__alt_mem_Flash_flash_data+0xf40023f4>
    2d98:	8c400054 	ori	r17,r17,1
    2d9c:	1805883a 	mov	r2,r3
    2da0:	1c000007 	ldb	r16,0(r3)
    2da4:	003d9306 	br	23f4 <__alt_mem_Flash_flash_data+0xf40023f4>
    2da8:	dac02d17 	ldw	r11,180(sp)
    2dac:	db002d17 	ldw	r12,180(sp)
    2db0:	5ac00017 	ldw	r11,0(r11)
    2db4:	dac02e15 	stw	r11,184(sp)
    2db8:	62c00104 	addi	r11,r12,4
    2dbc:	db002e17 	ldw	r12,184(sp)
    2dc0:	60033e16 	blt	r12,zero,3abc <___svfprintf_internal_r+0x1820>
    2dc4:	dac02d15 	stw	r11,180(sp)
    2dc8:	1805883a 	mov	r2,r3
    2dcc:	1c000007 	ldb	r16,0(r3)
    2dd0:	003d8806 	br	23f4 <__alt_mem_Flash_flash_data+0xf40023f4>
    2dd4:	1805883a 	mov	r2,r3
    2dd8:	01800ac4 	movi	r6,43
    2ddc:	1c000007 	ldb	r16,0(r3)
    2de0:	003d8406 	br	23f4 <__alt_mem_Flash_flash_data+0xf40023f4>
    2de4:	8c401014 	ori	r17,r17,64
    2de8:	1805883a 	mov	r2,r3
    2dec:	1c000007 	ldb	r16,0(r3)
    2df0:	003d8006 	br	23f4 <__alt_mem_Flash_flash_data+0xf40023f4>
    2df4:	1c000007 	ldb	r16,0(r3)
    2df8:	81c33626 	beq	r16,r7,3ad4 <___svfprintf_internal_r+0x1838>
    2dfc:	8c400414 	ori	r17,r17,16
    2e00:	1805883a 	mov	r2,r3
    2e04:	003d7b06 	br	23f4 <__alt_mem_Flash_flash_data+0xf40023f4>
    2e08:	d8c02915 	stw	r3,164(sp)
    2e0c:	d9802785 	stb	r6,158(sp)
    2e10:	8880080c 	andi	r2,r17,32
    2e14:	1002c226 	beq	r2,zero,3920 <___svfprintf_internal_r+0x1684>
    2e18:	db002d17 	ldw	r12,180(sp)
    2e1c:	dac03017 	ldw	r11,192(sp)
    2e20:	60800017 	ldw	r2,0(r12)
    2e24:	5807d7fa 	srai	r3,r11,31
    2e28:	63000104 	addi	r12,r12,4
    2e2c:	db002d15 	stw	r12,180(sp)
    2e30:	12c00015 	stw	r11,0(r2)
    2e34:	10c00115 	stw	r3,4(r2)
    2e38:	003d4406 	br	234c <__alt_mem_Flash_flash_data+0xf400234c>
    2e3c:	db002d17 	ldw	r12,180(sp)
    2e40:	00800c04 	movi	r2,48
    2e44:	d8802705 	stb	r2,156(sp)
    2e48:	64c00017 	ldw	r19,0(r12)
    2e4c:	00801e04 	movi	r2,120
    2e50:	d8802745 	stb	r2,157(sp)
    2e54:	008000b4 	movhi	r2,2
    2e58:	10bb9b04 	addi	r2,r2,-4500
    2e5c:	63000104 	addi	r12,r12,4
    2e60:	d8c02915 	stw	r3,164(sp)
    2e64:	d8803b15 	stw	r2,236(sp)
    2e68:	0039883a 	mov	fp,zero
    2e6c:	8c400094 	ori	r17,r17,2
    2e70:	db002d15 	stw	r12,180(sp)
    2e74:	00800084 	movi	r2,2
    2e78:	04001e04 	movi	r16,120
    2e7c:	9807883a 	mov	r3,r19
    2e80:	003f5306 	br	2bd0 <__alt_mem_Flash_flash_data+0xf4002bd0>
    2e84:	db002d17 	ldw	r12,180(sp)
    2e88:	d8c02915 	stw	r3,164(sp)
    2e8c:	dac01404 	addi	r11,sp,80
    2e90:	60800017 	ldw	r2,0(r12)
    2e94:	00c00044 	movi	r3,1
    2e98:	63000104 	addi	r12,r12,4
    2e9c:	d8801405 	stb	r2,80(sp)
    2ea0:	d8c02a15 	stw	r3,168(sp)
    2ea4:	d8002785 	stb	zero,158(sp)
    2ea8:	db002d15 	stw	r12,180(sp)
    2eac:	1825883a 	mov	r18,r3
    2eb0:	d8003215 	stw	zero,200(sp)
    2eb4:	d8003415 	stw	zero,208(sp)
    2eb8:	dac03115 	stw	r11,196(sp)
    2ebc:	0005883a 	mov	r2,zero
    2ec0:	003e2906 	br	2768 <__alt_mem_Flash_flash_data+0xf4002768>
    2ec4:	d8c02915 	stw	r3,164(sp)
    2ec8:	d9802785 	stb	r6,158(sp)
    2ecc:	8880080c 	andi	r2,r17,32
    2ed0:	d8c02d17 	ldw	r3,180(sp)
    2ed4:	103deb1e 	bne	r2,zero,2684 <__alt_mem_Flash_flash_data+0xf4002684>
    2ed8:	8880040c 	andi	r2,r17,16
    2edc:	1001e51e 	bne	r2,zero,3674 <___svfprintf_internal_r+0x13d8>
    2ee0:	8880100c 	andi	r2,r17,64
    2ee4:	1001e326 	beq	r2,zero,3674 <___svfprintf_internal_r+0x13d8>
    2ee8:	1cc0000f 	ldh	r19,0(r3)
    2eec:	db002d17 	ldw	r12,180(sp)
    2ef0:	9839d7fa 	srai	fp,r19,31
    2ef4:	63000104 	addi	r12,r12,4
    2ef8:	db002d15 	stw	r12,180(sp)
    2efc:	e005883a 	mov	r2,fp
    2f00:	103de70e 	bge	r2,zero,26a0 <__alt_mem_Flash_flash_data+0xf40026a0>
    2f04:	04e7c83a 	sub	r19,zero,r19
    2f08:	9804c03a 	cmpne	r2,r19,zero
    2f0c:	0739c83a 	sub	fp,zero,fp
    2f10:	e0b9c83a 	sub	fp,fp,r2
    2f14:	05400b44 	movi	r21,45
    2f18:	dd402785 	stb	r21,158(sp)
    2f1c:	da403215 	stw	r9,200(sp)
    2f20:	00800044 	movi	r2,1
    2f24:	9f06b03a 	or	r3,r19,fp
    2f28:	003de106 	br	26b0 <__alt_mem_Flash_flash_data+0xf40026b0>
    2f2c:	8c400414 	ori	r17,r17,16
    2f30:	d8c02915 	stw	r3,164(sp)
    2f34:	8880080c 	andi	r2,r17,32
    2f38:	10000b26 	beq	r2,zero,2f68 <___svfprintf_internal_r+0xccc>
    2f3c:	db002d17 	ldw	r12,180(sp)
    2f40:	0005883a 	mov	r2,zero
    2f44:	64c00017 	ldw	r19,0(r12)
    2f48:	67000117 	ldw	fp,4(r12)
    2f4c:	63000204 	addi	r12,r12,8
    2f50:	db002d15 	stw	r12,180(sp)
    2f54:	9f06b03a 	or	r3,r19,fp
    2f58:	003f1d06 	br	2bd0 <__alt_mem_Flash_flash_data+0xf4002bd0>
    2f5c:	d8c02915 	stw	r3,164(sp)
    2f60:	8880080c 	andi	r2,r17,32
    2f64:	103ff51e 	bne	r2,zero,2f3c <__alt_mem_Flash_flash_data+0xf4002f3c>
    2f68:	8880040c 	andi	r2,r17,16
    2f6c:	1001c81e 	bne	r2,zero,3690 <___svfprintf_internal_r+0x13f4>
    2f70:	8880100c 	andi	r2,r17,64
    2f74:	1001c626 	beq	r2,zero,3690 <___svfprintf_internal_r+0x13f4>
    2f78:	db002d17 	ldw	r12,180(sp)
    2f7c:	0039883a 	mov	fp,zero
    2f80:	0005883a 	mov	r2,zero
    2f84:	64c0000b 	ldhu	r19,0(r12)
    2f88:	63000104 	addi	r12,r12,4
    2f8c:	db002d15 	stw	r12,180(sp)
    2f90:	9807883a 	mov	r3,r19
    2f94:	003f0e06 	br	2bd0 <__alt_mem_Flash_flash_data+0xf4002bd0>
    2f98:	d8c02915 	stw	r3,164(sp)
    2f9c:	d9802785 	stb	r6,158(sp)
    2fa0:	803d8026 	beq	r16,zero,25a4 <__alt_mem_Flash_flash_data+0xf40025a4>
    2fa4:	02c00044 	movi	r11,1
    2fa8:	db001404 	addi	r12,sp,80
    2fac:	dac02a15 	stw	r11,168(sp)
    2fb0:	dc001405 	stb	r16,80(sp)
    2fb4:	d8002785 	stb	zero,158(sp)
    2fb8:	5825883a 	mov	r18,r11
    2fbc:	d8003215 	stw	zero,200(sp)
    2fc0:	d8003415 	stw	zero,208(sp)
    2fc4:	db003115 	stw	r12,196(sp)
    2fc8:	0005883a 	mov	r2,zero
    2fcc:	003de606 	br	2768 <__alt_mem_Flash_flash_data+0xf4002768>
    2fd0:	d8c02017 	ldw	r3,128(sp)
    2fd4:	003e2706 	br	2874 <__alt_mem_Flash_flash_data+0xf4002874>
    2fd8:	10803fcc 	andi	r2,r2,255
    2fdc:	00c00044 	movi	r3,1
    2fe0:	10fdbb1e 	bne	r2,r3,26d0 <__alt_mem_Flash_flash_data+0xf40026d0>
    2fe4:	e000021e 	bne	fp,zero,2ff0 <___svfprintf_internal_r+0xd54>
    2fe8:	00800244 	movi	r2,9
    2fec:	14c01f2e 	bgeu	r2,r19,306c <___svfprintf_internal_r+0xdd0>
    2ff0:	dc002a15 	stw	r16,168(sp)
    2ff4:	dc402b15 	stw	r17,172(sp)
    2ff8:	9821883a 	mov	r16,r19
    2ffc:	e023883a 	mov	r17,fp
    3000:	b025883a 	mov	r18,r22
    3004:	4827883a 	mov	r19,r9
    3008:	4039883a 	mov	fp,r8
    300c:	8009883a 	mov	r4,r16
    3010:	880b883a 	mov	r5,r17
    3014:	01800284 	movi	r6,10
    3018:	000f883a 	mov	r7,zero
    301c:	000e7b00 	call	e7b0 <__umoddi3>
    3020:	10800c04 	addi	r2,r2,48
    3024:	94bfffc4 	addi	r18,r18,-1
    3028:	8009883a 	mov	r4,r16
    302c:	880b883a 	mov	r5,r17
    3030:	01800284 	movi	r6,10
    3034:	000f883a 	mov	r7,zero
    3038:	90800005 	stb	r2,0(r18)
    303c:	000e1f00 	call	e1f0 <__udivdi3>
    3040:	1021883a 	mov	r16,r2
    3044:	10c4b03a 	or	r2,r2,r3
    3048:	1823883a 	mov	r17,r3
    304c:	103fef1e 	bne	r2,zero,300c <__alt_mem_Flash_flash_data+0xf400300c>
    3050:	dc803115 	stw	r18,196(sp)
    3054:	dc002a17 	ldw	r16,168(sp)
    3058:	dc402b17 	ldw	r17,172(sp)
    305c:	9813883a 	mov	r9,r19
    3060:	e011883a 	mov	r8,fp
    3064:	b4a5c83a 	sub	r18,r22,r18
    3068:	003db306 	br	2738 <__alt_mem_Flash_flash_data+0xf4002738>
    306c:	9cc00c04 	addi	r19,r19,48
    3070:	db001dc4 	addi	r12,sp,119
    3074:	dcc01dc5 	stb	r19,119(sp)
    3078:	dc803d17 	ldw	r18,244(sp)
    307c:	db003115 	stw	r12,196(sp)
    3080:	003dad06 	br	2738 <__alt_mem_Flash_flash_data+0xf4002738>
    3084:	00801944 	movi	r2,101
    3088:	14008d0e 	bge	r2,r16,32c0 <___svfprintf_internal_r+0x1024>
    308c:	d9003717 	ldw	r4,220(sp)
    3090:	d9403817 	ldw	r5,224(sp)
    3094:	000d883a 	mov	r6,zero
    3098:	000f883a 	mov	r7,zero
    309c:	d8c03e15 	stw	r3,248(sp)
    30a0:	da004015 	stw	r8,256(sp)
    30a4:	000ffd40 	call	ffd4 <__eqdf2>
    30a8:	d8c03e17 	ldw	r3,248(sp)
    30ac:	da004017 	ldw	r8,256(sp)
    30b0:	1000fd1e 	bne	r2,zero,34a8 <___svfprintf_internal_r+0x120c>
    30b4:	d8801f17 	ldw	r2,124(sp)
    30b8:	010000b4 	movhi	r4,2
    30bc:	213ba204 	addi	r4,r4,-4472
    30c0:	18c00044 	addi	r3,r3,1
    30c4:	10800044 	addi	r2,r2,1
    30c8:	41000015 	stw	r4,0(r8)
    30cc:	01000044 	movi	r4,1
    30d0:	41000115 	stw	r4,4(r8)
    30d4:	d8c02015 	stw	r3,128(sp)
    30d8:	d8801f15 	stw	r2,124(sp)
    30dc:	010001c4 	movi	r4,7
    30e0:	20823316 	blt	r4,r2,39b0 <___svfprintf_internal_r+0x1714>
    30e4:	42000204 	addi	r8,r8,8
    30e8:	d8802617 	ldw	r2,152(sp)
    30ec:	dac03317 	ldw	r11,204(sp)
    30f0:	12c00216 	blt	r2,r11,30fc <___svfprintf_internal_r+0xe60>
    30f4:	8880004c 	andi	r2,r17,1
    30f8:	103e3d26 	beq	r2,zero,29f0 <__alt_mem_Flash_flash_data+0xf40029f0>
    30fc:	db003917 	ldw	r12,228(sp)
    3100:	d8801f17 	ldw	r2,124(sp)
    3104:	dac03517 	ldw	r11,212(sp)
    3108:	1b07883a 	add	r3,r3,r12
    310c:	10800044 	addi	r2,r2,1
    3110:	42c00015 	stw	r11,0(r8)
    3114:	43000115 	stw	r12,4(r8)
    3118:	d8c02015 	stw	r3,128(sp)
    311c:	d8801f15 	stw	r2,124(sp)
    3120:	010001c4 	movi	r4,7
    3124:	20826f16 	blt	r4,r2,3ae4 <___svfprintf_internal_r+0x1848>
    3128:	42000204 	addi	r8,r8,8
    312c:	db003317 	ldw	r12,204(sp)
    3130:	643fffc4 	addi	r16,r12,-1
    3134:	043e2e0e 	bge	zero,r16,29f0 <__alt_mem_Flash_flash_data+0xf40029f0>
    3138:	04800404 	movi	r18,16
    313c:	d8801f17 	ldw	r2,124(sp)
    3140:	9400a00e 	bge	r18,r16,33c4 <___svfprintf_internal_r+0x1128>
    3144:	014000b4 	movhi	r5,2
    3148:	297ba284 	addi	r5,r5,-4470
    314c:	d9402b15 	stw	r5,172(sp)
    3150:	054001c4 	movi	r21,7
    3154:	dcc02f17 	ldw	r19,188(sp)
    3158:	00000306 	br	3168 <___svfprintf_internal_r+0xecc>
    315c:	42000204 	addi	r8,r8,8
    3160:	843ffc04 	addi	r16,r16,-16
    3164:	94009a0e 	bge	r18,r16,33d0 <___svfprintf_internal_r+0x1134>
    3168:	18c00404 	addi	r3,r3,16
    316c:	10800044 	addi	r2,r2,1
    3170:	45000015 	stw	r20,0(r8)
    3174:	44800115 	stw	r18,4(r8)
    3178:	d8c02015 	stw	r3,128(sp)
    317c:	d8801f15 	stw	r2,124(sp)
    3180:	a8bff60e 	bge	r21,r2,315c <__alt_mem_Flash_flash_data+0xf400315c>
    3184:	9809883a 	mov	r4,r19
    3188:	b80b883a 	mov	r5,r23
    318c:	b00d883a 	mov	r6,r22
    3190:	000b2300 	call	b230 <__ssprint_r>
    3194:	103d091e 	bne	r2,zero,25bc <__alt_mem_Flash_flash_data+0xf40025bc>
    3198:	d8c02017 	ldw	r3,128(sp)
    319c:	d8801f17 	ldw	r2,124(sp)
    31a0:	da000404 	addi	r8,sp,16
    31a4:	003fee06 	br	3160 <__alt_mem_Flash_flash_data+0xf4003160>
    31a8:	dac02e17 	ldw	r11,184(sp)
    31ac:	db002a17 	ldw	r12,168(sp)
    31b0:	5b2bc83a 	sub	r21,r11,r12
    31b4:	057dcd0e 	bge	zero,r21,28ec <__alt_mem_Flash_flash_data+0xf40028ec>
    31b8:	07000404 	movi	fp,16
    31bc:	d8801f17 	ldw	r2,124(sp)
    31c0:	e5435d0e 	bge	fp,r21,3f38 <___svfprintf_internal_r+0x1c9c>
    31c4:	014000b4 	movhi	r5,2
    31c8:	a809883a 	mov	r4,r21
    31cc:	297ba284 	addi	r5,r5,-4470
    31d0:	dc002c15 	stw	r16,176(sp)
    31d4:	902b883a 	mov	r21,r18
    31d8:	d9402b15 	stw	r5,172(sp)
    31dc:	8825883a 	mov	r18,r17
    31e0:	04c001c4 	movi	r19,7
    31e4:	dc002f17 	ldw	r16,188(sp)
    31e8:	2023883a 	mov	r17,r4
    31ec:	00000306 	br	31fc <___svfprintf_internal_r+0xf60>
    31f0:	8c7ffc04 	addi	r17,r17,-16
    31f4:	42000204 	addi	r8,r8,8
    31f8:	e440110e 	bge	fp,r17,3240 <___svfprintf_internal_r+0xfa4>
    31fc:	18c00404 	addi	r3,r3,16
    3200:	10800044 	addi	r2,r2,1
    3204:	45000015 	stw	r20,0(r8)
    3208:	47000115 	stw	fp,4(r8)
    320c:	d8c02015 	stw	r3,128(sp)
    3210:	d8801f15 	stw	r2,124(sp)
    3214:	98bff60e 	bge	r19,r2,31f0 <__alt_mem_Flash_flash_data+0xf40031f0>
    3218:	8009883a 	mov	r4,r16
    321c:	b80b883a 	mov	r5,r23
    3220:	b00d883a 	mov	r6,r22
    3224:	000b2300 	call	b230 <__ssprint_r>
    3228:	103ce41e 	bne	r2,zero,25bc <__alt_mem_Flash_flash_data+0xf40025bc>
    322c:	8c7ffc04 	addi	r17,r17,-16
    3230:	d8c02017 	ldw	r3,128(sp)
    3234:	d8801f17 	ldw	r2,124(sp)
    3238:	da000404 	addi	r8,sp,16
    323c:	e47fef16 	blt	fp,r17,31fc <__alt_mem_Flash_flash_data+0xf40031fc>
    3240:	dc002c17 	ldw	r16,176(sp)
    3244:	8809883a 	mov	r4,r17
    3248:	9023883a 	mov	r17,r18
    324c:	a825883a 	mov	r18,r21
    3250:	202b883a 	mov	r21,r4
    3254:	dac02b17 	ldw	r11,172(sp)
    3258:	1d47883a 	add	r3,r3,r21
    325c:	10800044 	addi	r2,r2,1
    3260:	42c00015 	stw	r11,0(r8)
    3264:	45400115 	stw	r21,4(r8)
    3268:	d8c02015 	stw	r3,128(sp)
    326c:	d8801f15 	stw	r2,124(sp)
    3270:	010001c4 	movi	r4,7
    3274:	20818016 	blt	r4,r2,3878 <___svfprintf_internal_r+0x15dc>
    3278:	42000204 	addi	r8,r8,8
    327c:	003d9b06 	br	28ec <__alt_mem_Flash_flash_data+0xf40028ec>
    3280:	d9403b17 	ldw	r5,236(sp)
    3284:	b007883a 	mov	r3,r22
    3288:	988003cc 	andi	r2,r19,15
    328c:	e008973a 	slli	r4,fp,28
    3290:	2885883a 	add	r2,r5,r2
    3294:	9826d13a 	srli	r19,r19,4
    3298:	10800003 	ldbu	r2,0(r2)
    329c:	e038d13a 	srli	fp,fp,4
    32a0:	18ffffc4 	addi	r3,r3,-1
    32a4:	24e6b03a 	or	r19,r4,r19
    32a8:	18800005 	stb	r2,0(r3)
    32ac:	9f04b03a 	or	r2,r19,fp
    32b0:	103ff51e 	bne	r2,zero,3288 <__alt_mem_Flash_flash_data+0xf4003288>
    32b4:	d8c03115 	stw	r3,196(sp)
    32b8:	b0e5c83a 	sub	r18,r22,r3
    32bc:	003d1e06 	br	2738 <__alt_mem_Flash_flash_data+0xf4002738>
    32c0:	db003317 	ldw	r12,204(sp)
    32c4:	00800044 	movi	r2,1
    32c8:	18c00044 	addi	r3,r3,1
    32cc:	13014b0e 	bge	r2,r12,37fc <___svfprintf_internal_r+0x1560>
    32d0:	dc001f17 	ldw	r16,124(sp)
    32d4:	dac03117 	ldw	r11,196(sp)
    32d8:	00800044 	movi	r2,1
    32dc:	84000044 	addi	r16,r16,1
    32e0:	40800115 	stw	r2,4(r8)
    32e4:	42c00015 	stw	r11,0(r8)
    32e8:	d8c02015 	stw	r3,128(sp)
    32ec:	dc001f15 	stw	r16,124(sp)
    32f0:	008001c4 	movi	r2,7
    32f4:	14014e16 	blt	r2,r16,3830 <___svfprintf_internal_r+0x1594>
    32f8:	42000204 	addi	r8,r8,8
    32fc:	db003917 	ldw	r12,228(sp)
    3300:	dac03517 	ldw	r11,212(sp)
    3304:	84000044 	addi	r16,r16,1
    3308:	1b07883a 	add	r3,r3,r12
    330c:	42c00015 	stw	r11,0(r8)
    3310:	43000115 	stw	r12,4(r8)
    3314:	d8c02015 	stw	r3,128(sp)
    3318:	dc001f15 	stw	r16,124(sp)
    331c:	008001c4 	movi	r2,7
    3320:	14014c16 	blt	r2,r16,3854 <___svfprintf_internal_r+0x15b8>
    3324:	44800204 	addi	r18,r8,8
    3328:	d9003717 	ldw	r4,220(sp)
    332c:	d9403817 	ldw	r5,224(sp)
    3330:	000d883a 	mov	r6,zero
    3334:	000f883a 	mov	r7,zero
    3338:	d8c03e15 	stw	r3,248(sp)
    333c:	000ffd40 	call	ffd4 <__eqdf2>
    3340:	d8c03e17 	ldw	r3,248(sp)
    3344:	db003317 	ldw	r12,204(sp)
    3348:	10009526 	beq	r2,zero,35a0 <___svfprintf_internal_r+0x1304>
    334c:	dac03117 	ldw	r11,196(sp)
    3350:	60bfffc4 	addi	r2,r12,-1
    3354:	1887883a 	add	r3,r3,r2
    3358:	59000044 	addi	r4,r11,1
    335c:	84000044 	addi	r16,r16,1
    3360:	90800115 	stw	r2,4(r18)
    3364:	91000015 	stw	r4,0(r18)
    3368:	d8c02015 	stw	r3,128(sp)
    336c:	dc001f15 	stw	r16,124(sp)
    3370:	008001c4 	movi	r2,7
    3374:	1400b316 	blt	r2,r16,3644 <___svfprintf_internal_r+0x13a8>
    3378:	94800204 	addi	r18,r18,8
    337c:	dac03a17 	ldw	r11,232(sp)
    3380:	dd4022c4 	addi	r21,sp,139
    3384:	84000044 	addi	r16,r16,1
    3388:	1ac7883a 	add	r3,r3,r11
    338c:	95400015 	stw	r21,0(r18)
    3390:	92c00115 	stw	r11,4(r18)
    3394:	d8c02015 	stw	r3,128(sp)
    3398:	dc001f15 	stw	r16,124(sp)
    339c:	008001c4 	movi	r2,7
    33a0:	14001416 	blt	r2,r16,33f4 <___svfprintf_internal_r+0x1158>
    33a4:	92000204 	addi	r8,r18,8
    33a8:	003d9106 	br	29f0 <__alt_mem_Flash_flash_data+0xf40029f0>
    33ac:	d9002f17 	ldw	r4,188(sp)
    33b0:	b80b883a 	mov	r5,r23
    33b4:	b00d883a 	mov	r6,r22
    33b8:	000b2300 	call	b230 <__ssprint_r>
    33bc:	103dc826 	beq	r2,zero,2ae0 <__alt_mem_Flash_flash_data+0xf4002ae0>
    33c0:	003c7e06 	br	25bc <__alt_mem_Flash_flash_data+0xf40025bc>
    33c4:	010000b4 	movhi	r4,2
    33c8:	213ba284 	addi	r4,r4,-4470
    33cc:	d9002b15 	stw	r4,172(sp)
    33d0:	dac02b17 	ldw	r11,172(sp)
    33d4:	1c07883a 	add	r3,r3,r16
    33d8:	44000115 	stw	r16,4(r8)
    33dc:	42c00015 	stw	r11,0(r8)
    33e0:	10800044 	addi	r2,r2,1
    33e4:	d8c02015 	stw	r3,128(sp)
    33e8:	d8801f15 	stw	r2,124(sp)
    33ec:	010001c4 	movi	r4,7
    33f0:	20bd7e0e 	bge	r4,r2,29ec <__alt_mem_Flash_flash_data+0xf40029ec>
    33f4:	d9002f17 	ldw	r4,188(sp)
    33f8:	b80b883a 	mov	r5,r23
    33fc:	b00d883a 	mov	r6,r22
    3400:	000b2300 	call	b230 <__ssprint_r>
    3404:	103c6d1e 	bne	r2,zero,25bc <__alt_mem_Flash_flash_data+0xf40025bc>
    3408:	d8c02017 	ldw	r3,128(sp)
    340c:	da000404 	addi	r8,sp,16
    3410:	003d7706 	br	29f0 <__alt_mem_Flash_flash_data+0xf40029f0>
    3414:	10803fcc 	andi	r2,r2,255
    3418:	1000201e 	bne	r2,zero,349c <___svfprintf_internal_r+0x1200>
    341c:	8880004c 	andi	r2,r17,1
    3420:	10001e26 	beq	r2,zero,349c <___svfprintf_internal_r+0x1200>
    3424:	00800c04 	movi	r2,48
    3428:	d8c01dc4 	addi	r3,sp,119
    342c:	d8801dc5 	stb	r2,119(sp)
    3430:	dc803d17 	ldw	r18,244(sp)
    3434:	d8c03115 	stw	r3,196(sp)
    3438:	003cbf06 	br	2738 <__alt_mem_Flash_flash_data+0xf4002738>
    343c:	d9002f17 	ldw	r4,188(sp)
    3440:	b80b883a 	mov	r5,r23
    3444:	b00d883a 	mov	r6,r22
    3448:	000b2300 	call	b230 <__ssprint_r>
    344c:	103c5b1e 	bne	r2,zero,25bc <__alt_mem_Flash_flash_data+0xf40025bc>
    3450:	d8c02017 	ldw	r3,128(sp)
    3454:	da000404 	addi	r8,sp,16
    3458:	003d5806 	br	29bc <__alt_mem_Flash_flash_data+0xf40029bc>
    345c:	d9002f17 	ldw	r4,188(sp)
    3460:	b80b883a 	mov	r5,r23
    3464:	b00d883a 	mov	r6,r22
    3468:	000b2300 	call	b230 <__ssprint_r>
    346c:	103c531e 	bne	r2,zero,25bc <__alt_mem_Flash_flash_data+0xf40025bc>
    3470:	d8c02017 	ldw	r3,128(sp)
    3474:	da000404 	addi	r8,sp,16
    3478:	003d1906 	br	28e0 <__alt_mem_Flash_flash_data+0xf40028e0>
    347c:	d9002f17 	ldw	r4,188(sp)
    3480:	b80b883a 	mov	r5,r23
    3484:	b00d883a 	mov	r6,r22
    3488:	000b2300 	call	b230 <__ssprint_r>
    348c:	103c4b1e 	bne	r2,zero,25bc <__alt_mem_Flash_flash_data+0xf40025bc>
    3490:	d8c02017 	ldw	r3,128(sp)
    3494:	da000404 	addi	r8,sp,16
    3498:	003d0306 	br	28a8 <__alt_mem_Flash_flash_data+0xf40028a8>
    349c:	0025883a 	mov	r18,zero
    34a0:	dd803115 	stw	r22,196(sp)
    34a4:	003ca406 	br	2738 <__alt_mem_Flash_flash_data+0xf4002738>
    34a8:	dc002617 	ldw	r16,152(sp)
    34ac:	0401480e 	bge	zero,r16,39d0 <___svfprintf_internal_r+0x1734>
    34b0:	db003117 	ldw	r12,196(sp)
    34b4:	dac03317 	ldw	r11,204(sp)
    34b8:	62e1883a 	add	r16,r12,r11
    34bc:	db003417 	ldw	r12,208(sp)
    34c0:	5825883a 	mov	r18,r11
    34c4:	62c0010e 	bge	r12,r11,34cc <___svfprintf_internal_r+0x1230>
    34c8:	6025883a 	mov	r18,r12
    34cc:	04800b0e 	bge	zero,r18,34fc <___svfprintf_internal_r+0x1260>
    34d0:	d8801f17 	ldw	r2,124(sp)
    34d4:	dac03117 	ldw	r11,196(sp)
    34d8:	1c87883a 	add	r3,r3,r18
    34dc:	10800044 	addi	r2,r2,1
    34e0:	42c00015 	stw	r11,0(r8)
    34e4:	44800115 	stw	r18,4(r8)
    34e8:	d8c02015 	stw	r3,128(sp)
    34ec:	d8801f15 	stw	r2,124(sp)
    34f0:	010001c4 	movi	r4,7
    34f4:	20823f16 	blt	r4,r2,3df4 <___svfprintf_internal_r+0x1b58>
    34f8:	42000204 	addi	r8,r8,8
    34fc:	90023b16 	blt	r18,zero,3dec <___svfprintf_internal_r+0x1b50>
    3500:	db003417 	ldw	r12,208(sp)
    3504:	64a5c83a 	sub	r18,r12,r18
    3508:	0480780e 	bge	zero,r18,36ec <___svfprintf_internal_r+0x1450>
    350c:	05400404 	movi	r21,16
    3510:	d8801f17 	ldw	r2,124(sp)
    3514:	ac81140e 	bge	r21,r18,3968 <___svfprintf_internal_r+0x16cc>
    3518:	014000b4 	movhi	r5,2
    351c:	297ba284 	addi	r5,r5,-4470
    3520:	d9402b15 	stw	r5,172(sp)
    3524:	070001c4 	movi	fp,7
    3528:	dcc02f17 	ldw	r19,188(sp)
    352c:	00000306 	br	353c <___svfprintf_internal_r+0x12a0>
    3530:	42000204 	addi	r8,r8,8
    3534:	94bffc04 	addi	r18,r18,-16
    3538:	ac810e0e 	bge	r21,r18,3974 <___svfprintf_internal_r+0x16d8>
    353c:	18c00404 	addi	r3,r3,16
    3540:	10800044 	addi	r2,r2,1
    3544:	45000015 	stw	r20,0(r8)
    3548:	45400115 	stw	r21,4(r8)
    354c:	d8c02015 	stw	r3,128(sp)
    3550:	d8801f15 	stw	r2,124(sp)
    3554:	e0bff60e 	bge	fp,r2,3530 <__alt_mem_Flash_flash_data+0xf4003530>
    3558:	9809883a 	mov	r4,r19
    355c:	b80b883a 	mov	r5,r23
    3560:	b00d883a 	mov	r6,r22
    3564:	000b2300 	call	b230 <__ssprint_r>
    3568:	103c141e 	bne	r2,zero,25bc <__alt_mem_Flash_flash_data+0xf40025bc>
    356c:	d8c02017 	ldw	r3,128(sp)
    3570:	d8801f17 	ldw	r2,124(sp)
    3574:	da000404 	addi	r8,sp,16
    3578:	003fee06 	br	3534 <__alt_mem_Flash_flash_data+0xf4003534>
    357c:	d9002f17 	ldw	r4,188(sp)
    3580:	b80b883a 	mov	r5,r23
    3584:	b00d883a 	mov	r6,r22
    3588:	000b2300 	call	b230 <__ssprint_r>
    358c:	103c0b1e 	bne	r2,zero,25bc <__alt_mem_Flash_flash_data+0xf40025bc>
    3590:	d8c02017 	ldw	r3,128(sp)
    3594:	d8802787 	ldb	r2,158(sp)
    3598:	da000404 	addi	r8,sp,16
    359c:	003cb506 	br	2874 <__alt_mem_Flash_flash_data+0xf4002874>
    35a0:	657fffc4 	addi	r21,r12,-1
    35a4:	057f750e 	bge	zero,r21,337c <__alt_mem_Flash_flash_data+0xf400337c>
    35a8:	07000404 	movi	fp,16
    35ac:	e542ed0e 	bge	fp,r21,4164 <___svfprintf_internal_r+0x1ec8>
    35b0:	010000b4 	movhi	r4,2
    35b4:	213ba284 	addi	r4,r4,-4470
    35b8:	d9002b15 	stw	r4,172(sp)
    35bc:	01c001c4 	movi	r7,7
    35c0:	dcc02f17 	ldw	r19,188(sp)
    35c4:	00000306 	br	35d4 <___svfprintf_internal_r+0x1338>
    35c8:	ad7ffc04 	addi	r21,r21,-16
    35cc:	94800204 	addi	r18,r18,8
    35d0:	e540130e 	bge	fp,r21,3620 <___svfprintf_internal_r+0x1384>
    35d4:	18c00404 	addi	r3,r3,16
    35d8:	84000044 	addi	r16,r16,1
    35dc:	95000015 	stw	r20,0(r18)
    35e0:	97000115 	stw	fp,4(r18)
    35e4:	d8c02015 	stw	r3,128(sp)
    35e8:	dc001f15 	stw	r16,124(sp)
    35ec:	3c3ff60e 	bge	r7,r16,35c8 <__alt_mem_Flash_flash_data+0xf40035c8>
    35f0:	9809883a 	mov	r4,r19
    35f4:	b80b883a 	mov	r5,r23
    35f8:	b00d883a 	mov	r6,r22
    35fc:	d9c03e15 	stw	r7,248(sp)
    3600:	000b2300 	call	b230 <__ssprint_r>
    3604:	d9c03e17 	ldw	r7,248(sp)
    3608:	103bec1e 	bne	r2,zero,25bc <__alt_mem_Flash_flash_data+0xf40025bc>
    360c:	ad7ffc04 	addi	r21,r21,-16
    3610:	d8c02017 	ldw	r3,128(sp)
    3614:	dc001f17 	ldw	r16,124(sp)
    3618:	dc800404 	addi	r18,sp,16
    361c:	e57fed16 	blt	fp,r21,35d4 <__alt_mem_Flash_flash_data+0xf40035d4>
    3620:	dac02b17 	ldw	r11,172(sp)
    3624:	1d47883a 	add	r3,r3,r21
    3628:	84000044 	addi	r16,r16,1
    362c:	92c00015 	stw	r11,0(r18)
    3630:	95400115 	stw	r21,4(r18)
    3634:	d8c02015 	stw	r3,128(sp)
    3638:	dc001f15 	stw	r16,124(sp)
    363c:	008001c4 	movi	r2,7
    3640:	143f4d0e 	bge	r2,r16,3378 <__alt_mem_Flash_flash_data+0xf4003378>
    3644:	d9002f17 	ldw	r4,188(sp)
    3648:	b80b883a 	mov	r5,r23
    364c:	b00d883a 	mov	r6,r22
    3650:	000b2300 	call	b230 <__ssprint_r>
    3654:	103bd91e 	bne	r2,zero,25bc <__alt_mem_Flash_flash_data+0xf40025bc>
    3658:	d8c02017 	ldw	r3,128(sp)
    365c:	dc001f17 	ldw	r16,124(sp)
    3660:	dc800404 	addi	r18,sp,16
    3664:	003f4506 	br	337c <__alt_mem_Flash_flash_data+0xf400337c>
    3668:	00800084 	movi	r2,2
    366c:	9f06b03a 	or	r3,r19,fp
    3670:	003d5706 	br	2bd0 <__alt_mem_Flash_flash_data+0xf4002bd0>
    3674:	1cc00017 	ldw	r19,0(r3)
    3678:	dac02d17 	ldw	r11,180(sp)
    367c:	9839d7fa 	srai	fp,r19,31
    3680:	5ac00104 	addi	r11,r11,4
    3684:	dac02d15 	stw	r11,180(sp)
    3688:	e005883a 	mov	r2,fp
    368c:	003c0306 	br	269c <__alt_mem_Flash_flash_data+0xf400269c>
    3690:	dac02d17 	ldw	r11,180(sp)
    3694:	0039883a 	mov	fp,zero
    3698:	0005883a 	mov	r2,zero
    369c:	5cc00017 	ldw	r19,0(r11)
    36a0:	5ac00104 	addi	r11,r11,4
    36a4:	dac02d15 	stw	r11,180(sp)
    36a8:	9807883a 	mov	r3,r19
    36ac:	003d4806 	br	2bd0 <__alt_mem_Flash_flash_data+0xf4002bd0>
    36b0:	db002d17 	ldw	r12,180(sp)
    36b4:	14c00017 	ldw	r19,0(r2)
    36b8:	0039883a 	mov	fp,zero
    36bc:	63000104 	addi	r12,r12,4
    36c0:	db002d15 	stw	r12,180(sp)
    36c4:	00800044 	movi	r2,1
    36c8:	9807883a 	mov	r3,r19
    36cc:	003d4006 	br	2bd0 <__alt_mem_Flash_flash_data+0xf4002bd0>
    36d0:	d9002f17 	ldw	r4,188(sp)
    36d4:	b80b883a 	mov	r5,r23
    36d8:	b00d883a 	mov	r6,r22
    36dc:	000b2300 	call	b230 <__ssprint_r>
    36e0:	103bb61e 	bne	r2,zero,25bc <__alt_mem_Flash_flash_data+0xf40025bc>
    36e4:	d8c02017 	ldw	r3,128(sp)
    36e8:	da000404 	addi	r8,sp,16
    36ec:	db003117 	ldw	r12,196(sp)
    36f0:	dac03417 	ldw	r11,208(sp)
    36f4:	d8802617 	ldw	r2,152(sp)
    36f8:	62e5883a 	add	r18,r12,r11
    36fc:	db003317 	ldw	r12,204(sp)
    3700:	13000216 	blt	r2,r12,370c <___svfprintf_internal_r+0x1470>
    3704:	8900004c 	andi	r4,r17,1
    3708:	20000c26 	beq	r4,zero,373c <___svfprintf_internal_r+0x14a0>
    370c:	dac03917 	ldw	r11,228(sp)
    3710:	d9001f17 	ldw	r4,124(sp)
    3714:	db003517 	ldw	r12,212(sp)
    3718:	1ac7883a 	add	r3,r3,r11
    371c:	21000044 	addi	r4,r4,1
    3720:	43000015 	stw	r12,0(r8)
    3724:	42c00115 	stw	r11,4(r8)
    3728:	d8c02015 	stw	r3,128(sp)
    372c:	d9001f15 	stw	r4,124(sp)
    3730:	014001c4 	movi	r5,7
    3734:	2901b716 	blt	r5,r4,3e14 <___svfprintf_internal_r+0x1b78>
    3738:	42000204 	addi	r8,r8,8
    373c:	dac03317 	ldw	r11,204(sp)
    3740:	8489c83a 	sub	r4,r16,r18
    3744:	5885c83a 	sub	r2,r11,r2
    3748:	1021883a 	mov	r16,r2
    374c:	2080010e 	bge	r4,r2,3754 <___svfprintf_internal_r+0x14b8>
    3750:	2021883a 	mov	r16,r4
    3754:	04000a0e 	bge	zero,r16,3780 <___svfprintf_internal_r+0x14e4>
    3758:	d9001f17 	ldw	r4,124(sp)
    375c:	1c07883a 	add	r3,r3,r16
    3760:	44800015 	stw	r18,0(r8)
    3764:	21000044 	addi	r4,r4,1
    3768:	44000115 	stw	r16,4(r8)
    376c:	d8c02015 	stw	r3,128(sp)
    3770:	d9001f15 	stw	r4,124(sp)
    3774:	014001c4 	movi	r5,7
    3778:	2901bf16 	blt	r5,r4,3e78 <___svfprintf_internal_r+0x1bdc>
    377c:	42000204 	addi	r8,r8,8
    3780:	8001bb16 	blt	r16,zero,3e70 <___svfprintf_internal_r+0x1bd4>
    3784:	1421c83a 	sub	r16,r2,r16
    3788:	043c990e 	bge	zero,r16,29f0 <__alt_mem_Flash_flash_data+0xf40029f0>
    378c:	04800404 	movi	r18,16
    3790:	d8801f17 	ldw	r2,124(sp)
    3794:	943f0b0e 	bge	r18,r16,33c4 <__alt_mem_Flash_flash_data+0xf40033c4>
    3798:	014000b4 	movhi	r5,2
    379c:	297ba284 	addi	r5,r5,-4470
    37a0:	d9402b15 	stw	r5,172(sp)
    37a4:	054001c4 	movi	r21,7
    37a8:	dcc02f17 	ldw	r19,188(sp)
    37ac:	00000306 	br	37bc <___svfprintf_internal_r+0x1520>
    37b0:	42000204 	addi	r8,r8,8
    37b4:	843ffc04 	addi	r16,r16,-16
    37b8:	943f050e 	bge	r18,r16,33d0 <__alt_mem_Flash_flash_data+0xf40033d0>
    37bc:	18c00404 	addi	r3,r3,16
    37c0:	10800044 	addi	r2,r2,1
    37c4:	45000015 	stw	r20,0(r8)
    37c8:	44800115 	stw	r18,4(r8)
    37cc:	d8c02015 	stw	r3,128(sp)
    37d0:	d8801f15 	stw	r2,124(sp)
    37d4:	a8bff60e 	bge	r21,r2,37b0 <__alt_mem_Flash_flash_data+0xf40037b0>
    37d8:	9809883a 	mov	r4,r19
    37dc:	b80b883a 	mov	r5,r23
    37e0:	b00d883a 	mov	r6,r22
    37e4:	000b2300 	call	b230 <__ssprint_r>
    37e8:	103b741e 	bne	r2,zero,25bc <__alt_mem_Flash_flash_data+0xf40025bc>
    37ec:	d8c02017 	ldw	r3,128(sp)
    37f0:	d8801f17 	ldw	r2,124(sp)
    37f4:	da000404 	addi	r8,sp,16
    37f8:	003fee06 	br	37b4 <__alt_mem_Flash_flash_data+0xf40037b4>
    37fc:	8888703a 	and	r4,r17,r2
    3800:	203eb31e 	bne	r4,zero,32d0 <__alt_mem_Flash_flash_data+0xf40032d0>
    3804:	dc001f17 	ldw	r16,124(sp)
    3808:	db003117 	ldw	r12,196(sp)
    380c:	40800115 	stw	r2,4(r8)
    3810:	84000044 	addi	r16,r16,1
    3814:	43000015 	stw	r12,0(r8)
    3818:	d8c02015 	stw	r3,128(sp)
    381c:	dc001f15 	stw	r16,124(sp)
    3820:	008001c4 	movi	r2,7
    3824:	143f8716 	blt	r2,r16,3644 <__alt_mem_Flash_flash_data+0xf4003644>
    3828:	44800204 	addi	r18,r8,8
    382c:	003ed306 	br	337c <__alt_mem_Flash_flash_data+0xf400337c>
    3830:	d9002f17 	ldw	r4,188(sp)
    3834:	b80b883a 	mov	r5,r23
    3838:	b00d883a 	mov	r6,r22
    383c:	000b2300 	call	b230 <__ssprint_r>
    3840:	103b5e1e 	bne	r2,zero,25bc <__alt_mem_Flash_flash_data+0xf40025bc>
    3844:	d8c02017 	ldw	r3,128(sp)
    3848:	dc001f17 	ldw	r16,124(sp)
    384c:	da000404 	addi	r8,sp,16
    3850:	003eaa06 	br	32fc <__alt_mem_Flash_flash_data+0xf40032fc>
    3854:	d9002f17 	ldw	r4,188(sp)
    3858:	b80b883a 	mov	r5,r23
    385c:	b00d883a 	mov	r6,r22
    3860:	000b2300 	call	b230 <__ssprint_r>
    3864:	103b551e 	bne	r2,zero,25bc <__alt_mem_Flash_flash_data+0xf40025bc>
    3868:	d8c02017 	ldw	r3,128(sp)
    386c:	dc001f17 	ldw	r16,124(sp)
    3870:	dc800404 	addi	r18,sp,16
    3874:	003eac06 	br	3328 <__alt_mem_Flash_flash_data+0xf4003328>
    3878:	d9002f17 	ldw	r4,188(sp)
    387c:	b80b883a 	mov	r5,r23
    3880:	b00d883a 	mov	r6,r22
    3884:	000b2300 	call	b230 <__ssprint_r>
    3888:	103b4c1e 	bne	r2,zero,25bc <__alt_mem_Flash_flash_data+0xf40025bc>
    388c:	d8c02017 	ldw	r3,128(sp)
    3890:	da000404 	addi	r8,sp,16
    3894:	003c1506 	br	28ec <__alt_mem_Flash_flash_data+0xf40028ec>
    3898:	da004015 	stw	r8,256(sp)
    389c:	da403f15 	stw	r9,252(sp)
    38a0:	000b02c0 	call	b02c <__fpclassifyd>
    38a4:	da004017 	ldw	r8,256(sp)
    38a8:	da403f17 	ldw	r9,252(sp)
    38ac:	1000951e 	bne	r2,zero,3b04 <___svfprintf_internal_r+0x1868>
    38b0:	008011c4 	movi	r2,71
    38b4:	1400fb16 	blt	r2,r16,3ca4 <___svfprintf_internal_r+0x1a08>
    38b8:	030000b4 	movhi	r12,2
    38bc:	633b9404 	addi	r12,r12,-4528
    38c0:	db003115 	stw	r12,196(sp)
    38c4:	00c000c4 	movi	r3,3
    38c8:	00bfdfc4 	movi	r2,-129
    38cc:	d8c02a15 	stw	r3,168(sp)
    38d0:	88a2703a 	and	r17,r17,r2
    38d4:	dd402783 	ldbu	r21,158(sp)
    38d8:	dcc02d15 	stw	r19,180(sp)
    38dc:	1825883a 	mov	r18,r3
    38e0:	d8003215 	stw	zero,200(sp)
    38e4:	d8003415 	stw	zero,208(sp)
    38e8:	003b9806 	br	274c <__alt_mem_Flash_flash_data+0xf400274c>
    38ec:	1c000007 	ldb	r16,0(r3)
    38f0:	1805883a 	mov	r2,r3
    38f4:	003abf06 	br	23f4 <__alt_mem_Flash_flash_data+0xf40023f4>
    38f8:	00800084 	movi	r2,2
    38fc:	003cb406 	br	2bd0 <__alt_mem_Flash_flash_data+0xf4002bd0>
    3900:	88c0100c 	andi	r3,r17,64
    3904:	1800f626 	beq	r3,zero,3ce0 <___svfprintf_internal_r+0x1a44>
    3908:	dac02d17 	ldw	r11,180(sp)
    390c:	14c0000b 	ldhu	r19,0(r2)
    3910:	0039883a 	mov	fp,zero
    3914:	5ac00104 	addi	r11,r11,4
    3918:	dac02d15 	stw	r11,180(sp)
    391c:	003cbd06 	br	2c14 <__alt_mem_Flash_flash_data+0xf4002c14>
    3920:	8880040c 	andi	r2,r17,16
    3924:	1000091e 	bne	r2,zero,394c <___svfprintf_internal_r+0x16b0>
    3928:	8c40100c 	andi	r17,r17,64
    392c:	88000726 	beq	r17,zero,394c <___svfprintf_internal_r+0x16b0>
    3930:	db002d17 	ldw	r12,180(sp)
    3934:	dac03017 	ldw	r11,192(sp)
    3938:	60800017 	ldw	r2,0(r12)
    393c:	63000104 	addi	r12,r12,4
    3940:	db002d15 	stw	r12,180(sp)
    3944:	12c0000d 	sth	r11,0(r2)
    3948:	003a8006 	br	234c <__alt_mem_Flash_flash_data+0xf400234c>
    394c:	db002d17 	ldw	r12,180(sp)
    3950:	dac03017 	ldw	r11,192(sp)
    3954:	60800017 	ldw	r2,0(r12)
    3958:	63000104 	addi	r12,r12,4
    395c:	db002d15 	stw	r12,180(sp)
    3960:	12c00015 	stw	r11,0(r2)
    3964:	003a7906 	br	234c <__alt_mem_Flash_flash_data+0xf400234c>
    3968:	010000b4 	movhi	r4,2
    396c:	213ba284 	addi	r4,r4,-4470
    3970:	d9002b15 	stw	r4,172(sp)
    3974:	dac02b17 	ldw	r11,172(sp)
    3978:	1c87883a 	add	r3,r3,r18
    397c:	10800044 	addi	r2,r2,1
    3980:	42c00015 	stw	r11,0(r8)
    3984:	44800115 	stw	r18,4(r8)
    3988:	d8c02015 	stw	r3,128(sp)
    398c:	d8801f15 	stw	r2,124(sp)
    3990:	010001c4 	movi	r4,7
    3994:	20bf4e16 	blt	r4,r2,36d0 <__alt_mem_Flash_flash_data+0xf40036d0>
    3998:	42000204 	addi	r8,r8,8
    399c:	003f5306 	br	36ec <__alt_mem_Flash_flash_data+0xf40036ec>
    39a0:	010000b4 	movhi	r4,2
    39a4:	213ba284 	addi	r4,r4,-4470
    39a8:	d9002b15 	stw	r4,172(sp)
    39ac:	003bf906 	br	2994 <__alt_mem_Flash_flash_data+0xf4002994>
    39b0:	d9002f17 	ldw	r4,188(sp)
    39b4:	b80b883a 	mov	r5,r23
    39b8:	b00d883a 	mov	r6,r22
    39bc:	000b2300 	call	b230 <__ssprint_r>
    39c0:	103afe1e 	bne	r2,zero,25bc <__alt_mem_Flash_flash_data+0xf40025bc>
    39c4:	d8c02017 	ldw	r3,128(sp)
    39c8:	da000404 	addi	r8,sp,16
    39cc:	003dc606 	br	30e8 <__alt_mem_Flash_flash_data+0xf40030e8>
    39d0:	d8801f17 	ldw	r2,124(sp)
    39d4:	030000b4 	movhi	r12,2
    39d8:	01000044 	movi	r4,1
    39dc:	18c00044 	addi	r3,r3,1
    39e0:	10800044 	addi	r2,r2,1
    39e4:	633ba204 	addi	r12,r12,-4472
    39e8:	41000115 	stw	r4,4(r8)
    39ec:	43000015 	stw	r12,0(r8)
    39f0:	d8c02015 	stw	r3,128(sp)
    39f4:	d8801f15 	stw	r2,124(sp)
    39f8:	010001c4 	movi	r4,7
    39fc:	2080ad16 	blt	r4,r2,3cb4 <___svfprintf_internal_r+0x1a18>
    3a00:	42000204 	addi	r8,r8,8
    3a04:	8000041e 	bne	r16,zero,3a18 <___svfprintf_internal_r+0x177c>
    3a08:	dac03317 	ldw	r11,204(sp)
    3a0c:	5800021e 	bne	r11,zero,3a18 <___svfprintf_internal_r+0x177c>
    3a10:	8880004c 	andi	r2,r17,1
    3a14:	103bf626 	beq	r2,zero,29f0 <__alt_mem_Flash_flash_data+0xf40029f0>
    3a18:	db003917 	ldw	r12,228(sp)
    3a1c:	d8801f17 	ldw	r2,124(sp)
    3a20:	dac03517 	ldw	r11,212(sp)
    3a24:	1b07883a 	add	r3,r3,r12
    3a28:	10800044 	addi	r2,r2,1
    3a2c:	42c00015 	stw	r11,0(r8)
    3a30:	43000115 	stw	r12,4(r8)
    3a34:	d8c02015 	stw	r3,128(sp)
    3a38:	d8801f15 	stw	r2,124(sp)
    3a3c:	010001c4 	movi	r4,7
    3a40:	20818616 	blt	r4,r2,405c <___svfprintf_internal_r+0x1dc0>
    3a44:	42000204 	addi	r8,r8,8
    3a48:	0421c83a 	sub	r16,zero,r16
    3a4c:	0400bc0e 	bge	zero,r16,3d40 <___svfprintf_internal_r+0x1aa4>
    3a50:	04800404 	movi	r18,16
    3a54:	9400f80e 	bge	r18,r16,3e38 <___svfprintf_internal_r+0x1b9c>
    3a58:	010000b4 	movhi	r4,2
    3a5c:	213ba284 	addi	r4,r4,-4470
    3a60:	d9002b15 	stw	r4,172(sp)
    3a64:	054001c4 	movi	r21,7
    3a68:	dcc02f17 	ldw	r19,188(sp)
    3a6c:	00000306 	br	3a7c <___svfprintf_internal_r+0x17e0>
    3a70:	42000204 	addi	r8,r8,8
    3a74:	843ffc04 	addi	r16,r16,-16
    3a78:	9400f20e 	bge	r18,r16,3e44 <___svfprintf_internal_r+0x1ba8>
    3a7c:	18c00404 	addi	r3,r3,16
    3a80:	10800044 	addi	r2,r2,1
    3a84:	45000015 	stw	r20,0(r8)
    3a88:	44800115 	stw	r18,4(r8)
    3a8c:	d8c02015 	stw	r3,128(sp)
    3a90:	d8801f15 	stw	r2,124(sp)
    3a94:	a8bff60e 	bge	r21,r2,3a70 <__alt_mem_Flash_flash_data+0xf4003a70>
    3a98:	9809883a 	mov	r4,r19
    3a9c:	b80b883a 	mov	r5,r23
    3aa0:	b00d883a 	mov	r6,r22
    3aa4:	000b2300 	call	b230 <__ssprint_r>
    3aa8:	103ac41e 	bne	r2,zero,25bc <__alt_mem_Flash_flash_data+0xf40025bc>
    3aac:	d8c02017 	ldw	r3,128(sp)
    3ab0:	d8801f17 	ldw	r2,124(sp)
    3ab4:	da000404 	addi	r8,sp,16
    3ab8:	003fee06 	br	3a74 <__alt_mem_Flash_flash_data+0xf4003a74>
    3abc:	db002e17 	ldw	r12,184(sp)
    3ac0:	1805883a 	mov	r2,r3
    3ac4:	dac02d15 	stw	r11,180(sp)
    3ac8:	0319c83a 	sub	r12,zero,r12
    3acc:	db002e15 	stw	r12,184(sp)
    3ad0:	003acf06 	br	2610 <__alt_mem_Flash_flash_data+0xf4002610>
    3ad4:	18800044 	addi	r2,r3,1
    3ad8:	8c400814 	ori	r17,r17,32
    3adc:	1c000047 	ldb	r16,1(r3)
    3ae0:	003a4406 	br	23f4 <__alt_mem_Flash_flash_data+0xf40023f4>
    3ae4:	d9002f17 	ldw	r4,188(sp)
    3ae8:	b80b883a 	mov	r5,r23
    3aec:	b00d883a 	mov	r6,r22
    3af0:	000b2300 	call	b230 <__ssprint_r>
    3af4:	103ab11e 	bne	r2,zero,25bc <__alt_mem_Flash_flash_data+0xf40025bc>
    3af8:	d8c02017 	ldw	r3,128(sp)
    3afc:	da000404 	addi	r8,sp,16
    3b00:	003d8a06 	br	312c <__alt_mem_Flash_flash_data+0xf400312c>
    3b04:	057ff7c4 	movi	r21,-33
    3b08:	00bfffc4 	movi	r2,-1
    3b0c:	856a703a 	and	r21,r16,r21
    3b10:	48807126 	beq	r9,r2,3cd8 <___svfprintf_internal_r+0x1a3c>
    3b14:	008011c4 	movi	r2,71
    3b18:	a8814d26 	beq	r21,r2,4050 <___svfprintf_internal_r+0x1db4>
    3b1c:	db003817 	ldw	r12,224(sp)
    3b20:	8ac04014 	ori	r11,r17,256
    3b24:	dac02d15 	stw	r11,180(sp)
    3b28:	60015616 	blt	r12,zero,4084 <___svfprintf_internal_r+0x1de8>
    3b2c:	dc803817 	ldw	r18,224(sp)
    3b30:	d8002a05 	stb	zero,168(sp)
    3b34:	00801984 	movi	r2,102
    3b38:	80808c26 	beq	r16,r2,3d6c <___svfprintf_internal_r+0x1ad0>
    3b3c:	00801184 	movi	r2,70
    3b40:	80808a26 	beq	r16,r2,3d6c <___svfprintf_internal_r+0x1ad0>
    3b44:	00801144 	movi	r2,69
    3b48:	a8815226 	beq	r21,r2,4094 <___svfprintf_internal_r+0x1df8>
    3b4c:	4839883a 	mov	fp,r9
    3b50:	d8802604 	addi	r2,sp,152
    3b54:	d8800115 	stw	r2,4(sp)
    3b58:	d9002f17 	ldw	r4,188(sp)
    3b5c:	d8802504 	addi	r2,sp,148
    3b60:	d9403717 	ldw	r5,220(sp)
    3b64:	d8800215 	stw	r2,8(sp)
    3b68:	d8802104 	addi	r2,sp,132
    3b6c:	df000015 	stw	fp,0(sp)
    3b70:	d8800315 	stw	r2,12(sp)
    3b74:	900d883a 	mov	r6,r18
    3b78:	01c00084 	movi	r7,2
    3b7c:	da004015 	stw	r8,256(sp)
    3b80:	da403f15 	stw	r9,252(sp)
    3b84:	00065b00 	call	65b0 <_dtoa_r>
    3b88:	d8803115 	stw	r2,196(sp)
    3b8c:	008019c4 	movi	r2,103
    3b90:	da004017 	ldw	r8,256(sp)
    3b94:	da403f17 	ldw	r9,252(sp)
    3b98:	80800226 	beq	r16,r2,3ba4 <___svfprintf_internal_r+0x1908>
    3b9c:	008011c4 	movi	r2,71
    3ba0:	8080841e 	bne	r16,r2,3db4 <___svfprintf_internal_r+0x1b18>
    3ba4:	8880004c 	andi	r2,r17,1
    3ba8:	10014f26 	beq	r2,zero,40e8 <___svfprintf_internal_r+0x1e4c>
    3bac:	db003117 	ldw	r12,196(sp)
    3bb0:	6715883a 	add	r10,r12,fp
    3bb4:	d9003717 	ldw	r4,220(sp)
    3bb8:	900b883a 	mov	r5,r18
    3bbc:	000d883a 	mov	r6,zero
    3bc0:	000f883a 	mov	r7,zero
    3bc4:	da004015 	stw	r8,256(sp)
    3bc8:	da403f15 	stw	r9,252(sp)
    3bcc:	da803e15 	stw	r10,248(sp)
    3bd0:	000ffd40 	call	ffd4 <__eqdf2>
    3bd4:	da004017 	ldw	r8,256(sp)
    3bd8:	da403f17 	ldw	r9,252(sp)
    3bdc:	da803e17 	ldw	r10,248(sp)
    3be0:	1000d926 	beq	r2,zero,3f48 <___svfprintf_internal_r+0x1cac>
    3be4:	d8802117 	ldw	r2,132(sp)
    3be8:	1280062e 	bgeu	r2,r10,3c04 <___svfprintf_internal_r+0x1968>
    3bec:	01000c04 	movi	r4,48
    3bf0:	10c00044 	addi	r3,r2,1
    3bf4:	d8c02115 	stw	r3,132(sp)
    3bf8:	11000005 	stb	r4,0(r2)
    3bfc:	d8802117 	ldw	r2,132(sp)
    3c00:	12bffb36 	bltu	r2,r10,3bf0 <__alt_mem_Flash_flash_data+0xf4003bf0>
    3c04:	db003117 	ldw	r12,196(sp)
    3c08:	1305c83a 	sub	r2,r2,r12
    3c0c:	d8803315 	stw	r2,204(sp)
    3c10:	008011c4 	movi	r2,71
    3c14:	a880b626 	beq	r21,r2,3ef0 <___svfprintf_internal_r+0x1c54>
    3c18:	00801944 	movi	r2,101
    3c1c:	14017c0e 	bge	r2,r16,4210 <___svfprintf_internal_r+0x1f74>
    3c20:	00801984 	movi	r2,102
    3c24:	80812626 	beq	r16,r2,40c0 <___svfprintf_internal_r+0x1e24>
    3c28:	db002617 	ldw	r12,152(sp)
    3c2c:	db003415 	stw	r12,208(sp)
    3c30:	db003417 	ldw	r12,208(sp)
    3c34:	dac03317 	ldw	r11,204(sp)
    3c38:	62c11816 	blt	r12,r11,409c <___svfprintf_internal_r+0x1e00>
    3c3c:	8c40004c 	andi	r17,r17,1
    3c40:	88013b1e 	bne	r17,zero,4130 <___svfprintf_internal_r+0x1e94>
    3c44:	6005883a 	mov	r2,r12
    3c48:	60012516 	blt	r12,zero,40e0 <___svfprintf_internal_r+0x1e44>
    3c4c:	dc803417 	ldw	r18,208(sp)
    3c50:	df002a07 	ldb	fp,168(sp)
    3c54:	e000b01e 	bne	fp,zero,3f18 <___svfprintf_internal_r+0x1c7c>
    3c58:	dc402d17 	ldw	r17,180(sp)
    3c5c:	dd402783 	ldbu	r21,158(sp)
    3c60:	d8802a15 	stw	r2,168(sp)
    3c64:	dcc02d15 	stw	r19,180(sp)
    3c68:	d8003215 	stw	zero,200(sp)
    3c6c:	003ab706 	br	274c <__alt_mem_Flash_flash_data+0xf400274c>
    3c70:	008000b4 	movhi	r2,2
    3c74:	10bb9204 	addi	r2,r2,-4536
    3c78:	d8803115 	stw	r2,196(sp)
    3c7c:	003bbb06 	br	2b6c <__alt_mem_Flash_flash_data+0xf4002b6c>
    3c80:	d9002f17 	ldw	r4,188(sp)
    3c84:	04001004 	movi	r16,64
    3c88:	800b883a 	mov	r5,r16
    3c8c:	00090000 	call	9000 <_malloc_r>
    3c90:	b8800015 	stw	r2,0(r23)
    3c94:	b8800415 	stw	r2,16(r23)
    3c98:	10015f26 	beq	r2,zero,4218 <___svfprintf_internal_r+0x1f7c>
    3c9c:	bc000515 	stw	r16,20(r23)
    3ca0:	00399806 	br	2304 <__alt_mem_Flash_flash_data+0xf4002304>
    3ca4:	008000b4 	movhi	r2,2
    3ca8:	10bb9504 	addi	r2,r2,-4524
    3cac:	d8803115 	stw	r2,196(sp)
    3cb0:	003f0406 	br	38c4 <__alt_mem_Flash_flash_data+0xf40038c4>
    3cb4:	d9002f17 	ldw	r4,188(sp)
    3cb8:	b80b883a 	mov	r5,r23
    3cbc:	b00d883a 	mov	r6,r22
    3cc0:	000b2300 	call	b230 <__ssprint_r>
    3cc4:	103a3d1e 	bne	r2,zero,25bc <__alt_mem_Flash_flash_data+0xf40025bc>
    3cc8:	dc002617 	ldw	r16,152(sp)
    3ccc:	d8c02017 	ldw	r3,128(sp)
    3cd0:	da000404 	addi	r8,sp,16
    3cd4:	003f4b06 	br	3a04 <__alt_mem_Flash_flash_data+0xf4003a04>
    3cd8:	02400184 	movi	r9,6
    3cdc:	003f8f06 	br	3b1c <__alt_mem_Flash_flash_data+0xf4003b1c>
    3ce0:	db002d17 	ldw	r12,180(sp)
    3ce4:	14c00017 	ldw	r19,0(r2)
    3ce8:	0039883a 	mov	fp,zero
    3cec:	63000104 	addi	r12,r12,4
    3cf0:	db002d15 	stw	r12,180(sp)
    3cf4:	003bc706 	br	2c14 <__alt_mem_Flash_flash_data+0xf4002c14>
    3cf8:	d8c03117 	ldw	r3,196(sp)
    3cfc:	b0e5c83a 	sub	r18,r22,r3
    3d00:	003a8d06 	br	2738 <__alt_mem_Flash_flash_data+0xf4002738>
    3d04:	da004015 	stw	r8,256(sp)
    3d08:	00022040 	call	2204 <strlen>
    3d0c:	1025883a 	mov	r18,r2
    3d10:	da004017 	ldw	r8,256(sp)
    3d14:	903bf20e 	bge	r18,zero,2ce0 <__alt_mem_Flash_flash_data+0xf4002ce0>
    3d18:	0005883a 	mov	r2,zero
    3d1c:	003bf006 	br	2ce0 <__alt_mem_Flash_flash_data+0xf4002ce0>
    3d20:	d9002f17 	ldw	r4,188(sp)
    3d24:	b80b883a 	mov	r5,r23
    3d28:	b00d883a 	mov	r6,r22
    3d2c:	000b2300 	call	b230 <__ssprint_r>
    3d30:	103a221e 	bne	r2,zero,25bc <__alt_mem_Flash_flash_data+0xf40025bc>
    3d34:	d8c02017 	ldw	r3,128(sp)
    3d38:	d8801f17 	ldw	r2,124(sp)
    3d3c:	da000404 	addi	r8,sp,16
    3d40:	db003317 	ldw	r12,204(sp)
    3d44:	dac03117 	ldw	r11,196(sp)
    3d48:	10800044 	addi	r2,r2,1
    3d4c:	1b07883a 	add	r3,r3,r12
    3d50:	42c00015 	stw	r11,0(r8)
    3d54:	43000115 	stw	r12,4(r8)
    3d58:	d8c02015 	stw	r3,128(sp)
    3d5c:	d8801f15 	stw	r2,124(sp)
    3d60:	010001c4 	movi	r4,7
    3d64:	20bb210e 	bge	r4,r2,29ec <__alt_mem_Flash_flash_data+0xf40029ec>
    3d68:	003da206 	br	33f4 <__alt_mem_Flash_flash_data+0xf40033f4>
    3d6c:	d8802604 	addi	r2,sp,152
    3d70:	d8800115 	stw	r2,4(sp)
    3d74:	d9002f17 	ldw	r4,188(sp)
    3d78:	d8802504 	addi	r2,sp,148
    3d7c:	d9403717 	ldw	r5,220(sp)
    3d80:	d8800215 	stw	r2,8(sp)
    3d84:	d8802104 	addi	r2,sp,132
    3d88:	da400015 	stw	r9,0(sp)
    3d8c:	d8800315 	stw	r2,12(sp)
    3d90:	900d883a 	mov	r6,r18
    3d94:	01c000c4 	movi	r7,3
    3d98:	da004015 	stw	r8,256(sp)
    3d9c:	da403f15 	stw	r9,252(sp)
    3da0:	00065b00 	call	65b0 <_dtoa_r>
    3da4:	da403f17 	ldw	r9,252(sp)
    3da8:	da004017 	ldw	r8,256(sp)
    3dac:	d8803115 	stw	r2,196(sp)
    3db0:	4839883a 	mov	fp,r9
    3db4:	dac03117 	ldw	r11,196(sp)
    3db8:	00801184 	movi	r2,70
    3dbc:	5f15883a 	add	r10,r11,fp
    3dc0:	a8bf7c1e 	bne	r21,r2,3bb4 <__alt_mem_Flash_flash_data+0xf4003bb4>
    3dc4:	59000007 	ldb	r4,0(r11)
    3dc8:	00800c04 	movi	r2,48
    3dcc:	2080c826 	beq	r4,r2,40f0 <___svfprintf_internal_r+0x1e54>
    3dd0:	d8c02617 	ldw	r3,152(sp)
    3dd4:	50d5883a 	add	r10,r10,r3
    3dd8:	003f7606 	br	3bb4 <__alt_mem_Flash_flash_data+0xf4003bb4>
    3ddc:	010000b4 	movhi	r4,2
    3de0:	213ba684 	addi	r4,r4,-4454
    3de4:	d9003615 	stw	r4,216(sp)
    3de8:	003a9706 	br	2848 <__alt_mem_Flash_flash_data+0xf4002848>
    3dec:	0025883a 	mov	r18,zero
    3df0:	003dc306 	br	3500 <__alt_mem_Flash_flash_data+0xf4003500>
    3df4:	d9002f17 	ldw	r4,188(sp)
    3df8:	b80b883a 	mov	r5,r23
    3dfc:	b00d883a 	mov	r6,r22
    3e00:	000b2300 	call	b230 <__ssprint_r>
    3e04:	1039ed1e 	bne	r2,zero,25bc <__alt_mem_Flash_flash_data+0xf40025bc>
    3e08:	d8c02017 	ldw	r3,128(sp)
    3e0c:	da000404 	addi	r8,sp,16
    3e10:	003dba06 	br	34fc <__alt_mem_Flash_flash_data+0xf40034fc>
    3e14:	d9002f17 	ldw	r4,188(sp)
    3e18:	b80b883a 	mov	r5,r23
    3e1c:	b00d883a 	mov	r6,r22
    3e20:	000b2300 	call	b230 <__ssprint_r>
    3e24:	1039e51e 	bne	r2,zero,25bc <__alt_mem_Flash_flash_data+0xf40025bc>
    3e28:	d8802617 	ldw	r2,152(sp)
    3e2c:	d8c02017 	ldw	r3,128(sp)
    3e30:	da000404 	addi	r8,sp,16
    3e34:	003e4106 	br	373c <__alt_mem_Flash_flash_data+0xf400373c>
    3e38:	030000b4 	movhi	r12,2
    3e3c:	633ba284 	addi	r12,r12,-4470
    3e40:	db002b15 	stw	r12,172(sp)
    3e44:	dac02b17 	ldw	r11,172(sp)
    3e48:	1c07883a 	add	r3,r3,r16
    3e4c:	10800044 	addi	r2,r2,1
    3e50:	42c00015 	stw	r11,0(r8)
    3e54:	44000115 	stw	r16,4(r8)
    3e58:	d8c02015 	stw	r3,128(sp)
    3e5c:	d8801f15 	stw	r2,124(sp)
    3e60:	010001c4 	movi	r4,7
    3e64:	20bfae16 	blt	r4,r2,3d20 <__alt_mem_Flash_flash_data+0xf4003d20>
    3e68:	42000204 	addi	r8,r8,8
    3e6c:	003fb406 	br	3d40 <__alt_mem_Flash_flash_data+0xf4003d40>
    3e70:	0021883a 	mov	r16,zero
    3e74:	003e4306 	br	3784 <__alt_mem_Flash_flash_data+0xf4003784>
    3e78:	d9002f17 	ldw	r4,188(sp)
    3e7c:	b80b883a 	mov	r5,r23
    3e80:	b00d883a 	mov	r6,r22
    3e84:	000b2300 	call	b230 <__ssprint_r>
    3e88:	1039cc1e 	bne	r2,zero,25bc <__alt_mem_Flash_flash_data+0xf40025bc>
    3e8c:	d8802617 	ldw	r2,152(sp)
    3e90:	db003317 	ldw	r12,204(sp)
    3e94:	d8c02017 	ldw	r3,128(sp)
    3e98:	da000404 	addi	r8,sp,16
    3e9c:	6085c83a 	sub	r2,r12,r2
    3ea0:	003e3706 	br	3780 <__alt_mem_Flash_flash_data+0xf4003780>
    3ea4:	00800184 	movi	r2,6
    3ea8:	1240012e 	bgeu	r2,r9,3eb0 <___svfprintf_internal_r+0x1c14>
    3eac:	1013883a 	mov	r9,r2
    3eb0:	4825883a 	mov	r18,r9
    3eb4:	4805883a 	mov	r2,r9
    3eb8:	4800a216 	blt	r9,zero,4144 <___svfprintf_internal_r+0x1ea8>
    3ebc:	d8802a15 	stw	r2,168(sp)
    3ec0:	008000b4 	movhi	r2,2
    3ec4:	10bba004 	addi	r2,r2,-4480
    3ec8:	d8803115 	stw	r2,196(sp)
    3ecc:	dcc02d15 	stw	r19,180(sp)
    3ed0:	d8003215 	stw	zero,200(sp)
    3ed4:	d8003415 	stw	zero,208(sp)
    3ed8:	0005883a 	mov	r2,zero
    3edc:	003a2206 	br	2768 <__alt_mem_Flash_flash_data+0xf4002768>
    3ee0:	030000b4 	movhi	r12,2
    3ee4:	633ba684 	addi	r12,r12,-4454
    3ee8:	db003615 	stw	r12,216(sp)
    3eec:	003ae506 	br	2a84 <__alt_mem_Flash_flash_data+0xf4002a84>
    3ef0:	d8c02617 	ldw	r3,152(sp)
    3ef4:	00bfff44 	movi	r2,-3
    3ef8:	18801516 	blt	r3,r2,3f50 <___svfprintf_internal_r+0x1cb4>
    3efc:	48c01416 	blt	r9,r3,3f50 <___svfprintf_internal_r+0x1cb4>
    3f00:	d8c03415 	stw	r3,208(sp)
    3f04:	040019c4 	movi	r16,103
    3f08:	003f4906 	br	3c30 <__alt_mem_Flash_flash_data+0xf4003c30>
    3f0c:	05400b44 	movi	r21,45
    3f10:	dd402785 	stb	r21,158(sp)
    3f14:	003b1006 	br	2b58 <__alt_mem_Flash_flash_data+0xf4002b58>
    3f18:	00c00b44 	movi	r3,45
    3f1c:	d8802a15 	stw	r2,168(sp)
    3f20:	dc402d17 	ldw	r17,180(sp)
    3f24:	d8c02785 	stb	r3,158(sp)
    3f28:	dcc02d15 	stw	r19,180(sp)
    3f2c:	d8003215 	stw	zero,200(sp)
    3f30:	00800b44 	movi	r2,45
    3f34:	003a0906 	br	275c <__alt_mem_Flash_flash_data+0xf400275c>
    3f38:	010000b4 	movhi	r4,2
    3f3c:	213ba284 	addi	r4,r4,-4470
    3f40:	d9002b15 	stw	r4,172(sp)
    3f44:	003cc306 	br	3254 <__alt_mem_Flash_flash_data+0xf4003254>
    3f48:	5005883a 	mov	r2,r10
    3f4c:	003f2d06 	br	3c04 <__alt_mem_Flash_flash_data+0xf4003c04>
    3f50:	843fff84 	addi	r16,r16,-2
    3f54:	1f3fffc4 	addi	fp,r3,-1
    3f58:	df002615 	stw	fp,152(sp)
    3f5c:	dc0022c5 	stb	r16,139(sp)
    3f60:	e000a016 	blt	fp,zero,41e4 <___svfprintf_internal_r+0x1f48>
    3f64:	00800ac4 	movi	r2,43
    3f68:	d8802305 	stb	r2,140(sp)
    3f6c:	00800244 	movi	r2,9
    3f70:	1700800e 	bge	r2,fp,4174 <___svfprintf_internal_r+0x1ed8>
    3f74:	dd4022c4 	addi	r21,sp,139
    3f78:	dc002b15 	stw	r16,172(sp)
    3f7c:	4025883a 	mov	r18,r8
    3f80:	a821883a 	mov	r16,r21
    3f84:	e009883a 	mov	r4,fp
    3f88:	01400284 	movi	r5,10
    3f8c:	000ee000 	call	ee00 <__modsi3>
    3f90:	10800c04 	addi	r2,r2,48
    3f94:	843fffc4 	addi	r16,r16,-1
    3f98:	e009883a 	mov	r4,fp
    3f9c:	01400284 	movi	r5,10
    3fa0:	80800005 	stb	r2,0(r16)
    3fa4:	000edac0 	call	edac <__divsi3>
    3fa8:	1039883a 	mov	fp,r2
    3fac:	00800244 	movi	r2,9
    3fb0:	173ff416 	blt	r2,fp,3f84 <__alt_mem_Flash_flash_data+0xf4003f84>
    3fb4:	9011883a 	mov	r8,r18
    3fb8:	e0800c04 	addi	r2,fp,48
    3fbc:	8025883a 	mov	r18,r16
    3fc0:	913fffc4 	addi	r4,r18,-1
    3fc4:	90bfffc5 	stb	r2,-1(r18)
    3fc8:	dc002b17 	ldw	r16,172(sp)
    3fcc:	25408e2e 	bgeu	r4,r21,4208 <___svfprintf_internal_r+0x1f6c>
    3fd0:	d9402384 	addi	r5,sp,142
    3fd4:	2c8bc83a 	sub	r5,r5,r18
    3fd8:	d8c02344 	addi	r3,sp,141
    3fdc:	a94b883a 	add	r5,r21,r5
    3fe0:	00000106 	br	3fe8 <___svfprintf_internal_r+0x1d4c>
    3fe4:	20800003 	ldbu	r2,0(r4)
    3fe8:	18800005 	stb	r2,0(r3)
    3fec:	18c00044 	addi	r3,r3,1
    3ff0:	21000044 	addi	r4,r4,1
    3ff4:	197ffb1e 	bne	r3,r5,3fe4 <__alt_mem_Flash_flash_data+0xf4003fe4>
    3ff8:	d8802304 	addi	r2,sp,140
    3ffc:	1485c83a 	sub	r2,r2,r18
    4000:	d8c02344 	addi	r3,sp,141
    4004:	1885883a 	add	r2,r3,r2
    4008:	dac03317 	ldw	r11,204(sp)
    400c:	156bc83a 	sub	r21,r2,r21
    4010:	dd403a15 	stw	r21,232(sp)
    4014:	00800044 	movi	r2,1
    4018:	5d65883a 	add	r18,r11,r21
    401c:	12c0770e 	bge	r2,r11,41fc <___svfprintf_internal_r+0x1f60>
    4020:	94800044 	addi	r18,r18,1
    4024:	9005883a 	mov	r2,r18
    4028:	90007216 	blt	r18,zero,41f4 <___svfprintf_internal_r+0x1f58>
    402c:	d8003415 	stw	zero,208(sp)
    4030:	003f0706 	br	3c50 <__alt_mem_Flash_flash_data+0xf4003c50>
    4034:	da402a15 	stw	r9,168(sp)
    4038:	dd402783 	ldbu	r21,158(sp)
    403c:	4825883a 	mov	r18,r9
    4040:	dcc02d15 	stw	r19,180(sp)
    4044:	d8003215 	stw	zero,200(sp)
    4048:	d8003415 	stw	zero,208(sp)
    404c:	0039bf06 	br	274c <__alt_mem_Flash_flash_data+0xf400274c>
    4050:	483eb21e 	bne	r9,zero,3b1c <__alt_mem_Flash_flash_data+0xf4003b1c>
    4054:	9013883a 	mov	r9,r18
    4058:	003eb006 	br	3b1c <__alt_mem_Flash_flash_data+0xf4003b1c>
    405c:	d9002f17 	ldw	r4,188(sp)
    4060:	b80b883a 	mov	r5,r23
    4064:	b00d883a 	mov	r6,r22
    4068:	000b2300 	call	b230 <__ssprint_r>
    406c:	1039531e 	bne	r2,zero,25bc <__alt_mem_Flash_flash_data+0xf40025bc>
    4070:	dc002617 	ldw	r16,152(sp)
    4074:	d8c02017 	ldw	r3,128(sp)
    4078:	d8801f17 	ldw	r2,124(sp)
    407c:	da000404 	addi	r8,sp,16
    4080:	003e7106 	br	3a48 <__alt_mem_Flash_flash_data+0xf4003a48>
    4084:	00c00b44 	movi	r3,45
    4088:	64a0003c 	xorhi	r18,r12,32768
    408c:	d8c02a05 	stb	r3,168(sp)
    4090:	003ea806 	br	3b34 <__alt_mem_Flash_flash_data+0xf4003b34>
    4094:	4f000044 	addi	fp,r9,1
    4098:	003ead06 	br	3b50 <__alt_mem_Flash_flash_data+0xf4003b50>
    409c:	d8c03417 	ldw	r3,208(sp)
    40a0:	00c0410e 	bge	zero,r3,41a8 <___svfprintf_internal_r+0x1f0c>
    40a4:	04800044 	movi	r18,1
    40a8:	dac03317 	ldw	r11,204(sp)
    40ac:	92e5883a 	add	r18,r18,r11
    40b0:	9005883a 	mov	r2,r18
    40b4:	903ee60e 	bge	r18,zero,3c50 <__alt_mem_Flash_flash_data+0xf4003c50>
    40b8:	0005883a 	mov	r2,zero
    40bc:	003ee406 	br	3c50 <__alt_mem_Flash_flash_data+0xf4003c50>
    40c0:	d8c02617 	ldw	r3,152(sp)
    40c4:	d8c03415 	stw	r3,208(sp)
    40c8:	00c0310e 	bge	zero,r3,4190 <___svfprintf_internal_r+0x1ef4>
    40cc:	48001f1e 	bne	r9,zero,414c <___svfprintf_internal_r+0x1eb0>
    40d0:	8c40004c 	andi	r17,r17,1
    40d4:	88001d1e 	bne	r17,zero,414c <___svfprintf_internal_r+0x1eb0>
    40d8:	1805883a 	mov	r2,r3
    40dc:	183edb0e 	bge	r3,zero,3c4c <__alt_mem_Flash_flash_data+0xf4003c4c>
    40e0:	0005883a 	mov	r2,zero
    40e4:	003ed906 	br	3c4c <__alt_mem_Flash_flash_data+0xf4003c4c>
    40e8:	d8802117 	ldw	r2,132(sp)
    40ec:	003ec506 	br	3c04 <__alt_mem_Flash_flash_data+0xf4003c04>
    40f0:	d9003717 	ldw	r4,220(sp)
    40f4:	900b883a 	mov	r5,r18
    40f8:	000d883a 	mov	r6,zero
    40fc:	000f883a 	mov	r7,zero
    4100:	da004015 	stw	r8,256(sp)
    4104:	da403f15 	stw	r9,252(sp)
    4108:	da803e15 	stw	r10,248(sp)
    410c:	000ffd40 	call	ffd4 <__eqdf2>
    4110:	da004017 	ldw	r8,256(sp)
    4114:	da403f17 	ldw	r9,252(sp)
    4118:	da803e17 	ldw	r10,248(sp)
    411c:	103f2c26 	beq	r2,zero,3dd0 <__alt_mem_Flash_flash_data+0xf4003dd0>
    4120:	00800044 	movi	r2,1
    4124:	1707c83a 	sub	r3,r2,fp
    4128:	d8c02615 	stw	r3,152(sp)
    412c:	003f2906 	br	3dd4 <__alt_mem_Flash_flash_data+0xf4003dd4>
    4130:	db003417 	ldw	r12,208(sp)
    4134:	64800044 	addi	r18,r12,1
    4138:	9005883a 	mov	r2,r18
    413c:	903ec40e 	bge	r18,zero,3c50 <__alt_mem_Flash_flash_data+0xf4003c50>
    4140:	003fdd06 	br	40b8 <__alt_mem_Flash_flash_data+0xf40040b8>
    4144:	0005883a 	mov	r2,zero
    4148:	003f5c06 	br	3ebc <__alt_mem_Flash_flash_data+0xf4003ebc>
    414c:	dac03417 	ldw	r11,208(sp)
    4150:	4a400044 	addi	r9,r9,1
    4154:	5a65883a 	add	r18,r11,r9
    4158:	9005883a 	mov	r2,r18
    415c:	903ebc0e 	bge	r18,zero,3c50 <__alt_mem_Flash_flash_data+0xf4003c50>
    4160:	003fd506 	br	40b8 <__alt_mem_Flash_flash_data+0xf40040b8>
    4164:	008000b4 	movhi	r2,2
    4168:	10bba284 	addi	r2,r2,-4470
    416c:	d8802b15 	stw	r2,172(sp)
    4170:	003d2b06 	br	3620 <__alt_mem_Flash_flash_data+0xf4003620>
    4174:	00800c04 	movi	r2,48
    4178:	e0c00c04 	addi	r3,fp,48
    417c:	d8802345 	stb	r2,141(sp)
    4180:	d8c02385 	stb	r3,142(sp)
    4184:	d88023c4 	addi	r2,sp,143
    4188:	dd4022c4 	addi	r21,sp,139
    418c:	003f9e06 	br	4008 <__alt_mem_Flash_flash_data+0xf4004008>
    4190:	4800081e 	bne	r9,zero,41b4 <___svfprintf_internal_r+0x1f18>
    4194:	8c40004c 	andi	r17,r17,1
    4198:	8800061e 	bne	r17,zero,41b4 <___svfprintf_internal_r+0x1f18>
    419c:	00800044 	movi	r2,1
    41a0:	1025883a 	mov	r18,r2
    41a4:	003eaa06 	br	3c50 <__alt_mem_Flash_flash_data+0xf4003c50>
    41a8:	04800084 	movi	r18,2
    41ac:	90e5c83a 	sub	r18,r18,r3
    41b0:	003fbd06 	br	40a8 <__alt_mem_Flash_flash_data+0xf40040a8>
    41b4:	4c800084 	addi	r18,r9,2
    41b8:	9005883a 	mov	r2,r18
    41bc:	903ea40e 	bge	r18,zero,3c50 <__alt_mem_Flash_flash_data+0xf4003c50>
    41c0:	003fbd06 	br	40b8 <__alt_mem_Flash_flash_data+0xf40040b8>
    41c4:	dac02d17 	ldw	r11,180(sp)
    41c8:	5a400017 	ldw	r9,0(r11)
    41cc:	5ac00104 	addi	r11,r11,4
    41d0:	dac02d15 	stw	r11,180(sp)
    41d4:	483e410e 	bge	r9,zero,3adc <__alt_mem_Flash_flash_data+0xf4003adc>
    41d8:	027fffc4 	movi	r9,-1
    41dc:	1c000047 	ldb	r16,1(r3)
    41e0:	00388406 	br	23f4 <__alt_mem_Flash_flash_data+0xf40023f4>
    41e4:	00800b44 	movi	r2,45
    41e8:	0739c83a 	sub	fp,zero,fp
    41ec:	d8802305 	stb	r2,140(sp)
    41f0:	003f5e06 	br	3f6c <__alt_mem_Flash_flash_data+0xf4003f6c>
    41f4:	0005883a 	mov	r2,zero
    41f8:	003f8c06 	br	402c <__alt_mem_Flash_flash_data+0xf400402c>
    41fc:	88a2703a 	and	r17,r17,r2
    4200:	883f8826 	beq	r17,zero,4024 <__alt_mem_Flash_flash_data+0xf4004024>
    4204:	003f8606 	br	4020 <__alt_mem_Flash_flash_data+0xf4004020>
    4208:	d8802344 	addi	r2,sp,141
    420c:	003f7e06 	br	4008 <__alt_mem_Flash_flash_data+0xf4004008>
    4210:	d8c02617 	ldw	r3,152(sp)
    4214:	003f4f06 	br	3f54 <__alt_mem_Flash_flash_data+0xf4003f54>
    4218:	dac02f17 	ldw	r11,188(sp)
    421c:	00800304 	movi	r2,12
    4220:	58800015 	stw	r2,0(r11)
    4224:	00bfffc4 	movi	r2,-1
    4228:	0038e806 	br	25cc <__alt_mem_Flash_flash_data+0xf40025cc>

0000422c <___vfprintf_internal_r>:
    422c:	deffb604 	addi	sp,sp,-296
    4230:	dfc04915 	stw	ra,292(sp)
    4234:	ddc04715 	stw	r23,284(sp)
    4238:	dd804615 	stw	r22,280(sp)
    423c:	282f883a 	mov	r23,r5
    4240:	202d883a 	mov	r22,r4
    4244:	d9802a15 	stw	r6,168(sp)
    4248:	d9c02d15 	stw	r7,180(sp)
    424c:	df004815 	stw	fp,288(sp)
    4250:	dd404515 	stw	r21,276(sp)
    4254:	dd004415 	stw	r20,272(sp)
    4258:	dcc04315 	stw	r19,268(sp)
    425c:	dc804215 	stw	r18,264(sp)
    4260:	dc404115 	stw	r17,260(sp)
    4264:	dc004015 	stw	r16,256(sp)
    4268:	0008e140 	call	8e14 <_localeconv_r>
    426c:	10800017 	ldw	r2,0(r2)
    4270:	1009883a 	mov	r4,r2
    4274:	d8803515 	stw	r2,212(sp)
    4278:	00022040 	call	2204 <strlen>
    427c:	d8803815 	stw	r2,224(sp)
    4280:	b0000226 	beq	r22,zero,428c <___vfprintf_internal_r+0x60>
    4284:	b0800e17 	ldw	r2,56(r22)
    4288:	1000e126 	beq	r2,zero,4610 <___vfprintf_internal_r+0x3e4>
    428c:	b880030b 	ldhu	r2,12(r23)
    4290:	10c8000c 	andi	r3,r2,8192
    4294:	1800061e 	bne	r3,zero,42b0 <___vfprintf_internal_r+0x84>
    4298:	b9001917 	ldw	r4,100(r23)
    429c:	00f7ffc4 	movi	r3,-8193
    42a0:	10880014 	ori	r2,r2,8192
    42a4:	20c6703a 	and	r3,r4,r3
    42a8:	b880030d 	sth	r2,12(r23)
    42ac:	b8c01915 	stw	r3,100(r23)
    42b0:	10c0020c 	andi	r3,r2,8
    42b4:	1800a726 	beq	r3,zero,4554 <___vfprintf_internal_r+0x328>
    42b8:	b8c00417 	ldw	r3,16(r23)
    42bc:	1800a526 	beq	r3,zero,4554 <___vfprintf_internal_r+0x328>
    42c0:	1080068c 	andi	r2,r2,26
    42c4:	00c00284 	movi	r3,10
    42c8:	10c0aa26 	beq	r2,r3,4574 <___vfprintf_internal_r+0x348>
    42cc:	dac01e04 	addi	r11,sp,120
    42d0:	db001dc4 	addi	r12,sp,119
    42d4:	d8800404 	addi	r2,sp,16
    42d8:	050000b4 	movhi	r20,2
    42dc:	dac02815 	stw	r11,160(sp)
    42e0:	5b17c83a 	sub	r11,r11,r12
    42e4:	a53baa84 	addi	r20,r20,-4438
    42e8:	db002915 	stw	r12,164(sp)
    42ec:	d8801e15 	stw	r2,120(sp)
    42f0:	d8002015 	stw	zero,128(sp)
    42f4:	d8001f15 	stw	zero,124(sp)
    42f8:	d8003315 	stw	zero,204(sp)
    42fc:	d8003715 	stw	zero,220(sp)
    4300:	d8003915 	stw	zero,228(sp)
    4304:	1011883a 	mov	r8,r2
    4308:	d8003b15 	stw	zero,236(sp)
    430c:	d8003a15 	stw	zero,232(sp)
    4310:	d8002f15 	stw	zero,188(sp)
    4314:	dac03c15 	stw	r11,240(sp)
    4318:	db002a17 	ldw	r12,168(sp)
    431c:	60800007 	ldb	r2,0(r12)
    4320:	1000be26 	beq	r2,zero,461c <___vfprintf_internal_r+0x3f0>
    4324:	00c00944 	movi	r3,37
    4328:	10c0bc26 	beq	r2,r3,461c <___vfprintf_internal_r+0x3f0>
    432c:	6021883a 	mov	r16,r12
    4330:	00000106 	br	4338 <___vfprintf_internal_r+0x10c>
    4334:	10c08426 	beq	r2,r3,4548 <___vfprintf_internal_r+0x31c>
    4338:	84000044 	addi	r16,r16,1
    433c:	80800007 	ldb	r2,0(r16)
    4340:	103ffc1e 	bne	r2,zero,4334 <__alt_mem_Flash_flash_data+0xf4004334>
    4344:	dac02a17 	ldw	r11,168(sp)
    4348:	82e3c83a 	sub	r17,r16,r11
    434c:	88000f26 	beq	r17,zero,438c <___vfprintf_internal_r+0x160>
    4350:	d8c02017 	ldw	r3,128(sp)
    4354:	d8801f17 	ldw	r2,124(sp)
    4358:	dac02a17 	ldw	r11,168(sp)
    435c:	1c47883a 	add	r3,r3,r17
    4360:	10800044 	addi	r2,r2,1
    4364:	d8c02015 	stw	r3,128(sp)
    4368:	42c00015 	stw	r11,0(r8)
    436c:	44400115 	stw	r17,4(r8)
    4370:	d8801f15 	stw	r2,124(sp)
    4374:	00c001c4 	movi	r3,7
    4378:	18809316 	blt	r3,r2,45c8 <___vfprintf_internal_r+0x39c>
    437c:	42000204 	addi	r8,r8,8
    4380:	db002f17 	ldw	r12,188(sp)
    4384:	6459883a 	add	r12,r12,r17
    4388:	db002f15 	stw	r12,188(sp)
    438c:	80800007 	ldb	r2,0(r16)
    4390:	10009426 	beq	r2,zero,45e4 <___vfprintf_internal_r+0x3b8>
    4394:	80800044 	addi	r2,r16,1
    4398:	84000047 	ldb	r16,1(r16)
    439c:	d8002785 	stb	zero,158(sp)
    43a0:	000d883a 	mov	r6,zero
    43a4:	027fffc4 	movi	r9,-1
    43a8:	d8002e15 	stw	zero,184(sp)
    43ac:	0023883a 	mov	r17,zero
    43b0:	01001604 	movi	r4,88
    43b4:	01400244 	movi	r5,9
    43b8:	02800a84 	movi	r10,42
    43bc:	01c01b04 	movi	r7,108
    43c0:	10c00044 	addi	r3,r2,1
    43c4:	80bff804 	addi	r2,r16,-32
    43c8:	2082cd36 	bltu	r4,r2,4f00 <___vfprintf_internal_r+0xcd4>
    43cc:	100490ba 	slli	r2,r2,2
    43d0:	02c00034 	movhi	r11,0
    43d4:	5ad0f904 	addi	r11,r11,17380
    43d8:	12c5883a 	add	r2,r2,r11
    43dc:	10800017 	ldw	r2,0(r2)
    43e0:	1000683a 	jmp	r2
    43e4:	00004d18 	cmpnei	zero,zero,308
    43e8:	00004f00 	call	4f0 <getCommand+0x118>
    43ec:	00004f00 	call	4f0 <getCommand+0x118>
    43f0:	00004e68 	cmpgeui	zero,zero,313
    43f4:	00004f00 	call	4f0 <getCommand+0x118>
    43f8:	00004f00 	call	4f0 <getCommand+0x118>
    43fc:	00004f00 	call	4f0 <getCommand+0x118>
    4400:	00004f00 	call	4f0 <getCommand+0x118>
    4404:	00004f00 	call	4f0 <getCommand+0x118>
    4408:	00004f00 	call	4f0 <getCommand+0x118>
    440c:	00004d38 	rdprs	zero,zero,308
    4410:	00004d64 	muli	zero,zero,309
    4414:	00004f00 	call	4f0 <getCommand+0x118>
    4418:	00004624 	muli	zero,zero,280
    441c:	00004634 	movhi	zero,280
    4420:	00004f00 	call	4f0 <getCommand+0x118>
    4424:	00004674 	movhi	zero,281
    4428:	00004684 	movi	zero,282
    442c:	00004684 	movi	zero,282
    4430:	00004684 	movi	zero,282
    4434:	00004684 	movi	zero,282
    4438:	00004684 	movi	zero,282
    443c:	00004684 	movi	zero,282
    4440:	00004684 	movi	zero,282
    4444:	00004684 	movi	zero,282
    4448:	00004684 	movi	zero,282
    444c:	00004f00 	call	4f0 <getCommand+0x118>
    4450:	00004f00 	call	4f0 <getCommand+0x118>
    4454:	00004f00 	call	4f0 <getCommand+0x118>
    4458:	00004f00 	call	4f0 <getCommand+0x118>
    445c:	00004f00 	call	4f0 <getCommand+0x118>
    4460:	00004f00 	call	4f0 <getCommand+0x118>
    4464:	00004f00 	call	4f0 <getCommand+0x118>
    4468:	00004f00 	call	4f0 <getCommand+0x118>
    446c:	00004f00 	call	4f0 <getCommand+0x118>
    4470:	00004f00 	call	4f0 <getCommand+0x118>
    4474:	000046b8 	rdprs	zero,zero,282
    4478:	00004b28 	cmpgeui	zero,zero,300
    447c:	00004f00 	call	4f0 <getCommand+0x118>
    4480:	00004b28 	cmpgeui	zero,zero,300
    4484:	00004f00 	call	4f0 <getCommand+0x118>
    4488:	00004f00 	call	4f0 <getCommand+0x118>
    448c:	00004f00 	call	4f0 <getCommand+0x118>
    4490:	00004f00 	call	4f0 <getCommand+0x118>
    4494:	00004c14 	movui	zero,304
    4498:	00004f00 	call	4f0 <getCommand+0x118>
    449c:	00004f00 	call	4f0 <getCommand+0x118>
    44a0:	00004abc 	xorhi	zero,zero,298
    44a4:	00004f00 	call	4f0 <getCommand+0x118>
    44a8:	00004f00 	call	4f0 <getCommand+0x118>
    44ac:	00004f00 	call	4f0 <getCommand+0x118>
    44b0:	00004f00 	call	4f0 <getCommand+0x118>
    44b4:	00004f00 	call	4f0 <getCommand+0x118>
    44b8:	00004af8 	rdprs	zero,zero,299
    44bc:	00004f00 	call	4f0 <getCommand+0x118>
    44c0:	00004f00 	call	4f0 <getCommand+0x118>
    44c4:	00004cbc 	xorhi	zero,zero,306
    44c8:	00004f00 	call	4f0 <getCommand+0x118>
    44cc:	00004f00 	call	4f0 <getCommand+0x118>
    44d0:	00004f00 	call	4f0 <getCommand+0x118>
    44d4:	00004f00 	call	4f0 <getCommand+0x118>
    44d8:	00004f00 	call	4f0 <getCommand+0x118>
    44dc:	00004f00 	call	4f0 <getCommand+0x118>
    44e0:	00004f00 	call	4f0 <getCommand+0x118>
    44e4:	00004f00 	call	4f0 <getCommand+0x118>
    44e8:	00004f00 	call	4f0 <getCommand+0x118>
    44ec:	00004f00 	call	4f0 <getCommand+0x118>
    44f0:	00004d74 	movhi	zero,309
    44f4:	00004c24 	muli	zero,zero,304
    44f8:	00004b28 	cmpgeui	zero,zero,300
    44fc:	00004b28 	cmpgeui	zero,zero,300
    4500:	00004b28 	cmpgeui	zero,zero,300
    4504:	00004c64 	muli	zero,zero,305
    4508:	00004c24 	muli	zero,zero,304
    450c:	00004f00 	call	4f0 <getCommand+0x118>
    4510:	00004f00 	call	4f0 <getCommand+0x118>
    4514:	00004c74 	movhi	zero,305
    4518:	00004f00 	call	4f0 <getCommand+0x118>
    451c:	00004c88 	cmpgei	zero,zero,306
    4520:	00004ec4 	movi	zero,315
    4524:	00004bcc 	andi	zero,zero,303
    4528:	00004e78 	rdprs	zero,zero,313
    452c:	00004f00 	call	4f0 <getCommand+0x118>
    4530:	00004db4 	movhi	zero,310
    4534:	00004f00 	call	4f0 <getCommand+0x118>
    4538:	00004e88 	cmpgei	zero,zero,314
    453c:	00004f00 	call	4f0 <getCommand+0x118>
    4540:	00004f00 	call	4f0 <getCommand+0x118>
    4544:	00004e28 	cmpgeui	zero,zero,312
    4548:	db002a17 	ldw	r12,168(sp)
    454c:	8323c83a 	sub	r17,r16,r12
    4550:	003f7e06 	br	434c <__alt_mem_Flash_flash_data+0xf400434c>
    4554:	b009883a 	mov	r4,r22
    4558:	b80b883a 	mov	r5,r23
    455c:	000625c0 	call	625c <__swsetup_r>
    4560:	10000c1e 	bne	r2,zero,4594 <___vfprintf_internal_r+0x368>
    4564:	b880030b 	ldhu	r2,12(r23)
    4568:	00c00284 	movi	r3,10
    456c:	1080068c 	andi	r2,r2,26
    4570:	10ff561e 	bne	r2,r3,42cc <__alt_mem_Flash_flash_data+0xf40042cc>
    4574:	b880038f 	ldh	r2,14(r23)
    4578:	103f5416 	blt	r2,zero,42cc <__alt_mem_Flash_flash_data+0xf40042cc>
    457c:	d9802a17 	ldw	r6,168(sp)
    4580:	d9c02d17 	ldw	r7,180(sp)
    4584:	b009883a 	mov	r4,r22
    4588:	b80b883a 	mov	r5,r23
    458c:	00061a00 	call	61a0 <__sbprintf>
    4590:	00000106 	br	4598 <___vfprintf_internal_r+0x36c>
    4594:	00bfffc4 	movi	r2,-1
    4598:	dfc04917 	ldw	ra,292(sp)
    459c:	df004817 	ldw	fp,288(sp)
    45a0:	ddc04717 	ldw	r23,284(sp)
    45a4:	dd804617 	ldw	r22,280(sp)
    45a8:	dd404517 	ldw	r21,276(sp)
    45ac:	dd004417 	ldw	r20,272(sp)
    45b0:	dcc04317 	ldw	r19,268(sp)
    45b4:	dc804217 	ldw	r18,264(sp)
    45b8:	dc404117 	ldw	r17,260(sp)
    45bc:	dc004017 	ldw	r16,256(sp)
    45c0:	dec04a04 	addi	sp,sp,296
    45c4:	f800283a 	ret
    45c8:	b009883a 	mov	r4,r22
    45cc:	b80b883a 	mov	r5,r23
    45d0:	d9801e04 	addi	r6,sp,120
    45d4:	000c5300 	call	c530 <__sprint_r>
    45d8:	1000081e 	bne	r2,zero,45fc <___vfprintf_internal_r+0x3d0>
    45dc:	da000404 	addi	r8,sp,16
    45e0:	003f6706 	br	4380 <__alt_mem_Flash_flash_data+0xf4004380>
    45e4:	d8802017 	ldw	r2,128(sp)
    45e8:	10000426 	beq	r2,zero,45fc <___vfprintf_internal_r+0x3d0>
    45ec:	b009883a 	mov	r4,r22
    45f0:	b80b883a 	mov	r5,r23
    45f4:	d9801e04 	addi	r6,sp,120
    45f8:	000c5300 	call	c530 <__sprint_r>
    45fc:	b880030b 	ldhu	r2,12(r23)
    4600:	1080100c 	andi	r2,r2,64
    4604:	103fe31e 	bne	r2,zero,4594 <__alt_mem_Flash_flash_data+0xf4004594>
    4608:	d8802f17 	ldw	r2,188(sp)
    460c:	003fe206 	br	4598 <__alt_mem_Flash_flash_data+0xf4004598>
    4610:	b009883a 	mov	r4,r22
    4614:	00082bc0 	call	82bc <__sinit>
    4618:	003f1c06 	br	428c <__alt_mem_Flash_flash_data+0xf400428c>
    461c:	dc002a17 	ldw	r16,168(sp)
    4620:	003f5a06 	br	438c <__alt_mem_Flash_flash_data+0xf400438c>
    4624:	1805883a 	mov	r2,r3
    4628:	8c400114 	ori	r17,r17,4
    462c:	1c000007 	ldb	r16,0(r3)
    4630:	003f6306 	br	43c0 <__alt_mem_Flash_flash_data+0xf40043c0>
    4634:	1c000007 	ldb	r16,0(r3)
    4638:	18800044 	addi	r2,r3,1
    463c:	8286ad26 	beq	r16,r10,60f4 <___vfprintf_internal_r+0x1ec8>
    4640:	82fff404 	addi	r11,r16,-48
    4644:	1007883a 	mov	r3,r2
    4648:	0013883a 	mov	r9,zero
    464c:	2aff5d36 	bltu	r5,r11,43c4 <__alt_mem_Flash_flash_data+0xf40043c4>
    4650:	1c000007 	ldb	r16,0(r3)
    4654:	4a4002a4 	muli	r9,r9,10
    4658:	18c00044 	addi	r3,r3,1
    465c:	5a53883a 	add	r9,r11,r9
    4660:	82fff404 	addi	r11,r16,-48
    4664:	2afffa2e 	bgeu	r5,r11,4650 <__alt_mem_Flash_flash_data+0xf4004650>
    4668:	483f560e 	bge	r9,zero,43c4 <__alt_mem_Flash_flash_data+0xf40043c4>
    466c:	027fffc4 	movi	r9,-1
    4670:	003f5406 	br	43c4 <__alt_mem_Flash_flash_data+0xf40043c4>
    4674:	8c402014 	ori	r17,r17,128
    4678:	1805883a 	mov	r2,r3
    467c:	1c000007 	ldb	r16,0(r3)
    4680:	003f4f06 	br	43c0 <__alt_mem_Flash_flash_data+0xf40043c0>
    4684:	1805883a 	mov	r2,r3
    4688:	d8002e15 	stw	zero,184(sp)
    468c:	82fff404 	addi	r11,r16,-48
    4690:	0019883a 	mov	r12,zero
    4694:	14000007 	ldb	r16,0(r2)
    4698:	630002a4 	muli	r12,r12,10
    469c:	18c00044 	addi	r3,r3,1
    46a0:	1805883a 	mov	r2,r3
    46a4:	62d9883a 	add	r12,r12,r11
    46a8:	82fff404 	addi	r11,r16,-48
    46ac:	2afff92e 	bgeu	r5,r11,4694 <__alt_mem_Flash_flash_data+0xf4004694>
    46b0:	db002e15 	stw	r12,184(sp)
    46b4:	003f4306 	br	43c4 <__alt_mem_Flash_flash_data+0xf40043c4>
    46b8:	8c400414 	ori	r17,r17,16
    46bc:	d8c02a15 	stw	r3,168(sp)
    46c0:	d9802785 	stb	r6,158(sp)
    46c4:	8880080c 	andi	r2,r17,32
    46c8:	d8c02d17 	ldw	r3,180(sp)
    46cc:	10015a26 	beq	r2,zero,4c38 <___vfprintf_internal_r+0xa0c>
    46d0:	db002d17 	ldw	r12,180(sp)
    46d4:	18800117 	ldw	r2,4(r3)
    46d8:	1cc00017 	ldw	r19,0(r3)
    46dc:	63000204 	addi	r12,r12,8
    46e0:	db002d15 	stw	r12,180(sp)
    46e4:	1039883a 	mov	fp,r2
    46e8:	10044516 	blt	r2,zero,5800 <___vfprintf_internal_r+0x15d4>
    46ec:	dd402783 	ldbu	r21,158(sp)
    46f0:	da403215 	stw	r9,200(sp)
    46f4:	00800044 	movi	r2,1
    46f8:	9f06b03a 	or	r3,r19,fp
    46fc:	48000216 	blt	r9,zero,4708 <___vfprintf_internal_r+0x4dc>
    4700:	013fdfc4 	movi	r4,-129
    4704:	8922703a 	and	r17,r17,r4
    4708:	1802071e 	bne	r3,zero,4f28 <___vfprintf_internal_r+0xcfc>
    470c:	4802fa26 	beq	r9,zero,52f8 <___vfprintf_internal_r+0x10cc>
    4710:	10803fcc 	andi	r2,r2,255
    4714:	00c00044 	movi	r3,1
    4718:	10c22926 	beq	r2,r3,4fc0 <___vfprintf_internal_r+0xd94>
    471c:	00c00084 	movi	r3,2
    4720:	10c31726 	beq	r2,r3,5380 <___vfprintf_internal_r+0x1154>
    4724:	d8c01e04 	addi	r3,sp,120
    4728:	9808d0fa 	srli	r4,r19,3
    472c:	e00a977a 	slli	r5,fp,29
    4730:	e038d0fa 	srli	fp,fp,3
    4734:	9cc001cc 	andi	r19,r19,7
    4738:	98800c04 	addi	r2,r19,48
    473c:	18ffffc4 	addi	r3,r3,-1
    4740:	2926b03a 	or	r19,r5,r4
    4744:	18800005 	stb	r2,0(r3)
    4748:	9f08b03a 	or	r4,r19,fp
    474c:	203ff61e 	bne	r4,zero,4728 <__alt_mem_Flash_flash_data+0xf4004728>
    4750:	8900004c 	andi	r4,r17,1
    4754:	d8c03115 	stw	r3,196(sp)
    4758:	2003931e 	bne	r4,zero,55a8 <___vfprintf_internal_r+0x137c>
    475c:	dac02817 	ldw	r11,160(sp)
    4760:	58e5c83a 	sub	r18,r11,r3
    4764:	9005883a 	mov	r2,r18
    4768:	9240010e 	bge	r18,r9,4770 <___vfprintf_internal_r+0x544>
    476c:	4805883a 	mov	r2,r9
    4770:	d8802b15 	stw	r2,172(sp)
    4774:	d8003415 	stw	zero,208(sp)
    4778:	a8803fcc 	andi	r2,r21,255
    477c:	1080201c 	xori	r2,r2,128
    4780:	10bfe004 	addi	r2,r2,-128
    4784:	10000326 	beq	r2,zero,4794 <___vfprintf_internal_r+0x568>
    4788:	db002b17 	ldw	r12,172(sp)
    478c:	63000044 	addi	r12,r12,1
    4790:	db002b15 	stw	r12,172(sp)
    4794:	88c0008c 	andi	r3,r17,2
    4798:	d8c02c15 	stw	r3,176(sp)
    479c:	18000326 	beq	r3,zero,47ac <___vfprintf_internal_r+0x580>
    47a0:	dac02b17 	ldw	r11,172(sp)
    47a4:	5ac00084 	addi	r11,r11,2
    47a8:	dac02b15 	stw	r11,172(sp)
    47ac:	8b00210c 	andi	r12,r17,132
    47b0:	db003015 	stw	r12,192(sp)
    47b4:	6001da1e 	bne	r12,zero,4f20 <___vfprintf_internal_r+0xcf4>
    47b8:	dac02e17 	ldw	r11,184(sp)
    47bc:	db002b17 	ldw	r12,172(sp)
    47c0:	5b39c83a 	sub	fp,r11,r12
    47c4:	0701d60e 	bge	zero,fp,4f20 <___vfprintf_internal_r+0xcf4>
    47c8:	02400404 	movi	r9,16
    47cc:	d8c02017 	ldw	r3,128(sp)
    47d0:	d8801f17 	ldw	r2,124(sp)
    47d4:	4f053c0e 	bge	r9,fp,5cc8 <___vfprintf_internal_r+0x1a9c>
    47d8:	014000b4 	movhi	r5,2
    47dc:	297bae84 	addi	r5,r5,-4422
    47e0:	d9403615 	stw	r5,216(sp)
    47e4:	482b883a 	mov	r21,r9
    47e8:	04c001c4 	movi	r19,7
    47ec:	00000306 	br	47fc <___vfprintf_internal_r+0x5d0>
    47f0:	e73ffc04 	addi	fp,fp,-16
    47f4:	42000204 	addi	r8,r8,8
    47f8:	af00130e 	bge	r21,fp,4848 <___vfprintf_internal_r+0x61c>
    47fc:	02c000b4 	movhi	r11,2
    4800:	18c00404 	addi	r3,r3,16
    4804:	10800044 	addi	r2,r2,1
    4808:	5afbae84 	addi	r11,r11,-4422
    480c:	42c00015 	stw	r11,0(r8)
    4810:	45400115 	stw	r21,4(r8)
    4814:	d8c02015 	stw	r3,128(sp)
    4818:	d8801f15 	stw	r2,124(sp)
    481c:	98bff40e 	bge	r19,r2,47f0 <__alt_mem_Flash_flash_data+0xf40047f0>
    4820:	b009883a 	mov	r4,r22
    4824:	b80b883a 	mov	r5,r23
    4828:	d9801e04 	addi	r6,sp,120
    482c:	000c5300 	call	c530 <__sprint_r>
    4830:	103f721e 	bne	r2,zero,45fc <__alt_mem_Flash_flash_data+0xf40045fc>
    4834:	e73ffc04 	addi	fp,fp,-16
    4838:	d8c02017 	ldw	r3,128(sp)
    483c:	d8801f17 	ldw	r2,124(sp)
    4840:	da000404 	addi	r8,sp,16
    4844:	af3fed16 	blt	r21,fp,47fc <__alt_mem_Flash_flash_data+0xf40047fc>
    4848:	db003617 	ldw	r12,216(sp)
    484c:	e0c7883a 	add	r3,fp,r3
    4850:	10800044 	addi	r2,r2,1
    4854:	43000015 	stw	r12,0(r8)
    4858:	47000115 	stw	fp,4(r8)
    485c:	d8c02015 	stw	r3,128(sp)
    4860:	d8801f15 	stw	r2,124(sp)
    4864:	010001c4 	movi	r4,7
    4868:	20830e16 	blt	r4,r2,54a4 <___vfprintf_internal_r+0x1278>
    486c:	d8802787 	ldb	r2,158(sp)
    4870:	42000204 	addi	r8,r8,8
    4874:	10000c26 	beq	r2,zero,48a8 <___vfprintf_internal_r+0x67c>
    4878:	d8801f17 	ldw	r2,124(sp)
    487c:	d9002784 	addi	r4,sp,158
    4880:	18c00044 	addi	r3,r3,1
    4884:	10800044 	addi	r2,r2,1
    4888:	41000015 	stw	r4,0(r8)
    488c:	01000044 	movi	r4,1
    4890:	41000115 	stw	r4,4(r8)
    4894:	d8c02015 	stw	r3,128(sp)
    4898:	d8801f15 	stw	r2,124(sp)
    489c:	010001c4 	movi	r4,7
    48a0:	2082a716 	blt	r4,r2,5340 <___vfprintf_internal_r+0x1114>
    48a4:	42000204 	addi	r8,r8,8
    48a8:	dac02c17 	ldw	r11,176(sp)
    48ac:	58000c26 	beq	r11,zero,48e0 <___vfprintf_internal_r+0x6b4>
    48b0:	d8801f17 	ldw	r2,124(sp)
    48b4:	d9002704 	addi	r4,sp,156
    48b8:	18c00084 	addi	r3,r3,2
    48bc:	10800044 	addi	r2,r2,1
    48c0:	41000015 	stw	r4,0(r8)
    48c4:	01000084 	movi	r4,2
    48c8:	41000115 	stw	r4,4(r8)
    48cc:	d8c02015 	stw	r3,128(sp)
    48d0:	d8801f15 	stw	r2,124(sp)
    48d4:	010001c4 	movi	r4,7
    48d8:	2082a116 	blt	r4,r2,5360 <___vfprintf_internal_r+0x1134>
    48dc:	42000204 	addi	r8,r8,8
    48e0:	db003017 	ldw	r12,192(sp)
    48e4:	00802004 	movi	r2,128
    48e8:	60820326 	beq	r12,r2,50f8 <___vfprintf_internal_r+0xecc>
    48ec:	db003217 	ldw	r12,200(sp)
    48f0:	64abc83a 	sub	r21,r12,r18
    48f4:	0540260e 	bge	zero,r21,4990 <___vfprintf_internal_r+0x764>
    48f8:	07000404 	movi	fp,16
    48fc:	d8801f17 	ldw	r2,124(sp)
    4900:	e544570e 	bge	fp,r21,5a60 <___vfprintf_internal_r+0x1834>
    4904:	014000b4 	movhi	r5,2
    4908:	297baa84 	addi	r5,r5,-4438
    490c:	d9402c15 	stw	r5,176(sp)
    4910:	04c001c4 	movi	r19,7
    4914:	00000306 	br	4924 <___vfprintf_internal_r+0x6f8>
    4918:	ad7ffc04 	addi	r21,r21,-16
    491c:	42000204 	addi	r8,r8,8
    4920:	e540110e 	bge	fp,r21,4968 <___vfprintf_internal_r+0x73c>
    4924:	18c00404 	addi	r3,r3,16
    4928:	10800044 	addi	r2,r2,1
    492c:	45000015 	stw	r20,0(r8)
    4930:	47000115 	stw	fp,4(r8)
    4934:	d8c02015 	stw	r3,128(sp)
    4938:	d8801f15 	stw	r2,124(sp)
    493c:	98bff60e 	bge	r19,r2,4918 <__alt_mem_Flash_flash_data+0xf4004918>
    4940:	b009883a 	mov	r4,r22
    4944:	b80b883a 	mov	r5,r23
    4948:	d9801e04 	addi	r6,sp,120
    494c:	000c5300 	call	c530 <__sprint_r>
    4950:	103f2a1e 	bne	r2,zero,45fc <__alt_mem_Flash_flash_data+0xf40045fc>
    4954:	ad7ffc04 	addi	r21,r21,-16
    4958:	d8c02017 	ldw	r3,128(sp)
    495c:	d8801f17 	ldw	r2,124(sp)
    4960:	da000404 	addi	r8,sp,16
    4964:	e57fef16 	blt	fp,r21,4924 <__alt_mem_Flash_flash_data+0xf4004924>
    4968:	dac02c17 	ldw	r11,176(sp)
    496c:	1d47883a 	add	r3,r3,r21
    4970:	10800044 	addi	r2,r2,1
    4974:	42c00015 	stw	r11,0(r8)
    4978:	45400115 	stw	r21,4(r8)
    497c:	d8c02015 	stw	r3,128(sp)
    4980:	d8801f15 	stw	r2,124(sp)
    4984:	010001c4 	movi	r4,7
    4988:	20826516 	blt	r4,r2,5320 <___vfprintf_internal_r+0x10f4>
    498c:	42000204 	addi	r8,r8,8
    4990:	8880400c 	andi	r2,r17,256
    4994:	1001901e 	bne	r2,zero,4fd8 <___vfprintf_internal_r+0xdac>
    4998:	d8801f17 	ldw	r2,124(sp)
    499c:	db003117 	ldw	r12,196(sp)
    49a0:	1c87883a 	add	r3,r3,r18
    49a4:	10800044 	addi	r2,r2,1
    49a8:	43000015 	stw	r12,0(r8)
    49ac:	44800115 	stw	r18,4(r8)
    49b0:	d8c02015 	stw	r3,128(sp)
    49b4:	d8801f15 	stw	r2,124(sp)
    49b8:	010001c4 	movi	r4,7
    49bc:	20824016 	blt	r4,r2,52c0 <___vfprintf_internal_r+0x1094>
    49c0:	42000204 	addi	r8,r8,8
    49c4:	8c40010c 	andi	r17,r17,4
    49c8:	88003126 	beq	r17,zero,4a90 <___vfprintf_internal_r+0x864>
    49cc:	db002e17 	ldw	r12,184(sp)
    49d0:	dac02b17 	ldw	r11,172(sp)
    49d4:	62e1c83a 	sub	r16,r12,r11
    49d8:	04002d0e 	bge	zero,r16,4a90 <___vfprintf_internal_r+0x864>
    49dc:	04400404 	movi	r17,16
    49e0:	d8801f17 	ldw	r2,124(sp)
    49e4:	8c05150e 	bge	r17,r16,5e3c <___vfprintf_internal_r+0x1c10>
    49e8:	010000b4 	movhi	r4,2
    49ec:	213bae84 	addi	r4,r4,-4422
    49f0:	d9003615 	stw	r4,216(sp)
    49f4:	048001c4 	movi	r18,7
    49f8:	00000306 	br	4a08 <___vfprintf_internal_r+0x7dc>
    49fc:	843ffc04 	addi	r16,r16,-16
    4a00:	42000204 	addi	r8,r8,8
    4a04:	8c00130e 	bge	r17,r16,4a54 <___vfprintf_internal_r+0x828>
    4a08:	014000b4 	movhi	r5,2
    4a0c:	18c00404 	addi	r3,r3,16
    4a10:	10800044 	addi	r2,r2,1
    4a14:	297bae84 	addi	r5,r5,-4422
    4a18:	41400015 	stw	r5,0(r8)
    4a1c:	44400115 	stw	r17,4(r8)
    4a20:	d8c02015 	stw	r3,128(sp)
    4a24:	d8801f15 	stw	r2,124(sp)
    4a28:	90bff40e 	bge	r18,r2,49fc <__alt_mem_Flash_flash_data+0xf40049fc>
    4a2c:	b009883a 	mov	r4,r22
    4a30:	b80b883a 	mov	r5,r23
    4a34:	d9801e04 	addi	r6,sp,120
    4a38:	000c5300 	call	c530 <__sprint_r>
    4a3c:	103eef1e 	bne	r2,zero,45fc <__alt_mem_Flash_flash_data+0xf40045fc>
    4a40:	843ffc04 	addi	r16,r16,-16
    4a44:	d8c02017 	ldw	r3,128(sp)
    4a48:	d8801f17 	ldw	r2,124(sp)
    4a4c:	da000404 	addi	r8,sp,16
    4a50:	8c3fed16 	blt	r17,r16,4a08 <__alt_mem_Flash_flash_data+0xf4004a08>
    4a54:	dac03617 	ldw	r11,216(sp)
    4a58:	1c07883a 	add	r3,r3,r16
    4a5c:	10800044 	addi	r2,r2,1
    4a60:	42c00015 	stw	r11,0(r8)
    4a64:	44000115 	stw	r16,4(r8)
    4a68:	d8c02015 	stw	r3,128(sp)
    4a6c:	d8801f15 	stw	r2,124(sp)
    4a70:	010001c4 	movi	r4,7
    4a74:	2080060e 	bge	r4,r2,4a90 <___vfprintf_internal_r+0x864>
    4a78:	b009883a 	mov	r4,r22
    4a7c:	b80b883a 	mov	r5,r23
    4a80:	d9801e04 	addi	r6,sp,120
    4a84:	000c5300 	call	c530 <__sprint_r>
