
Keyboard.elf:     file format elf32-littlenios2
Keyboard.elf
architecture: nios2:r1, flags 0x00000112:
EXEC_P, HAS_SYMS, D_PAGED
start address 0x00000244

Program Header:
    LOAD off    0x00001000 vaddr 0x00000000 paddr 0x00000000 align 2**12
         filesz 0x00000020 memsz 0x00000020 flags r-x
    LOAD off    0x00001020 vaddr 0x00000020 paddr 0x00000020 align 2**12
         filesz 0x00019e30 memsz 0x00019e30 flags r-x
    LOAD off    0x0001ae50 vaddr 0x00019e50 paddr 0x0001c020 align 2**12
         filesz 0x000021d0 memsz 0x000021d0 flags rw-
    LOAD off    0x0001d1f0 vaddr 0x0001e1f0 paddr 0x0001e1f0 align 2**12
         filesz 0x00000000 memsz 0x00007404 flags rw-

Sections:
Idx Name          Size      VMA       LMA       File off  Algn
  0 .entry        00000020  00000000  00000000  00001000  2**5
                  CONTENTS, ALLOC, LOAD, READONLY, CODE
  1 .exceptions   00000224  00000020  00000020  00001020  2**2
                  CONTENTS, ALLOC, LOAD, READONLY, CODE
  2 .text         000193f0  00000244  00000244  00001244  2**2
                  CONTENTS, ALLOC, LOAD, READONLY, CODE
  3 .rodata       0000081c  00019634  00019634  0001a634  2**2
                  CONTENTS, ALLOC, LOAD, READONLY, DATA
  4 .rwdata       000021d0  00019e50  0001c020  0001ae50  2**2
                  CONTENTS, ALLOC, LOAD, DATA, SMALL_DATA
  5 .bss          00007404  0001e1f0  0001e1f0  0001d1f0  2**2
                  ALLOC, SMALL_DATA
  6 .SDRAM        00000000  000255f4  000255f4  0001d020  2**0
                  CONTENTS
  7 .Flash_flash_data 00000000  0c000000  0c000000  0001d020  2**0
                  CONTENTS
  8 .comment      00000023  00000000  00000000  0001d020  2**0
                  CONTENTS, READONLY
  9 .debug_aranges 000010c8  00000000  00000000  0001d048  2**3
                  CONTENTS, READONLY, DEBUGGING
 10 .debug_info   0002f315  00000000  00000000  0001e110  2**0
                  CONTENTS, READONLY, DEBUGGING
 11 .debug_abbrev 0000b115  00000000  00000000  0004d425  2**0
                  CONTENTS, READONLY, DEBUGGING
 12 .debug_line   0000e5e9  00000000  00000000  0005853a  2**0
                  CONTENTS, READONLY, DEBUGGING
 13 .debug_frame  00003ad0  00000000  00000000  00066b24  2**2
                  CONTENTS, READONLY, DEBUGGING
 14 .debug_str    0000547a  00000000  00000000  0006a5f4  2**0
                  CONTENTS, READONLY, DEBUGGING
 15 .debug_loc    00016ee1  00000000  00000000  0006fa6e  2**0
                  CONTENTS, READONLY, DEBUGGING
 16 .debug_alt_sim_info 00000020  00000000  00000000  00086950  2**2
                  CONTENTS, READONLY, DEBUGGING
 17 .debug_ranges 000017e8  00000000  00000000  00086970  2**3
                  CONTENTS, READONLY, DEBUGGING
 18 .thread_model 00000006  00000000  00000000  0008dae3  2**0
                  CONTENTS, READONLY
 19 .cpu          00000005  00000000  00000000  0008dae9  2**0
                  CONTENTS, READONLY
 20 .qsys         00000001  00000000  00000000  0008daee  2**0
                  CONTENTS, READONLY
 21 .simulation_enabled 00000001  00000000  00000000  0008daef  2**0
                  CONTENTS, READONLY
 22 .sysid_hash   00000004  00000000  00000000  0008daf0  2**0
                  CONTENTS, READONLY
 23 .sysid_base   00000004  00000000  00000000  0008daf4  2**0
                  CONTENTS, READONLY
 24 .sysid_time   00000004  00000000  00000000  0008daf8  2**0
                  CONTENTS, READONLY
 25 .stderr_dev   00000009  00000000  00000000  0008dafc  2**0
                  CONTENTS, READONLY
 26 .stdin_dev    00000009  00000000  00000000  0008db05  2**0
                  CONTENTS, READONLY
 27 .stdout_dev   00000009  00000000  00000000  0008db0e  2**0
                  CONTENTS, READONLY
 28 .sopc_system_name 0000000b  00000000  00000000  0008db17  2**0
                  CONTENTS, READONLY
 29 .quartus_project_dir 0000005e  00000000  00000000  0008db22  2**0
                  CONTENTS, READONLY
 30 .jdi          0000abc5  00000000  00000000  0008db80  2**0
                  CONTENTS, READONLY
 31 .sopcinfo     001878b7  00000000  00000000  00098745  2**0
                  CONTENTS, READONLY
SYMBOL TABLE:
00000000 l    d  .entry	00000000 .entry
00000020 l    d  .exceptions	00000000 .exceptions
00000244 l    d  .text	00000000 .text
00019634 l    d  .rodata	00000000 .rodata
00019e50 l    d  .rwdata	00000000 .rwdata
0001e1f0 l    d  .bss	00000000 .bss
000255f4 l    d  .SDRAM	00000000 .SDRAM
0c000000 l    d  .Flash_flash_data	00000000 .Flash_flash_data
00000000 l    d  .comment	00000000 .comment
00000000 l    d  .debug_aranges	00000000 .debug_aranges
00000000 l    d  .debug_info	00000000 .debug_info
00000000 l    d  .debug_abbrev	00000000 .debug_abbrev
00000000 l    d  .debug_line	00000000 .debug_line
00000000 l    d  .debug_frame	00000000 .debug_frame
00000000 l    d  .debug_str	00000000 .debug_str
00000000 l    d  .debug_loc	00000000 .debug_loc
00000000 l    d  .debug_alt_sim_info	00000000 .debug_alt_sim_info
00000000 l    d  .debug_ranges	00000000 .debug_ranges
00000000 l    df *ABS*	00000000 C:/Users/daans/Documents/Eclipse_Projecten_Nios/Keyboard_bsp//obj/HAL/src/crt0.o
0000027c l       .text	00000000 alt_after_alt_main
00000000 l    df *ABS*	00000000 alt_irq_handler.c
00000000 l    df *ABS*	00000000 alt_instruction_exception_entry.c
00000000 l    df *ABS*	00000000 hello_ucosii.c
00000000 l    df *ABS*	00000000 printf.c
00000000 l    df *ABS*	00000000 vfprintf.c
000196a2 l     O .rodata	00000010 zeroes.4255
00002664 l     F .text	000000bc __sbprintf
000196b2 l     O .rodata	00000010 blanks.4254
00000000 l    df *ABS*	00000000 wsetup.c
00000000 l    df *ABS*	00000000 dtoa.c
00002874 l     F .text	00000200 quorem
00000000 l    df *ABS*	00000000 fflush.c
00000000 l    df *ABS*	00000000 findfp.c
00004430 l     F .text	00000008 __fp_lock
00004438 l     F .text	00000008 __fp_unlock
0000444c l     F .text	0000019c __sinit.part.1
00000000 l    df *ABS*	00000000 mallocr.c
00000000 l    df *ABS*	00000000 fwalk.c
00000000 l    df *ABS*	00000000 impure.c
00019e50 l     O .rwdata	00000424 impure_data
00000000 l    df *ABS*	00000000 locale.c
0001a294 l     O .rwdata	00000020 lc_ctype_charset
0001a274 l     O .rwdata	00000020 lc_message_charset
0001a2b4 l     O .rwdata	00000038 lconv
00000000 l    df *ABS*	00000000 makebuf.c
00000000 l    df *ABS*	00000000 mallocr.c
00000000 l    df *ABS*	00000000 memchr.c
00000000 l    df *ABS*	00000000 memcpy.c
00000000 l    df *ABS*	00000000 memset.c
00000000 l    df *ABS*	00000000 mprec.c
000196e4 l     O .rodata	0000000c p05.2710
00000000 l    df *ABS*	00000000 s_fpclassify.c
00000000 l    df *ABS*	00000000 sbrkr.c
00000000 l    df *ABS*	00000000 stdio.c
00000000 l    df *ABS*	00000000 strcmp.c
00000000 l    df *ABS*	00000000 strlen.c
00000000 l    df *ABS*	00000000 vfprintf.c
00006dd0 l     F .text	000000fc __sprint_r.part.0
00019818 l     O .rodata	00000010 blanks.4199
00019808 l     O .rodata	00000010 zeroes.4200
000081d8 l     F .text	000000bc __sbprintf
00000000 l    df *ABS*	00000000 writer.c
00000000 l    df *ABS*	00000000 closer.c
00000000 l    df *ABS*	00000000 mallocr.c
00000000 l    df *ABS*	00000000 fclose.c
00000000 l    df *ABS*	00000000 fputwc.c
00000000 l    df *ABS*	00000000 fstatr.c
00000000 l    df *ABS*	00000000 fvwrite.c
00000000 l    df *ABS*	00000000 int_errno.c
00000000 l    df *ABS*	00000000 isattyr.c
00000000 l    df *ABS*	00000000 lseekr.c
00000000 l    df *ABS*	00000000 memmove.c
00000000 l    df *ABS*	00000000 readr.c
00000000 l    df *ABS*	00000000 mallocr.c
00000000 l    df *ABS*	00000000 wbuf.c
00000000 l    df *ABS*	00000000 wcrtomb.c
00000000 l    df *ABS*	00000000 wctomb_r.c
00000000 l    df *ABS*	00000000 libgcc2.c
00000000 l    df *ABS*	00000000 libgcc2.c
00000000 l    df *ABS*	00000000 lib2-divmod.c
0000a260 l     F .text	0000006c udivmodsi4
00000000 l    df *ABS*	00000000 adddf3.c
00000000 l    df *ABS*	00000000 divdf3.c
00000000 l    df *ABS*	00000000 eqdf2.c
00000000 l    df *ABS*	00000000 gedf2.c
00000000 l    df *ABS*	00000000 ledf2.c
00000000 l    df *ABS*	00000000 muldf3.c
00000000 l    df *ABS*	00000000 subdf3.c
00000000 l    df *ABS*	00000000 fixdfsi.c
00000000 l    df *ABS*	00000000 floatsidf.c
00000000 l    df *ABS*	00000000 floatunsidf.c
00000000 l    df *ABS*	00000000 libgcc2.c
00000000 l    df *ABS*	00000000 libgcc2.c
00000000 l    df *ABS*	00000000 alt_close.c
0000c98c l     F .text	00000050 alt_get_errno
00000000 l    df *ABS*	00000000 alt_dev.c
0000caac l     F .text	0000002c alt_dev_null_write
00000000 l    df *ABS*	00000000 alt_errno.c
00000000 l    df *ABS*	00000000 alt_fstat.c
0000cad8 l     F .text	00000050 alt_get_errno
00000000 l    df *ABS*	00000000 alt_isatty.c
0000cbd8 l     F .text	00000050 alt_get_errno
00000000 l    df *ABS*	00000000 alt_load.c
0000cccc l     F .text	00000064 alt_load_section
00000000 l    df *ABS*	00000000 alt_lseek.c
0000cdb0 l     F .text	00000050 alt_get_errno
00000000 l    df *ABS*	00000000 alt_main.c
00000000 l    df *ABS*	00000000 alt_read.c
0000cfa8 l     F .text	00000050 alt_get_errno
00000000 l    df *ABS*	00000000 alt_release_fd.c
00000000 l    df *ABS*	00000000 alt_sbrk.c
0001bf94 l     O .rwdata	00000004 heap_end
00000000 l    df *ABS*	00000000 alt_write.c
0000d204 l     F .text	00000050 alt_get_errno
00000000 l    df *ABS*	00000000 alt_env_lock.c
0001bf98 l     O .rwdata	00000004 lockid
0001e234 l     O .bss	00000004 locks
00000000 l    df *ABS*	00000000 alt_malloc_lock.c
0001bf9c l     O .rwdata	00000004 lockid
0001e23c l     O .bss	00000004 locks
00000000 l    df *ABS*	00000000 os_core.c
0000ec38 l     F .text	00000044 OS_InitMisc
0000ec7c l     F .text	00000068 OS_InitRdyList
0000eddc l     F .text	000000e0 OS_InitTCBList
0000eb5c l     F .text	000000dc OS_InitEventList
0000ece4 l     F .text	0000007c OS_InitTaskIdle
0000ed60 l     F .text	0000007c OS_InitTaskStat
0000f03c l     F .text	00000070 OS_SchedNew
00000000 l    df *ABS*	00000000 os_dbg.c
00000000 l    df *ABS*	00000000 os_flag.c
00010e40 l     F .text	00000110 OS_FlagTaskRdy
00010b98 l     F .text	000001c4 OS_FlagBlock
00000000 l    df *ABS*	00000000 os_mem.c
00000000 l    df *ABS*	00000000 os_q.c
00000000 l    df *ABS*	00000000 os_sem.c
00000000 l    df *ABS*	00000000 os_task.c
00000000 l    df *ABS*	00000000 os_time.c
00000000 l    df *ABS*	00000000 alt_sys_init.c
000152e8 l     F .text	00000038 alt_dev_reg
0001a89c l     O .rwdata	0000106c JTAG_UART
0001b908 l     O .rwdata	00000030 AV_Config
0001b938 l     O .rwdata	00000030 Audio_Subsystem_Audio
0001b968 l     O .rwdata	0000002c Char_LCD_16x2
0001b994 l     O .rwdata	0000002c IrDA
0001b9c0 l     O .rwdata	0000002c Expansion_JP5
0001b9ec l     O .rwdata	0000002c Green_LEDs
0001ba18 l     O .rwdata	0000002c HEX3_HEX0
0001ba44 l     O .rwdata	0000002c HEX7_HEX4
0001ba70 l     O .rwdata	0000002c Pushbuttons
0001ba9c l     O .rwdata	0000002c Red_LEDs
0001bac8 l     O .rwdata	0000002c Slider_Switches
0001baf4 l     O .rwdata	00000038 PS2_Port
0001bb2c l     O .rwdata	00000038 PS2_Port_Dual
0001bb64 l     O .rwdata	0000002c Serial_Port
0001bb90 l     O .rwdata	00000034 USB
0001bbc4 l     O .rwdata	00000048 VGA_Subsystem_VGA_Char_Buffer
0001bc0c l     O .rwdata	00000054 VGA_Subsystem_VGA_Pixel_DMA
0001bc60 l     O .rwdata	0000002c SD_Card
00000000 l    df *ABS*	00000000 altera_avalon_jtag_uart_fd.c
00000000 l    df *ABS*	00000000 altera_avalon_jtag_uart_init.c
000159d0 l     F .text	000002a8 altera_avalon_jtag_uart_irq
00015c78 l     F .text	00000110 altera_avalon_jtag_uart_timeout
00000000 l    df *ABS*	00000000 altera_avalon_jtag_uart_ioctl.c
00000000 l    df *ABS*	00000000 altera_avalon_jtag_uart_read.c
00000000 l    df *ABS*	00000000 altera_avalon_jtag_uart_write.c
00000000 l    df *ABS*	00000000 altera_avalon_timer_sc.c
00016450 l     F .text	00000078 alt_avalon_timer_sc_irq
00000000 l    df *ABS*	00000000 altera_up_avalon_character_lcd.c
00000000 l    df *ABS*	00000000 altera_up_avalon_irda.c
00000000 l    df *ABS*	00000000 altera_up_avalon_ps2.c
00000000 l    df *ABS*	00000000 altera_up_avalon_rs232.c
00000000 l    df *ABS*	00000000 altera_up_avalon_video_character_buffer_with_dma.c
00000000 l    df *ABS*	00000000 altera_up_ps2_keyboard.c
0001e294 l     O .bss	00000004 state.1996
00000000 l    df *ABS*	00000000 alt_alarm_start.c
00000000 l    df *ABS*	00000000 alt_dcache_flush_all.c
00000000 l    df *ABS*	00000000 alt_dev_llist_insert.c
00018208 l     F .text	00000050 alt_get_errno
00000000 l    df *ABS*	00000000 alt_do_ctors.c
00000000 l    df *ABS*	00000000 alt_do_dtors.c
00000000 l    df *ABS*	00000000 alt_find_dev.c
00000000 l    df *ABS*	00000000 alt_icache_flush_all.c
00000000 l    df *ABS*	00000000 alt_io_redirect.c
00018474 l     F .text	000000c0 alt_open_fd
00000000 l    df *ABS*	00000000 alt_irq_register.c
00000000 l    df *ABS*	00000000 alt_irq_vars.c
00000000 l    df *ABS*	00000000 alt_open.c
0001875c l     F .text	00000050 alt_get_errno
000187ac l     F .text	000000cc alt_file_locked
00000000 l    df *ABS*	00000000 alt_tick.c
00000000 l    df *ABS*	00000000 altera_nios2_gen2_irq.c
00000000 l    df *ABS*	00000000 os_cpu_a.o
00000040 l       *ABS*	00000000 OSCtxSw_SWITCH_PC
00000000 l    df *ABS*	00000000 os_cpu_c.c
00000014 l       *ABS*	00000000 OSTCBNext_OFFSET
00000032 l       *ABS*	00000000 OSTCBPrio_OFFSET
00000000 l       *ABS*	00000000 OSTCBStkPtr_OFFSET
00000000 l    df *ABS*	00000000 alt_find_file.c
00000000 l    df *ABS*	00000000 alt_get_fd.c
00000000 l    df *ABS*	00000000 alt_icache_flush.c
00000000 l    df *ABS*	00000000 atexit.c
00000000 l    df *ABS*	00000000 exit.c
00000000 l    df *ABS*	00000000 memcmp.c
00000000 l    df *ABS*	00000000 strcpy.c
00000000 l    df *ABS*	00000000 __atexit.c
00000000 l    df *ABS*	00000000 __call_atexit.c
00000000 l    df *ABS*	00000000 alt_exit.c
0001e2a4 g     O .bss	00000004 alt_instruction_exception_handler
00006918 g     F .text	00000074 _mprec_log10
0001bfea g     O .rwdata	00000002 OSTaskNameSize
00006a04 g     F .text	0000008c __any_on
00008c04 g     F .text	00000054 _isatty_r
000196f0 g     O .rodata	00000028 __mprec_tinytens
0000ced4 g     F .text	000000d4 alt_main
000192c0 g     F .text	00000090 strcpy
000254f4 g     O .bss	00000100 alt_irq
00016fec g     F .text	0000005c alt_up_ps2_disable_read_interrupt
00008c58 g     F .text	0000005c _lseek_r
000116a4 g     F .text	000000d0 OS_MemInit
0001c020 g       *ABS*	00000000 __flash_rwdata_start
00015284 g     F .text	00000064 OSTimeSet
000165bc g     F .text	0000003c alt_up_character_lcd_send_cmd
0000b4f4 g     F .text	00000084 .hidden __eqdf2
0001e1f0 g     O .bss	00000004 byte2
0000d8b4 g     F .text	00000610 OSEventPendMulti
00000644 g     F .text	00000044 print
000255f4 g       *ABS*	00000000 __alt_heap_start
00018db8 g     F .text	00000020 OSTaskCreateHook
0001e2d0 g     O .bss	00002000 task1_stk
000006b4 g     F .text	0000003c printf
0001bfc2 g     O .rwdata	00000002 OSMboxEn
0000df18 g     F .text	0000007c OSIntEnter
00009528 g     F .text	0000009c _wcrtomb_r
00006c30 g     F .text	0000005c __sseek
00004780 g     F .text	00000010 __sinit
00017974 g     F .text	00000100 alt_up_char_buffer_string
000093d4 g     F .text	00000138 __swbuf_r
00016e0c g     F .text	00000034 read_CE_bit
0001bfd2 g     O .rwdata	00000002 OSQEn
00004d6c g     F .text	0000007c _setlocale_r
000045e8 g     F .text	00000068 __sfmoreglue
0000d588 g     F .text	000000d0 __malloc_unlock
00018e14 g     F .text	0000001c OSTaskStatHook
00017190 g     F .text	000000a4 alt_up_ps2_read_data_byte_timeout
00017684 g     F .text	00000090 alt_up_rs232_read_fd
0001e244 g     O .bss	00000001 OSLockNesting
0001c010 g     O .rwdata	00000002 OSDataSize
0001e245 g     O .bss	00000001 OSRunning
000178a8 g     F .text	000000cc alt_up_char_buffer_draw
00008cb4 g     F .text	0000015c memmove
00018e4c g     F .text	0000001c OSInitHookBegin
0001bc8c g     O .rwdata	00000198 key_table
0001e1f4 g     O .bss	00000004 byte1
0001c008 g     O .rwdata	00000002 OSTmrSize
00004768 g     F .text	00000018 _cleanup
00005af0 g     F .text	000000a8 _Balloc
0001e248 g     O .bss	00000004 OSIdleCtr
0000b578 g     F .text	000000e0 .hidden __gtdf2
00018b6c g     F .text	00000020 altera_nios2_gen2_irq_init
00018c38 g       .text	00000000 OSStartTsk
00000000  w      *UND*	00000000 __errno
00016548 g     F .text	00000074 get_DDRAM_addr
0000f374 g     F .text	000002d4 OS_TCBInit
00000000 g     F .entry	0000001c __reset
000003cc g     F .text	00000054 VGA_char
0001c00e g     O .rwdata	00000002 OSTmrWheelTblSize
00017ad0 g     F .text	00000070 get_multi_byte_make_code_index
00000020 g       *ABS*	00000000 __flash_exceptions_start
0001bfae g     O .rwdata	00000002 OSEventSize
0001e24c g     O .bss	00000001 OSPrioHighRdy
000086ec g     F .text	00000058 _fstat_r
00018dd8 g     F .text	00000020 OSTaskDelHook
0001e220 g     O .bss	00000004 errno
00006bac g     F .text	00000008 __seofread
00018c18 g       .text	00000000 OSStartHighRdy
00013b88 g     F .text	000001ec OSTaskCreateExt
000106e4 g     F .text	00000068 OSFlagPendGetFlagsRdy
0001bfee g     O .rwdata	00000002 OSTaskStatStkSize
0000f7d4 g     F .text	00000308 OSFlagAccept
00011d78 g     F .text	000000b8 OSQFlush
00017eb8 g     F .text	00000064 set_keyboard_rate
00011774 g     F .text	00000140 OSQAccept
0001e22c g     O .bss	00000004 alt_argv
00023f58 g       *ABS*	00000000 _gp
000139cc g     F .text	000001bc OSTaskCreate
0001348c g     F .text	00000540 OSTaskChangePrio
0001e240 g     O .bss	00000004 alt_heapsem
0001e1f8 g     O .bss	00000004 PS2_data
0000f648 g     F .text	0000018c OSDebugInit
00013d74 g     F .text	000003e0 OSTaskDel
00018030 g     F .text	0000007c reset_keyboard
0001a71c g     O .rwdata	00000180 alt_fd_list
000222d0 g     O .bss	00000370 OSFlagTbl
0000e948 g     F .text	000000b4 OS_EventTaskRemove
000183b4 g     F .text	00000090 alt_find_dev
00005894 g     F .text	00000138 memcpy
0001bfd8 g     O .rwdata	00000002 OSRdyTblSize
00016758 g     F .text	00000050 alt_up_character_lcd_write_fd
00017a74 g     F .text	0000005c alt_up_char_buffer_clear
00004440 g     F .text	0000000c _cleanup_r
0000c7b4 g     F .text	000000d0 .hidden __floatsidf
00018534 g     F .text	00000078 alt_io_redirect
0000b658 g     F .text	000000e0 .hidden __ltdf2
00019634 g       *ABS*	00000000 __DTOR_END__
00016cd8 g     F .text	00000090 alt_up_irda_write_fd
00017610 g     F .text	00000074 alt_up_rs232_read_data
0001915c g     F .text	0000009c alt_exception_cause_generated_bad_addr
0000d658 g     F .text	00000120 OSEventNameGet
0001bfbc g     O .rwdata	00000002 OSFlagMax
00006a90 g     F .text	00000074 __fpclassifyd
00006874 g     F .text	000000a4 __ratio
0000df94 g     F .text	000000f4 OSIntExit
000081b4 g     F .text	00000024 __vfiprintf_internal
0001bff6 g     O .rwdata	00000002 OSTCBSize
0001e24d g     O .bss	00000001 OSPrioCur
00016ad4 g     F .text	00000040 alt_up_irda_get_used_space_in_read_FIFO
00015edc g     F .text	000002b4 altera_avalon_jtag_uart_read
00000000  w      *UND*	00000000 malloc
00000688 g     F .text	0000002c _printf_r
0000a37c g     F .text	00000008 .hidden __udivsi3
0000cc28 g     F .text	000000a4 isatty
0001bfdc g     O .rwdata	00000002 OSStkWidth
00019740 g     O .rodata	000000c8 __mprec_tens
0001bfd0 g     O .rwdata	00000002 OSPtrSize
00004de8 g     F .text	0000000c __locale_charset
0001bfb0 g     O .rwdata	00000002 OSEventTblSize
00016a78 g     F .text	0000005c alt_up_irda_disable_read_interrupt
00018b8c g       .text	00000000 OSCtxSw
000190d0 g     F .text	0000008c alt_icache_flush
0001e21c g     O .bss	00000004 __malloc_top_pad
0001e250 g     O .bss	00000004 OSTCBList
0001e224 g     O .bss	00000004 alt_fd_list_lock
0001bf6c g     O .rwdata	00000004 __mb_cur_max
00004e18 g     F .text	0000000c _localeconv_r
00008744 g     F .text	000004c0 __sfvwrite_r
00005efc g     F .text	0000003c __i2b
00022640 g     O .bss	00000c30 OSMemTbl
0001e254 g     O .bss	00000001 OSTickStepState
00006b04 g     F .text	00000054 _sbrk_r
0001bfd4 g     O .rwdata	00000002 OSQMax
00023270 g     O .bss	00000800 OSTaskStatStk
000112d4 g     F .text	000000f8 OSMemNameGet
0001bfb4 g     O .rwdata	00000002 OSFlagEn
00008e10 g     F .text	0000005c _read_r
0001bffa g     O .rwdata	00000002 OSTimeTickHookEn
00012298 g     F .text	00000168 OSQPost
00010f50 g     F .text	000000a0 OS_FlagUnlink
0001bf8c g     O .rwdata	00000004 alt_max_fd
0001758c g     F .text	00000044 alt_up_rs232_check_parity
0000ef0c g     F .text	00000064 OS_MemCopy
0000ef70 g     F .text	000000cc OS_Sched
00008408 g     F .text	000000f0 _fclose_r
000111e4 g     F .text	000000f0 OSMemGet
00014454 g     F .text	000001c0 OSTaskNameSet
00016e40 g     F .text	00000030 read_num_bytes_available
00004400 g     F .text	00000030 fflush
0001be24 g     O .rwdata	00000066 ascii_codes
0001e218 g     O .bss	00000004 __malloc_max_sbrked_mem
0001e258 g     O .bss	00000004 OSCtxSwCtr
00018e30 g     F .text	0000001c OSTimeTickHook
000185ac g     F .text	000001b0 alt_irq_register
0001bfbe g     O .rwdata	00000002 OSFlagNameSize
00016da8 g     F .text	00000034 read_RI_bit
0001bf58 g     O .rwdata	00000001 temp
0000e9fc g     F .text	000000fc OS_EventTaskRemoveMulti
0000a38c g     F .text	0000089c .hidden __adddf3
0000e7fc g     F .text	0000014c OS_EventTaskWaitMulti
0000661c g     F .text	0000011c __b2d
0001bfd6 g     O .rwdata	00000002 OSQSize
00009cd0 g     F .text	00000590 .hidden __umoddi3
0000ce00 g     F .text	000000d4 lseek
00012d9c g     F .text	00000268 OSSemPend
0001bf64 g     O .rwdata	00000004 _global_impure_ptr
00008e6c g     F .text	00000568 _realloc_r
0001bfc0 g     O .rwdata	00000002 OSLowestPrio
000255f4 g       *ABS*	00000000 __bss_end
00018ea0 g     F .text	00000020 OSTCBInitHook
0001e1fc g     O .bss	00000001 letter
0001c006 g     O .rwdata	00000002 OSTmrCfgTicksPerSec
00018a68 g     F .text	00000104 alt_tick
00009710 g     F .text	000005c0 .hidden __udivdi3
0000850c g     F .text	00000184 _fputwc_r
0001bfa8 g     O .rwdata	00000002 OSEventEn
00019718 g     O .rodata	00000028 __mprec_bigtens
00005ce0 g     F .text	00000104 __s2b
0001c002 g     O .rwdata	00000002 OSTmrCfgNameSize
0000c884 g     F .text	000000a4 .hidden __floatunsidf
000063c4 g     F .text	00000060 __mcmp
0c000000 g       *ABS*	00000000 __alt_mem_Flash_flash_data
00016ea4 g     F .text	0000002c read_data_byte
000047a0 g     F .text	00000018 __fp_lock_all
00010d5c g     F .text	000000e4 OS_FlagInit
000189d0 g     F .text	00000098 alt_alarm_stop
00016ddc g     F .text	00000030 read_RE_bit
0001bfe4 g     O .rwdata	00000002 OSTaskIdleStkSize
0001e298 g     O .bss	00000004 alt_irq_active
00012984 g     F .text	000000b0 OSSemAccept
00000558 g     F .text	0000007c VGA_text
000114e4 g     F .text	000000d8 OSMemPut
00010ff0 g     F .text	000001f4 OSMemCreate
0001e25c g     O .bss	00000004 OSIdleCtrMax
00016b14 g     F .text	0000003c alt_up_irda_get_available_space_in_write_FIFO
000000fc g     F .exceptions	000000d4 alt_irq_handler
0001a6f4 g     O .rwdata	00000028 alt_dev_null
0001bff8 g     O .rwdata	00000002 OSTicksPerSec
0001bf60 g     O .rwdata	00000004 character_buffer
000169ec g     F .text	00000034 alt_up_character_lcd_cursor_blink_on
00018b8c g       .text	00000000 OSIntCtxSw
00017048 g     F .text	00000074 alt_up_ps2_write_data_byte
000181ec g     F .text	0000001c alt_dcache_flush_all
00005de4 g     F .text	00000068 __hi0bits
0000c72c g     F .text	00000088 .hidden __fixdfsi
0001e260 g     O .bss	00000004 OSTCBFreeList
0001c020 g       *ABS*	00000000 __ram_rwdata_end
00013004 g     F .text	0000016c OSSemPendAbort
0001bef0 g     O .rwdata	00000066 multi_byte_make_code
0001bf84 g     O .rwdata	00000008 alt_dev_list
0000d254 g     F .text	000000f8 write
0001bffc g     O .rwdata	00000002 OSVersionNbr
00019e50 g       *ABS*	00000000 __ram_rodata_end
0000cb28 g     F .text	000000b0 fstat
00017714 g     F .text	00000094 alt_up_rs232_write_fd
00000000 g       *ABS*	00000000 __alt_mem_SDRAM
0000b658 g     F .text	000000e0 .hidden __ledf2
0001bfa4 g     O .rwdata	00000004 OSEndiannessTest
00006134 g     F .text	00000140 __pow5mult
00006ee4 g     F .text	000012d0 ___vfiprintf_internal_r
0001e210 g     O .bss	00000004 __nlocale_changed
0000a384 g     F .text	00000008 .hidden __umodsi3
0001bfb6 g     O .rwdata	00000002 OSFlagGrpSize
000255f4 g       *ABS*	00000000 end
00017384 g     F .text	00000098 alt_up_ps2_write_fd
00016b50 g     F .text	00000044 alt_up_irda_check_parity
000177e8 g     F .text	00000080 alt_up_char_buffer_init
00015890 g     F .text	00000140 altera_avalon_jtag_uart_init
0000f1d0 g     F .text	000000dc OS_TaskStat
000001d0 g     F .exceptions	00000074 alt_instruction_exception_entry
00019634 g       *ABS*	00000000 __CTOR_LIST__
04000000 g       *ABS*	00000000 __alt_stack_pointer
000164c8 g     F .text	00000080 alt_avalon_timer_sc_init
0000c928 g     F .text	00000064 .hidden __clzsi2
00016190 g     F .text	000002c0 altera_avalon_jtag_uart_write
00004790 g     F .text	00000004 __sfp_lock_acquire
000057ac g     F .text	000000e8 memchr
0000eebc g     F .text	00000050 OS_MemClr
0001666c g     F .text	00000078 alt_up_character_lcd_write
000006f0 g     F .text	00001f50 ___vfprintf_internal_r
00018c5c g     F .text	0000015c OSTaskStkInit
00000368 g     F .text	00000064 task1
000048f4 g     F .text	000002f0 _free_r
00004df4 g     F .text	00000010 __locale_mb_cur_max
0000e558 g     F .text	00000198 OS_EventTaskRdy
00019464 g     F .text	00000194 __call_exitprocs
0001e264 g     O .bss	00000001 OSCPUUsage
00017f1c g     F .text	00000114 translate_make_code
0001e20c g     O .bss	00000004 __mlocale_changed
0001bf70 g     O .rwdata	00000004 __malloc_sbrk_base
00000244 g     F .text	0000003c _start
0001e29c g     O .bss	00000004 _alt_tick_rate
00011e30 g     F .text	000002fc OSQPend
00014d80 g     F .text	00000148 OSTimeDly
00006274 g     F .text	00000150 __lshift
0001e2a0 g     O .bss	00000004 _alt_nticks
0000cff8 g     F .text	000000fc read
00015354 g     F .text	000003d8 alt_sys_init
000168a4 g     F .text	00000088 alt_up_character_lcd_shift_display
00019350 g     F .text	00000114 __register_exitproc
0001e265 g     O .bss	00000001 OSTaskCtr
000172a4 g     F .text	00000054 alt_up_ps2_clear_fifo
00017550 g     F .text	0000003c alt_up_rs232_get_available_space_in_write_FIFO
000004a4 g     F .text	000000b4 VGA_box
00014ec8 g     F .text	00000168 OSTimeDlyHMSM
00005f38 g     F .text	000001fc __multiply
0001692c g     F .text	0000008c alt_up_character_lcd_erase_pos
00015d88 g     F .text	00000068 altera_avalon_jtag_uart_close
00019e50 g       *ABS*	00000000 __ram_rwdata_start
00019634 g       *ABS*	00000000 __ram_rodata_start
0001e2a8 g     O .bss	00000028 __malloc_current_mallinfo
0001bfaa g     O .rwdata	00000002 OSEventMax
00006738 g     F .text	0000013c __d2b
00013170 g     F .text	00000110 OSSemPost
0000e110 g     F .text	000000d8 OSSchedUnlock
0001572c g     F .text	00000060 altera_avalon_jtag_uart_read_fd
00018fd4 g     F .text	000000fc alt_get_fd
0001e268 g     O .bss	00000004 OSMemFreeList
0000e254 g     F .text	000000ac OSStatInit
00010ad4 g     F .text	000000c4 OSFlagQuery
0001bfe0 g     O .rwdata	00000002 OSTaskCreateExtEn
000082f0 g     F .text	00000054 _close_r
00017e00 g     F .text	000000b8 decode_scancode
00019244 g     F .text	0000007c memcmp
0000e53c g     F .text	0000001c OS_Dummy
000157ec g     F .text	00000050 altera_avalon_jtag_uart_close_fd
000255f4 g       *ABS*	00000000 __alt_stack_base
0001583c g     F .text	00000054 altera_avalon_jtag_uart_ioctl_fd
00016a20 g     F .text	00000058 alt_up_irda_enable_read_interrupt
00002720 g     F .text	00000154 __swsetup_r
00023a70 g     O .bss	000001e0 OSQTbl
0000ac28 g     F .text	000008cc .hidden __divdf3
00004650 g     F .text	00000118 __sfp
0000698c g     F .text	00000078 __copybits
0001a2ec g     O .rwdata	00000408 __malloc_av_
0000479c g     F .text	00000004 __sinit_lock_release
0001e26c g     O .bss	00000004 OSTCBHighRdy
0000b738 g     F .text	00000724 .hidden __muldf3
00006b58 g     F .text	00000054 __sread
0001e270 g     O .bss	00000004 OSQFreeList
000174b4 g     F .text	0000005c alt_up_rs232_disable_read_interrupt
00018ec0 g     F .text	00000114 alt_find_file
00018258 g     F .text	000000a4 alt_dev_llist_insert
0000d468 g     F .text	00000120 __malloc_lock
0000d154 g     F .text	000000b0 sbrk
0000d778 g     F .text	0000013c OSEventNameSet
000043a4 g     F .text	0000005c _fflush_r
00008344 g     F .text	000000c4 _calloc_r
0001e274 g     O .bss	00000001 OSRdyGrp
000005d4 g     F .text	00000050 PS2
0001e1f0 g       *ABS*	00000000 __bss_start
000059cc g     F .text	00000124 memset
00000420 g     F .text	00000084 main
00017b40 g     F .text	00000070 get_single_byte_make_code_index
0001e230 g     O .bss	00000004 alt_envp
0001e214 g     O .bss	00000004 __malloc_max_total_mem
00017868 g     F .text	00000040 alt_up_char_buffer_open_dev
0001578c g     F .text	00000060 altera_avalon_jtag_uart_write_fd
0000950c g     F .text	0000001c __swbuf
00019944 g     O .rodata	00000100 OSUnMapTbl
0001bfda g     O .rwdata	00000002 OSSemEn
0001681c g     F .text	00000088 alt_up_character_lcd_shift_cursor
0001074c g     F .text	00000388 OSFlagPost
00006c8c g     F .text	00000008 __sclose
04000000 g       *ABS*	00000000 __alt_heap_limit
000084f8 g     F .text	00000014 fclose
0000e6f0 g     F .text	0000010c OS_EventTaskWait
000202d0 g     O .bss	00002000 task2_stk
00017234 g     F .text	00000070 alt_up_ps2_read_data_byte
0000f2ac g     F .text	000000c8 OS_TaskStatStkChk
00014154 g     F .text	00000158 OSTaskDelReq
00002a74 g     F .text	00001728 _dtoa_r
00005004 g     F .text	000007a8 _malloc_r
00009684 g     F .text	00000030 __ascii_wctomb
0001bf90 g     O .rwdata	00000004 alt_errno
0000e1e8 g     F .text	0000006c OSStart
0001e1fd g     O .bss	00000002 strTemp
0000d40c g     F .text	0000005c __env_unlock
00004be4 g     F .text	000000c4 _fwalk
00014614 g     F .text	000001f8 OSTaskResume
000115bc g     F .text	000000e8 OSMemQuery
0001bfec g     O .rwdata	00000002 OSTaskStatEn
00016b94 g     F .text	00000040 alt_up_irda_write_data
0001bfc6 g     O .rwdata	00000002 OSMemMax
00012400 g     F .text	00000170 OSQPostFront
0001741c g     F .text	00000040 alt_up_ps2_open_dev
0000a2cc g     F .text	00000054 .hidden __divsi3
00000280 g     F .text	000000e8 getKey
0001e275 g     O .bss	00000003 OSRdyTbl
0001bfa0 g     O .rwdata	00000002 OSDebugEn
0001662c g     F .text	00000040 alt_up_character_lcd_open_dev
000047d0 g     F .text	00000124 _malloc_trim_r
00016f94 g     F .text	00000058 alt_up_ps2_enable_read_interrupt
00019634 g       *ABS*	00000000 __CTOR_END__
0001bfb8 g     O .rwdata	00000002 OSFlagNodeSize
0001c000 g     O .rwdata	00000002 OSTmrCfgMax
000165f8 g     F .text	00000034 alt_up_character_lcd_init
00006c94 g     F .text	000000a4 strcmp
000118b4 g     F .text	000001fc OSQCreate
000142ac g     F .text	000001a8 OSTaskNameGet
00019634 g       *ABS*	00000000 __flash_rodata_start
00012570 g     F .text	0000020c OSQPostOpt
0000e300 g     F .text	0000021c OSTimeTick
0001bfe8 g     O .rwdata	00000002 OSTaskMax
00019634 g       *ABS*	00000000 __DTOR_LIST__
00012a34 g     F .text	00000100 OSSemCreate
0001c00c g     O .rwdata	00000002 OSTmrWheelSize
000177a8 g     F .text	00000040 alt_up_rs232_open_dev
0000b4f4 g     F .text	00000084 .hidden __nedf2
0001bfe2 g     O .rwdata	00000002 OSTaskDelEn
00013280 g     F .text	00000110 OSSemQuery
00011ab0 g     F .text	000002c8 OSQDel
0001212c g     F .text	0000016c OSQPendAbort
00015320 g     F .text	00000034 alt_irq_init
0000d0f4 g     F .text	00000060 alt_release_fd
00016e70 g     F .text	00000034 read_data_valid
000169b8 g     F .text	00000034 alt_up_character_lcd_cursor_off
00019828 g     O .rodata	00000100 .hidden __clz_tab
0001e208 g     O .bss	00000004 _PathLocale
0001bf5c g     O .rwdata	00000004 PS2_ptr
0001712c g     F .text	00000064 alt_up_ps2_write_data_byte_with_ack
000191f8 g     F .text	00000014 atexit
00008294 g     F .text	0000005c _write_r
0000e088 g     F .text	00000088 OSSchedLock
00004e24 g     F .text	0000001c setlocale
0000fadc g     F .text	00000128 OSFlagCreate
0001bf68 g     O .rwdata	00000004 _impure_ptr
0001e228 g     O .bss	00000004 alt_argc
0000419c g     F .text	00000208 __sflush_r
00018358 g     F .text	0000005c _do_dtors
00004e10 g     F .text	00000008 __locale_cjk_lang
0001bfb2 g     O .rwdata	00000002 OSEventMultiEn
0001e200 g     O .bss	00000004 RAVAIL
0001e204 g     O .bss	00000004 ascii
0000fc04 g     F .text	00000270 OSFlagDel
0001e278 g     O .bss	00000004 OSEventFreeList
00000020 g       .exceptions	00000000 alt_irq_entry
000065bc g     F .text	00000060 __ulp
000100f4 g     F .text	000005f0 OSFlagPend
0001bffe g     O .rwdata	00000002 OSTmrEn
000047b8 g     F .text	00000018 __fp_unlock_all
0001bf7c g     O .rwdata	00000008 alt_fs_list
0000f0ac g     F .text	00000074 OS_StrCopy
0001745c g     F .text	00000058 alt_up_rs232_enable_read_interrupt
000175d0 g     F .text	00000040 alt_up_rs232_write_data
0001bfc8 g     O .rwdata	00000002 OSMemNameSize
00018e68 g     F .text	0000001c OSInitHookEnd
00000020 g       *ABS*	00000000 __ram_exceptions_start
0001bff4 g     O .rwdata	00000002 OSTCBPrioTblMax
00004e40 g     F .text	0000000c localeconv
0001bff0 g     O .rwdata	00000002 OSTaskStatStkChkEn
0001bfc4 g     O .rwdata	00000002 OSMemEn
0001bfce g     O .rwdata	00000002 OSMutexEn
0001c020 g       *ABS*	00000000 _edata
000255f4 g       *ABS*	00000000 _end
0001e27c g     O .bss	00000001 OSIntNesting
00000244 g       *ABS*	00000000 __ram_exceptions_end
00015df0 g     F .text	000000ec altera_avalon_jtag_uart_ioctl
00015030 g     F .text	000001f0 OSTimeDlyResume
0000ffa4 g     F .text	00000150 OSFlagNameSet
0001480c g     F .text	000001c8 OSTaskStkChk
0001bfca g     O .rwdata	00000002 OSMemSize
00006bb4 g     F .text	0000007c __swrite
0001bf74 g     O .rwdata	00000004 __malloc_trim_threshold
00004e04 g     F .text	0000000c __locale_msgcharset
0001e280 g     O .bss	00000004 OSTCBCur
0001920c g     F .text	00000038 exit
00016bd4 g     F .text	00000074 alt_up_irda_read_data
0001bfcc g     O .rwdata	00000002 OSMemTblSize
00004ca8 g     F .text	000000c4 _fwalk_reent
00016ed0 g     F .text	000000c4 alt_up_ps2_init
00006424 g     F .text	00000198 __mdiff
0000a320 g     F .text	0000005c .hidden __modsi3
04000000 g       *ABS*	00000000 __alt_data_end
00000020 g     F .exceptions	00000000 alt_exception
00004794 g     F .text	00000004 __sfp_lock_release
0000dec4 g     F .text	00000054 OSInit
00014be8 g     F .text	0000012c OSTaskQuery
000166e4 g     F .text	00000074 alt_up_character_lcd_string
000128d8 g     F .text	000000ac OS_QInit
0000f120 g     F .text	00000054 OS_StrLen
00016d68 g     F .text	00000040 alt_up_irda_open_dev
000113cc g     F .text	00000118 OSMemNameSet
0001bfe6 g     O .rwdata	00000002 OSTaskProfileEn
0001e284 g     O .bss	00000004 OSTime
00023c50 g     O .bss	00000800 OSTaskIdleStk
000195f8 g     F .text	0000003c _exit
000180ac g     F .text	00000140 alt_alarm_start
0000fe74 g     F .text	00000130 OSFlagNameGet
00015220 g     F .text	00000064 OSTimeGet
00017bb0 g     F .text	00000250 get_next_state
00004e4c g     F .text	000001b8 __smakebuf_r
000170bc g     F .text	00000070 alt_up_ps2_wait_for_ack
00006d38 g     F .text	00000098 strlen
00018df8 g     F .text	0000001c OSTaskSwHook
00018878 g     F .text	00000158 open
00024450 g     O .bss	00000b40 OSEventTbl
0000b578 g     F .text	000000e0 .hidden __gedf2
00024f90 g     O .bss	00000510 OSTCBTbl
00013390 g     F .text	000000fc OSSemSet
0001bf78 g     O .rwdata	00000004 __wctomb
00006ecc g     F .text	00000018 __sprint_r
00018444 g     F .text	00000030 alt_icache_flush_all
000167a8 g     F .text	00000074 alt_up_character_lcd_set_cursor_pos
0001c014 g     O .rwdata	00000004 alt_priority_mask
00000624 g     F .text	00000020 convert
00012b34 g     F .text	00000268 OSSemDel
0001e288 g     O .bss	00000004 OSFlagFreeList
0001bfac g     O .rwdata	00000002 OSEventNameSize
00002640 g     F .text	00000024 __vfprintf_internal
0001e28c g     O .bss	00000001 OSStatRdy
000254a0 g     O .bss	00000054 OSTCBPrioTbl
000096b4 g     F .text	0000005c _wctomb_r
0000d34c g     F .text	000000c0 __env_lock
000172f8 g     F .text	0000008c alt_up_ps2_read_fd
0001bff2 g     O .rwdata	00000002 OSTaskSwHookEn
0000be5c g     F .text	000008d0 .hidden __subdf3
00016c48 g     F .text	00000090 alt_up_irda_read_fd
0001be8a g     O .rwdata	00000066 single_byte_make_code
00005e4c g     F .text	000000b0 __lo0bits
0001c018 g     O .rwdata	00000008 alt_alarm_list
0001bfba g     O .rwdata	00000002 OSFlagWidth
000182fc g     F .text	0000005c _do_ctors
00017510 g     F .text	00000040 alt_up_rs232_get_used_space_in_read_FIFO
000095c4 g     F .text	000000c0 wcrtomb
0000c9dc g     F .text	000000d0 close
0001e238 g     O .bss	00000004 alt_envsem
0001e290 g     O .bss	00000004 OSIdleCtrRun
0000e51c g     F .text	00000020 OSVersion
0001c004 g     O .rwdata	00000002 OSTmrCfgWheelSize
0000cd30 g     F .text	00000080 alt_load
00014d14 g     F .text	0000006c OS_TaskStkClr
0001bfde g     O .rwdata	00000002 OSTaskCreateEn
0000eaf8 g     F .text	00000064 OS_EventWaitListInit
00008690 g     F .text	0000005c fputwc
00018e84 g     F .text	0000001c OSTaskIdleHook
00000000  w      *UND*	00000000 free
00004798 g     F .text	00000004 __sinit_lock_acquire
00005bc0 g     F .text	00000120 __multadd
000149d4 g     F .text	00000214 OSTaskSuspend
00005b98 g     F .text	00000028 _Bfree
0000f174 g     F .text	0000005c OS_TaskIdle
0001c00a g     O .rwdata	00000002 OSTmrTblSize
0001277c g     F .text	0000015c OSQQuery



Disassembly of section .entry:

00000000 <__reset>:
#if NIOS2_ICACHE_SIZE > 0 && defined(ALT_ALLOW_CODE_AT_RESET) && (!defined(ALT_SIM_OPTIMIZE) || defined(NIOS2_ECC_PRESENT))
    /* Assume the instruction cache size is always a power of two. */
#if NIOS2_ICACHE_SIZE > 0x8000
    movhi r2, %hi(NIOS2_ICACHE_SIZE)
#else
    movui r2, NIOS2_ICACHE_SIZE
   0:	00840014 	movui	r2,4096
#endif

0:
    initi r2
   4:	1001483a 	initi	r2
    addi r2, r2, -NIOS2_ICACHE_LINE_SIZE
   8:	10bff804 	addi	r2,r2,-32
    bgt r2, zero, 0b
   c:	00bffd16 	blt	zero,r2,4 <__alt_mem_Flash_flash_data+0xf4000004>
 * Jump to the _start entry point in the .text section if reset code
 * is allowed or if optimizing for RTL simulation.
 */
#if defined(ALT_ALLOW_CODE_AT_RESET) || defined(ALT_SIM_OPTIMIZE)
    /* Jump to the _start entry point in the .text section. */
    movhi r1, %hi(_start)
  10:	00400034 	movhi	at,0
    ori r1, r1, %lo(_start)
  14:	08409114 	ori	at,at,580
    jmp r1
  18:	0800683a 	jmp	at
  1c:	00000000 	call	0 <__reset>

Disassembly of section .exceptions:

00000020 <alt_exception>:

#else /* ALT_EXCEPTION_STACK disabled */
        /* 
         * Reserve space on normal stack for registers about to be pushed.
         */
        addi  sp, sp, -76
  20:	deffed04 	addi	sp,sp,-76
         * documentation for details).
         *
         * Leave a gap in the stack frame at 4(sp) for the muldiv handler to
         * store zero into.
         */
        stw   ra,  0(sp)
  24:	dfc00015 	stw	ra,0(sp)
        stw   r1,   8(sp)
  28:	d8400215 	stw	at,8(sp)
        stw   r2,  12(sp)
  2c:	d8800315 	stw	r2,12(sp)
        stw   r3,  16(sp)
  30:	d8c00415 	stw	r3,16(sp)
        stw   r4,  20(sp)
  34:	d9000515 	stw	r4,20(sp)
        stw   r5,  24(sp)
  38:	d9400615 	stw	r5,24(sp)
        stw   r6,  28(sp)
  3c:	d9800715 	stw	r6,28(sp)
        stw   r7,  32(sp)
  40:	d9c00815 	stw	r7,32(sp)
        rdctl r5, estatus   /* Read early to avoid usage stall */
  44:	000b307a 	rdctl	r5,estatus
        stw   r8,  36(sp)
  48:	da000915 	stw	r8,36(sp)
        stw   r9,  40(sp)
  4c:	da400a15 	stw	r9,40(sp)
        stw   r10, 44(sp)
  50:	da800b15 	stw	r10,44(sp)
        stw   r11, 48(sp)
  54:	dac00c15 	stw	r11,48(sp)
        stw   r12, 52(sp)
  58:	db000d15 	stw	r12,52(sp)
        stw   r13, 56(sp)
  5c:	db400e15 	stw	r13,56(sp)
        stw   r14, 60(sp)
  60:	db800f15 	stw	r14,60(sp)
        stw   r15, 64(sp)
  64:	dbc01015 	stw	r15,64(sp)
        /*
         * ea-4 contains the address of the instruction being executed
         * when the exception occured. For interrupt exceptions, we will
         * will be re-issue the isntruction. Store it in 72(sp)
         */
        stw   r5,  68(sp)  /* estatus */
  68:	d9401115 	stw	r5,68(sp)
        addi  r15, ea, -4  /* instruction that caused exception */
  6c:	ebffff04 	addi	r15,ea,-4
        stw   r15,  72(sp)
  70:	dbc01215 	stw	r15,72(sp)
#else
        /*
         * Test to see if the exception was a software exception or caused 
         * by an external interrupt, and vector accordingly.
         */
        rdctl r4, ipending
  74:	0009313a 	rdctl	r4,ipending
        andi  r2, r5, 1
  78:	2880004c 	andi	r2,r5,1
        beq   r2, zero, .Lnot_irq
  7c:	10000326 	beq	r2,zero,8c <OSCtxSw_SWITCH_PC+0x4c>
        beq   r4, zero, .Lnot_irq
  80:	20000226 	beq	r4,zero,8c <OSCtxSw_SWITCH_PC+0x4c>
        /*
         * Now that all necessary registers have been preserved, call 
         * alt_irq_handler() to process the interrupts.
         */

        call alt_irq_handler
  84:	00000fc0 	call	fc <alt_irq_handler>

        .section .exceptions.irqreturn, "xa"

        br    .Lexception_exit
  88:	00000706 	br	a8 <OSCtxSw_SWITCH_PC+0x68>
         * upon completion, so we write ea (address of instruction *after*
         * the one where the exception occured) into 72(sp). The actual
         * instruction that caused the exception is written in r2, which these
         * handlers will utilize.
         */
        stw   ea,  72(sp)  /* Don't re-issue */
  8c:	df401215 	stw	ea,72(sp)
        ldhu.n  r2, 0(r4)
        ldhu.n  r3, 2(r4)
        slli.n  r3, r3, 16
        or.n    r2, r2, r3 /* Instruction that caused exception */
#else
        ldw   r2, -4(ea)   /* Instruction that caused exception */
  90:	e8bfff17 	ldw	r2,-4(ea)
         * debugger is present) or go into an infinite loop since the
         * handling behavior is undefined; in that case we will not return here.
         */

        /* Load exception-causing address as first argument (r4) */
        addi   r4, ea, -4
  94:	e93fff04 	addi	r4,ea,-4

        /* Call the instruction-exception entry */
        call   alt_instruction_exception_entry
  98:	00001d00 	call	1d0 <alt_instruction_exception_entry>
         * instruction
         *
         * Return code was 0: Skip. The instruction after the exception is
         * already stored in 72(sp).
         */
        bne   r2, r0, .Lexception_exit
  9c:	1000021e 	bne	r2,zero,a8 <OSCtxSw_SWITCH_PC+0x68>

        /*
         * Otherwise, modify 72(sp) to re-issue the instruction that caused the
         * exception.
         */
        addi  r15, ea, -4  /* instruction that caused exception */
  a0:	ebffff04 	addi	r15,ea,-4
        stw   r15,  72(sp)
  a4:	dbc01215 	stw	r15,72(sp)
        /* 
         * Restore the saved registers, so that all general purpose registers 
         * have been restored to their state at the time the interrupt occured.
         */

        ldw   r5,  68(sp)
  a8:	d9401117 	ldw	r5,68(sp)
        ldw   ea,  72(sp)  /* This becomes the PC once eret is executed */
  ac:	df401217 	ldw	ea,72(sp)
        ldw   ra,   0(sp)
  b0:	dfc00017 	ldw	ra,0(sp)

        wrctl estatus, r5
  b4:	2801707a 	wrctl	estatus,r5

        ldw   r1,   8(sp)
  b8:	d8400217 	ldw	at,8(sp)
        ldw   r2,  12(sp)
  bc:	d8800317 	ldw	r2,12(sp)
        ldw   r3,  16(sp)
  c0:	d8c00417 	ldw	r3,16(sp)
        ldw   r4,  20(sp)
  c4:	d9000517 	ldw	r4,20(sp)
        ldw   r5,  24(sp)
  c8:	d9400617 	ldw	r5,24(sp)
        ldw   r6,  28(sp)
  cc:	d9800717 	ldw	r6,28(sp)
        ldw   r7,  32(sp)
  d0:	d9c00817 	ldw	r7,32(sp)

#if defined(ALT_EXCEPTION_STACK) && defined(ALT_STACK_CHECK)
        ldw   et, %gprel(alt_exception_old_stack_limit)(gp)
#endif

        ldw   r8,  36(sp)
  d4:	da000917 	ldw	r8,36(sp)
        ldw   r9,  40(sp)
  d8:	da400a17 	ldw	r9,40(sp)
        ldw   r10, 44(sp)
  dc:	da800b17 	ldw	r10,44(sp)
        ldw   r11, 48(sp)
  e0:	dac00c17 	ldw	r11,48(sp)
        ldw   r12, 52(sp)
  e4:	db000d17 	ldw	r12,52(sp)
        ldw   r13, 56(sp)
  e8:	db400e17 	ldw	r13,56(sp)
        ldw   r14, 60(sp)
  ec:	db800f17 	ldw	r14,60(sp)
        ldw   r15, 64(sp)
  f0:	dbc01017 	ldw	r15,64(sp)
        stw   et, %gprel(alt_stack_limit_value)(gp)
        stw   zero, %gprel(alt_exception_old_stack_limit)(gp)
#endif /* ALT_STACK_CHECK */
        ldw   sp,  76(sp)
#else /* ALT_EXCEPTION_STACK disabled */
        addi  sp, sp, 76
  f4:	dec01304 	addi	sp,sp,76

        /*
         * Return to the interrupted instruction.
         */

        eret
  f8:	ef80083a 	eret

000000fc <alt_irq_handler>:
 * instruction is present if the macro ALT_CI_INTERRUPT_VECTOR defined.
 */

void alt_irq_handler (void) __attribute__ ((section (".exceptions")));
void alt_irq_handler (void)
{
  fc:	defff904 	addi	sp,sp,-28
 100:	dfc00615 	stw	ra,24(sp)
 104:	df000515 	stw	fp,20(sp)
 108:	df000504 	addi	fp,sp,20
  
  /*
   * Notify the operating system that we are at interrupt level.
   */ 
  
  ALT_OS_INT_ENTER();
 10c:	000df180 	call	df18 <OSIntEnter>
#ifndef NIOS2_EIC_PRESENT
static ALT_INLINE alt_u32 ALT_ALWAYS_INLINE alt_irq_pending (void)
{
  alt_u32 active;

  NIOS2_READ_IPENDING (active);
 110:	0005313a 	rdctl	r2,ipending
 114:	e0bffe15 	stw	r2,-8(fp)

  return active;
 118:	e0bffe17 	ldw	r2,-8(fp)
   * Consider the case where the high priority interupt is asserted during
   * the interrupt entry sequence for a lower priority interrupt to see why
   * this is the case.
   */

  active = alt_irq_pending ();
 11c:	e0bffb15 	stw	r2,-20(fp)

  do
  {
    i = 0;
 120:	e03ffd15 	stw	zero,-12(fp)
    mask = 1;
 124:	00800044 	movi	r2,1
 128:	e0bffc15 	stw	r2,-16(fp)
     * called to clear the interrupt condition.
     */

    do
    {
      if (active & mask)
 12c:	e0fffb17 	ldw	r3,-20(fp)
 130:	e0bffc17 	ldw	r2,-16(fp)
 134:	1884703a 	and	r2,r3,r2
 138:	10001526 	beq	r2,zero,190 <alt_irq_handler+0x94>
      { 
#ifdef ALT_ENHANCED_INTERRUPT_API_PRESENT
        alt_irq[i].handler(alt_irq[i].context); 
#else
        alt_irq[i].handler(alt_irq[i].context, i); 
 13c:	008000b4 	movhi	r2,2
 140:	10953d04 	addi	r2,r2,21748
 144:	e0fffd17 	ldw	r3,-12(fp)
 148:	180690fa 	slli	r3,r3,3
 14c:	10c5883a 	add	r2,r2,r3
 150:	10c00017 	ldw	r3,0(r2)
 154:	008000b4 	movhi	r2,2
 158:	10953d04 	addi	r2,r2,21748
 15c:	e13ffd17 	ldw	r4,-12(fp)
 160:	200890fa 	slli	r4,r4,3
 164:	21000104 	addi	r4,r4,4
 168:	1105883a 	add	r2,r2,r4
 16c:	10800017 	ldw	r2,0(r2)
 170:	1009883a 	mov	r4,r2
 174:	e17ffd17 	ldw	r5,-12(fp)
 178:	183ee83a 	callr	r3
#endif
        break;
 17c:	0001883a 	nop
#ifndef NIOS2_EIC_PRESENT
static ALT_INLINE alt_u32 ALT_ALWAYS_INLINE alt_irq_pending (void)
{
  alt_u32 active;

  NIOS2_READ_IPENDING (active);
 180:	0005313a 	rdctl	r2,ipending
 184:	e0bfff15 	stw	r2,-4(fp)

  return active;
 188:	e0bfff17 	ldw	r2,-4(fp)
 18c:	00000706 	br	1ac <alt_irq_handler+0xb0>
      }
      mask <<= 1;
 190:	e0bffc17 	ldw	r2,-16(fp)
 194:	1085883a 	add	r2,r2,r2
 198:	e0bffc15 	stw	r2,-16(fp)
      i++;
 19c:	e0bffd17 	ldw	r2,-12(fp)
 1a0:	10800044 	addi	r2,r2,1
 1a4:	e0bffd15 	stw	r2,-12(fp)

    } while (1);
 1a8:	003fe006 	br	12c <__alt_mem_Flash_flash_data+0xf400012c>

    active = alt_irq_pending ();
 1ac:	e0bffb15 	stw	r2,-20(fp)
    
  } while (active);
 1b0:	e0bffb17 	ldw	r2,-20(fp)
 1b4:	103fda1e 	bne	r2,zero,120 <__alt_mem_Flash_flash_data+0xf4000120>

  /*
   * Notify the operating system that interrupt processing is complete.
   */ 

  ALT_OS_INT_EXIT();
 1b8:	000df940 	call	df94 <OSIntExit>
}
 1bc:	e037883a 	mov	sp,fp
 1c0:	dfc00117 	ldw	ra,4(sp)
 1c4:	df000017 	ldw	fp,0(sp)
 1c8:	dec00204 	addi	sp,sp,8
 1cc:	f800283a 	ret

000001d0 <alt_instruction_exception_entry>:
 * that handler if it has been registered. Absent a handler, it will
 * break break or hang as discussed below.
 */
int 
alt_instruction_exception_entry (alt_u32 exception_pc)
{
 1d0:	defffb04 	addi	sp,sp,-20
 1d4:	dfc00415 	stw	ra,16(sp)
 1d8:	df000315 	stw	fp,12(sp)
 1dc:	df000304 	addi	fp,sp,12
 1e0:	e13fff15 	stw	r4,-4(fp)
 * NIOS2_EXCEPTION_CAUSE_NOT_PRESENT. Your handling routine should
 * check the validity of the cause argument before proceeding.
 */
#ifdef NIOS2_HAS_EXTRA_EXCEPTION_INFO
  /* Get exception cause & "badaddr" */
  NIOS2_READ_EXCEPTION(cause);
 1e4:	000531fa 	rdctl	r2,exception
 1e8:	e0bffd15 	stw	r2,-12(fp)
  cause = ( (cause & NIOS2_EXCEPTION_REG_CAUSE_MASK) >>
 1ec:	e0bffd17 	ldw	r2,-12(fp)
 1f0:	10801f0c 	andi	r2,r2,124
 1f4:	1004d0ba 	srli	r2,r2,2
 1f8:	e0bffd15 	stw	r2,-12(fp)
              NIOS2_EXCEPTION_REG_CAUSE_OFST );

  NIOS2_READ_BADADDR(badaddr);
 1fc:	0005333a 	rdctl	r2,badaddr
 200:	e0bffe15 	stw	r2,-8(fp)
#else
  cause = NIOS2_EXCEPTION_CAUSE_NOT_PRESENT;
  badaddr = 0;
#endif /* NIOS2_HAS_EXTRA_EXCEPTION_INFO */

  if(alt_instruction_exception_handler) {
 204:	d0a8d317 	ldw	r2,-23732(gp)
 208:	10000726 	beq	r2,zero,228 <alt_instruction_exception_entry+0x58>
     * Call handler. Its return value indicates whether the exception-causing
     * instruction should be re-issued. The code that called us,
     * alt_eceptions_entry.S, will look at this value and adjust the ea
     * register as necessary
     */
    return alt_instruction_exception_handler(cause, exception_pc, badaddr);
 20c:	d0a8d317 	ldw	r2,-23732(gp)
 210:	e0fffd17 	ldw	r3,-12(fp)
 214:	1809883a 	mov	r4,r3
 218:	e17fff17 	ldw	r5,-4(fp)
 21c:	e1bffe17 	ldw	r6,-8(fp)
 220:	103ee83a 	callr	r2
 224:	00000206 	br	230 <alt_instruction_exception_entry+0x60>
   *    (a peripheral which negates its interrupt output before its
   *    interrupt handler has been executed will cause spurious interrupts)
   */
  else {
#ifdef NIOS2_HAS_DEBUG_STUB
    NIOS2_BREAK();
 228:	003da03a 	break	0
      ;
#endif /* NIOS2_HAS_DEBUG_STUB */
  }

  /* We should not get here. Remove compiler warning. */
  return NIOS2_EXCEPTION_RETURN_REISSUE_INST;
 22c:	0005883a 	mov	r2,zero
}
 230:	e037883a 	mov	sp,fp
 234:	dfc00117 	ldw	ra,4(sp)
 238:	df000017 	ldw	fp,0(sp)
 23c:	dec00204 	addi	sp,sp,8
 240:	f800283a 	ret

Disassembly of section .text:

00000244 <_start>:

    /*
     * Now that the caches are initialized, set up the stack pointer and global pointer.
     * The values provided by the linker are assumed to be correctly aligned.
     */
    movhi sp, %hi(__alt_stack_pointer)
     244:	06c10034 	movhi	sp,1024
    ori sp, sp, %lo(__alt_stack_pointer)
     248:	dec00014 	ori	sp,sp,0
    movhi gp, %hi(_gp)
     24c:	068000b4 	movhi	gp,2
    ori gp, gp, %lo(_gp)
     250:	d68fd614 	ori	gp,gp,16216
 */
#ifndef ALT_SIM_OPTIMIZE
    /* Log that the BSS is about to be cleared. */
    ALT_LOG_PUTS(alt_log_msg_bss)

    movhi r2, %hi(__bss_start)
     254:	00800074 	movhi	r2,1
    ori r2, r2, %lo(__bss_start)
     258:	10b87c14 	ori	r2,r2,57840

    movhi r3, %hi(__bss_end)
     25c:	00c000b4 	movhi	r3,2
    ori r3, r3, %lo(__bss_end)
     260:	18d57d14 	ori	r3,r3,22004

    beq r2, r3, 1f
     264:	10c00326 	beq	r2,r3,274 <_start+0x30>

0:
    stw zero, (r2)
     268:	10000015 	stw	zero,0(r2)
    addi r2, r2, 4
     26c:	10800104 	addi	r2,r2,4
    bltu r2, r3, 0b
     270:	10fffd36 	bltu	r2,r3,268 <__alt_mem_Flash_flash_data+0xf4000268>
     * section aren't defined until alt_load() has been called).
     */
    mov   et, zero
#endif

    call alt_load
     274:	000cd300 	call	cd30 <alt_load>

    /* Log that alt_main is about to be called. */
    ALT_LOG_PUTS(alt_log_msg_alt_main)

    /* Call the C entry point. It should never return. */
    call alt_main
     278:	000ced40 	call	ced4 <alt_main>

0000027c <alt_after_alt_main>:

    /* Wait in infinite loop in case alt_main does return. */
alt_after_alt_main:
    br alt_after_alt_main
     27c:	003fff06 	br	27c <__alt_mem_Flash_flash_data+0xf400027c>

00000280 <getKey>:
//-------------ps2---------------------------------------
void PS2();
//void convert(unsigned int i);
void print();

char getKey(){
     280:	defffd04 	addi	sp,sp,-12
     284:	dfc00215 	stw	ra,8(sp)
     288:	df000115 	stw	fp,4(sp)
     28c:	df000104 	addi	fp,sp,4
	if(byte1 != breakcode){
     290:	d0a8a717 	ldw	r2,-23908(gp)
     294:	10803c20 	cmpeqi	r2,r2,240
     298:	1000061e 	bne	r2,zero,2b4 <getKey+0x34>
		translate_make_code(KB_ASCII_MAKE_CODE, (char *) byte1, &ascii);
     29c:	d0a8a717 	ldw	r2,-23908(gp)
     2a0:	10803fcc 	andi	r2,r2,255
     2a4:	01000044 	movi	r4,1
     2a8:	100b883a 	mov	r5,r2
     2ac:	d1a8ab04 	addi	r6,gp,-23892
     2b0:	0017f1c0 	call	17f1c <translate_make_code>
	}

	char tempo = ascii;
     2b4:	d0a8ab17 	ldw	r2,-23892(gp)
     2b8:	e0bfff05 	stb	r2,-4(fp)
	printf("test1  %c  %c\n",*ascii, tempo);
     2bc:	d0a8ab17 	ldw	r2,-23892(gp)
     2c0:	10800003 	ldbu	r2,0(r2)
     2c4:	10c03fcc 	andi	r3,r2,255
     2c8:	18c0201c 	xori	r3,r3,128
     2cc:	18ffe004 	addi	r3,r3,-128
     2d0:	e0bfff07 	ldb	r2,-4(fp)
     2d4:	010000b4 	movhi	r4,2
     2d8:	21258d04 	addi	r4,r4,-27084
     2dc:	180b883a 	mov	r5,r3
     2e0:	100d883a 	mov	r6,r2
     2e4:	00006b40 	call	6b4 <printf>
	if((tempo >= '0' && tempo <= '9') || (tempo >='A' && tempo <= 'Z')){
     2e8:	e0bfff07 	ldb	r2,-4(fp)
     2ec:	10800c10 	cmplti	r2,r2,48
     2f0:	1000031e 	bne	r2,zero,300 <getKey+0x80>
     2f4:	e0bfff07 	ldb	r2,-4(fp)
     2f8:	10800e90 	cmplti	r2,r2,58
     2fc:	1000061e 	bne	r2,zero,318 <getKey+0x98>
     300:	e0bfff07 	ldb	r2,-4(fp)
     304:	10801050 	cmplti	r2,r2,65
     308:	1000111e 	bne	r2,zero,350 <getKey+0xd0>
     30c:	e0bfff07 	ldb	r2,-4(fp)
     310:	108016c8 	cmpgei	r2,r2,91
     314:	10000e1e 	bne	r2,zero,350 <getKey+0xd0>
		printf("test2");
     318:	010000b4 	movhi	r4,2
     31c:	21259104 	addi	r4,r4,-27068
     320:	00006b40 	call	6b4 <printf>
		if(tempo >= 'A' && tempo <= 'Z'){
     324:	e0bfff07 	ldb	r2,-4(fp)
     328:	10801050 	cmplti	r2,r2,65
     32c:	1000061e 	bne	r2,zero,348 <getKey+0xc8>
     330:	e0bfff07 	ldb	r2,-4(fp)
     334:	108016c8 	cmpgei	r2,r2,91
     338:	1000031e 	bne	r2,zero,348 <getKey+0xc8>
			tempo = tempo + 32;
     33c:	e0bfff03 	ldbu	r2,-4(fp)
     340:	10800804 	addi	r2,r2,32
     344:	e0bfff05 	stb	r2,-4(fp)
		}
		return tempo;
     348:	e0bfff03 	ldbu	r2,-4(fp)
     34c:	00000106 	br	354 <getKey+0xd4>
	}
	return 0;
     350:	0005883a 	mov	r2,zero
}
     354:	e037883a 	mov	sp,fp
     358:	dfc00117 	ldw	ra,4(sp)
     35c:	df000017 	ldw	fp,0(sp)
     360:	dec00204 	addi	sp,sp,8
     364:	f800283a 	ret

00000368 <task1>:

void task1(void* pdata) {
     368:	defffc04 	addi	sp,sp,-16
     36c:	dfc00315 	stw	ra,12(sp)
     370:	df000215 	stw	fp,8(sp)
     374:	df000204 	addi	fp,sp,8
     378:	e13fff15 	stw	r4,-4(fp)

	while (1) {

			PS2();
     37c:	00005d40 	call	5d4 <PS2>
			VGA_box(0, 0, 319, 239, 0);
     380:	d8000015 	stw	zero,0(sp)
     384:	0009883a 	mov	r4,zero
     388:	000b883a 	mov	r5,zero
     38c:	01804fc4 	movi	r6,319
     390:	01c03bc4 	movi	r7,239
     394:	00004a40 	call	4a4 <VGA_box>
//			convert(byte1);

			//KB_CODE_TYPE decode_mode = KB_ASCII_MAKE_CODE;


			strTemp[0] = getKey();
     398:	00002800 	call	280 <getKey>
     39c:	d0a8a945 	stb	r2,-23899(gp)



			VGA_text(5, 5, strTemp);
     3a0:	01000144 	movi	r4,5
     3a4:	01400144 	movi	r5,5
     3a8:	d1a8a944 	addi	r6,gp,-23899
     3ac:	00005580 	call	558 <VGA_text>


			VGA_box(0, 0, 319, 239, 0);
     3b0:	d8000015 	stw	zero,0(sp)
     3b4:	0009883a 	mov	r4,zero
     3b8:	000b883a 	mov	r5,zero
     3bc:	01804fc4 	movi	r6,319
     3c0:	01c03bc4 	movi	r7,239
     3c4:	00004a40 	call	4a4 <VGA_box>
	}
     3c8:	003fec06 	br	37c <__alt_mem_Flash_flash_data+0xf400037c>

000003cc <VGA_char>:
}

void VGA_char(int x, int y, char * text_ptr) {
     3cc:	defffb04 	addi	sp,sp,-20
     3d0:	df000415 	stw	fp,16(sp)
     3d4:	df000404 	addi	fp,sp,16
     3d8:	e13ffd15 	stw	r4,-12(fp)
     3dc:	e17ffe15 	stw	r5,-8(fp)
     3e0:	e1bfff15 	stw	r6,-4(fp)
	int offset = (y << 7) + x;;
     3e4:	e0bffe17 	ldw	r2,-8(fp)
     3e8:	100691fa 	slli	r3,r2,7
     3ec:	e0bffd17 	ldw	r2,-12(fp)
     3f0:	1885883a 	add	r2,r3,r2
     3f4:	e0bffc15 	stw	r2,-16(fp)
	/* assume that the text string fits on one line */
	*(character_buffer + offset) = *(text_ptr);	// write to the character buffer
     3f8:	d0e00217 	ldw	r3,-32760(gp)
     3fc:	e0bffc17 	ldw	r2,-16(fp)
     400:	1885883a 	add	r2,r3,r2
     404:	e0ffff17 	ldw	r3,-4(fp)
     408:	18c00003 	ldbu	r3,0(r3)
     40c:	10c00005 	stb	r3,0(r2)
}
     410:	e037883a 	mov	sp,fp
     414:	df000017 	ldw	fp,0(sp)
     418:	dec00104 	addi	sp,sp,4
     41c:	f800283a 	ret

00000420 <main>:

int main(void) {
     420:	defff904 	addi	sp,sp,-28
     424:	dfc00615 	stw	ra,24(sp)
     428:	df000515 	stw	fp,20(sp)
     42c:	df000504 	addi	fp,sp,20
	VGA_box(0, 0, 319, 239, 0);
     430:	d8000015 	stw	zero,0(sp)
     434:	0009883a 	mov	r4,zero
     438:	000b883a 	mov	r5,zero
     43c:	01804fc4 	movi	r6,319
     440:	01c03bc4 	movi	r7,239
     444:	00004a40 	call	4a4 <VGA_box>

	OSTaskCreateExt(task1,
     448:	00800044 	movi	r2,1
     44c:	d8800015 	stw	r2,0(sp)
     450:	008000b4 	movhi	r2,2
     454:	10b8b404 	addi	r2,r2,-7472
     458:	d8800115 	stw	r2,4(sp)
     45c:	00820004 	movi	r2,2048
     460:	d8800215 	stw	r2,8(sp)
     464:	d8000315 	stw	zero,12(sp)
     468:	d8000415 	stw	zero,16(sp)
     46c:	01000034 	movhi	r4,0
     470:	2100da04 	addi	r4,r4,872
     474:	000b883a 	mov	r5,zero
     478:	018000b4 	movhi	r6,2
     47c:	3180b304 	addi	r6,r6,716
     480:	01c00044 	movi	r7,1
     484:	0013b880 	call	13b88 <OSTaskCreateExt>
	TASK1_PRIORITY,
	TASK1_PRIORITY, task1_stk,
	TASK_STACKSIZE,
	NULL, 0);

	OSStart();
     488:	000e1e80 	call	e1e8 <OSStart>
	return 0;
     48c:	0005883a 	mov	r2,zero
}
     490:	e037883a 	mov	sp,fp
     494:	dfc00117 	ldw	ra,4(sp)
     498:	df000017 	ldw	fp,0(sp)
     49c:	dec00204 	addi	sp,sp,8
     4a0:	f800283a 	ret

000004a4 <VGA_box>:

void VGA_box(int x1, int y1, int x2, int y2, short pixel_color) {
     4a4:	defff604 	addi	sp,sp,-40
     4a8:	df000915 	stw	fp,36(sp)
     4ac:	df000904 	addi	fp,sp,36
     4b0:	e13ffb15 	stw	r4,-20(fp)
     4b4:	e17ffc15 	stw	r5,-16(fp)
     4b8:	e1bffd15 	stw	r6,-12(fp)
     4bc:	e1fffe15 	stw	r7,-8(fp)
     4c0:	e0800117 	ldw	r2,4(fp)
     4c4:	e0bfff0d 	sth	r2,-4(fp)
	int offset, row, col;
	volatile short * pixel_buffer = (short *) 0x08000000;	// VGA pixel buffer
     4c8:	00820034 	movhi	r2,2048
     4cc:	e0bff915 	stw	r2,-28(fp)

	/* assume that the box coordinates are valid */
	for (row = y1; row <= y2; row++) {
     4d0:	e0bffc17 	ldw	r2,-16(fp)
     4d4:	e0bff715 	stw	r2,-36(fp)
     4d8:	00001806 	br	53c <VGA_box+0x98>
		col = x1;
     4dc:	e0bffb17 	ldw	r2,-20(fp)
     4e0:	e0bff815 	stw	r2,-32(fp)
		while (col <= x2) {
     4e4:	00000f06 	br	524 <VGA_box+0x80>
			offset = (row << 9) + col;
     4e8:	e0bff717 	ldw	r2,-36(fp)
     4ec:	1006927a 	slli	r3,r2,9
     4f0:	e0bff817 	ldw	r2,-32(fp)
     4f4:	1885883a 	add	r2,r3,r2
     4f8:	e0bffa15 	stw	r2,-24(fp)
			*(pixel_buffer + offset) = pixel_color;	// compute halfword address, set pixel
     4fc:	e0bffa17 	ldw	r2,-24(fp)
     500:	1085883a 	add	r2,r2,r2
     504:	1007883a 	mov	r3,r2
     508:	e0bff917 	ldw	r2,-28(fp)
     50c:	10c5883a 	add	r2,r2,r3
     510:	e0ffff0b 	ldhu	r3,-4(fp)
     514:	10c0000d 	sth	r3,0(r2)
			++col;
     518:	e0bff817 	ldw	r2,-32(fp)
     51c:	10800044 	addi	r2,r2,1
     520:	e0bff815 	stw	r2,-32(fp)
	volatile short * pixel_buffer = (short *) 0x08000000;	// VGA pixel buffer

	/* assume that the box coordinates are valid */
	for (row = y1; row <= y2; row++) {
		col = x1;
		while (col <= x2) {
     524:	e0bff817 	ldw	r2,-32(fp)
     528:	e0fffd17 	ldw	r3,-12(fp)
     52c:	18bfee0e 	bge	r3,r2,4e8 <__alt_mem_Flash_flash_data+0xf40004e8>
void VGA_box(int x1, int y1, int x2, int y2, short pixel_color) {
	int offset, row, col;
	volatile short * pixel_buffer = (short *) 0x08000000;	// VGA pixel buffer

	/* assume that the box coordinates are valid */
	for (row = y1; row <= y2; row++) {
     530:	e0bff717 	ldw	r2,-36(fp)
     534:	10800044 	addi	r2,r2,1
     538:	e0bff715 	stw	r2,-36(fp)
     53c:	e0bff717 	ldw	r2,-36(fp)
     540:	e0fffe17 	ldw	r3,-8(fp)
     544:	18bfe50e 	bge	r3,r2,4dc <__alt_mem_Flash_flash_data+0xf40004dc>
			offset = (row << 9) + col;
			*(pixel_buffer + offset) = pixel_color;	// compute halfword address, set pixel
			++col;
		}
	}
}
     548:	e037883a 	mov	sp,fp
     54c:	df000017 	ldw	fp,0(sp)
     550:	dec00104 	addi	sp,sp,4
     554:	f800283a 	ret

00000558 <VGA_text>:
void VGA_text(int x, int y, char * text_ptr) {
     558:	defffb04 	addi	sp,sp,-20
     55c:	df000415 	stw	fp,16(sp)
     560:	df000404 	addi	fp,sp,16
     564:	e13ffd15 	stw	r4,-12(fp)
     568:	e17ffe15 	stw	r5,-8(fp)
     56c:	e1bfff15 	stw	r6,-4(fp)
	int offset;


	/* assume that the text string fits on one line */
	offset = (y << 7) + x;
     570:	e0bffe17 	ldw	r2,-8(fp)
     574:	100691fa 	slli	r3,r2,7
     578:	e0bffd17 	ldw	r2,-12(fp)
     57c:	1885883a 	add	r2,r3,r2
     580:	e0bffc15 	stw	r2,-16(fp)
	while (*(text_ptr)) {
     584:	00000906 	br	5ac <VGA_text+0x54>
		*(character_buffer + offset) = *(text_ptr);	// write to the character buffer
     588:	d0e00217 	ldw	r3,-32760(gp)
     58c:	e0bffc17 	ldw	r2,-16(fp)
     590:	1885883a 	add	r2,r3,r2
     594:	e0ffff17 	ldw	r3,-4(fp)
     598:	18c00003 	ldbu	r3,0(r3)
     59c:	10c00005 	stb	r3,0(r2)
		++text_ptr;
     5a0:	e0bfff17 	ldw	r2,-4(fp)
     5a4:	10800044 	addi	r2,r2,1
     5a8:	e0bfff15 	stw	r2,-4(fp)
	int offset;


	/* assume that the text string fits on one line */
	offset = (y << 7) + x;
	while (*(text_ptr)) {
     5ac:	e0bfff17 	ldw	r2,-4(fp)
     5b0:	10800003 	ldbu	r2,0(r2)
     5b4:	10803fcc 	andi	r2,r2,255
     5b8:	1080201c 	xori	r2,r2,128
     5bc:	10bfe004 	addi	r2,r2,-128
     5c0:	103ff11e 	bne	r2,zero,588 <__alt_mem_Flash_flash_data+0xf4000588>
		*(character_buffer + offset) = *(text_ptr);	// write to the character buffer
		++text_ptr;
		//++offset;
	}
}
     5c4:	e037883a 	mov	sp,fp
     5c8:	df000017 	ldw	fp,0(sp)
     5cc:	dec00104 	addi	sp,sp,4
     5d0:	f800283a 	ret

000005d4 <PS2>:
void PS2() {
     5d4:	deffff04 	addi	sp,sp,-4
     5d8:	df000015 	stw	fp,0(sp)
     5dc:	d839883a 	mov	fp,sp
	PS2_data = *(PS2_ptr);	// read the Data register in the PS/2 port
     5e0:	d0a00117 	ldw	r2,-32764(gp)
     5e4:	10800017 	ldw	r2,0(r2)
     5e8:	d0a8a815 	stw	r2,-23904(gp)
	RAVAIL = (PS2_data & 0xFFFF0000) >> 16;	// extract the RAVAIL field
     5ec:	d0a8a817 	ldw	r2,-23904(gp)
     5f0:	1004d43a 	srli	r2,r2,16
     5f4:	d0a8aa15 	stw	r2,-23896(gp)
	if (RAVAIL > 0){
     5f8:	d0a8aa17 	ldw	r2,-23896(gp)
     5fc:	0080050e 	bge	zero,r2,614 <PS2+0x40>


		/* always save the last three bytes received */
		byte2 = byte1;
     600:	d0a8a717 	ldw	r2,-23908(gp)
     604:	d0a8a615 	stw	r2,-23912(gp)
		byte1 = PS2_data & 0xFF;
     608:	d0a8a817 	ldw	r2,-23904(gp)
     60c:	10803fcc 	andi	r2,r2,255
     610:	d0a8a715 	stw	r2,-23908(gp)



	}
}
     614:	e037883a 	mov	sp,fp
     618:	df000017 	ldw	fp,0(sp)
     61c:	dec00104 	addi	sp,sp,4
     620:	f800283a 	ret

00000624 <convert>:

void convert(unsigned int i){
     624:	defffe04 	addi	sp,sp,-8
     628:	df000115 	stw	fp,4(sp)
     62c:	df000104 	addi	fp,sp,4
     630:	e13fff15 	stw	r4,-4(fp)



	//printf("%c\n", ascii);

}
     634:	e037883a 	mov	sp,fp
     638:	df000017 	ldw	fp,0(sp)
     63c:	dec00104 	addi	sp,sp,4
     640:	f800283a 	ret

00000644 <print>:
void print(){
     644:	defffe04 	addi	sp,sp,-8
     648:	dfc00115 	stw	ra,4(sp)
     64c:	df000015 	stw	fp,0(sp)
     650:	d839883a 	mov	fp,sp
	printf("byte 1: %X, %c, %d\n", byte1, byte1, byte1);
     654:	d168a717 	ldw	r5,-23908(gp)
     658:	d0e8a717 	ldw	r3,-23908(gp)
     65c:	d0a8a717 	ldw	r2,-23908(gp)
     660:	010000b4 	movhi	r4,2
     664:	21259304 	addi	r4,r4,-27060
     668:	180d883a 	mov	r6,r3
     66c:	100f883a 	mov	r7,r2
     670:	00006b40 	call	6b4 <printf>
//	printf("byte 2: %X, %c, %d\n", byte2, byte2, byte2);
//	printf("byte 3: %X, %c, %d\n", byte3, byte3, byte3);
//	printf("PS2_data :%X, %c, %d\n\n", PS2_data, PS2_data, PS2_data);
}
     674:	e037883a 	mov	sp,fp
     678:	dfc00117 	ldw	ra,4(sp)
     67c:	df000017 	ldw	fp,0(sp)
     680:	dec00204 	addi	sp,sp,8
     684:	f800283a 	ret

00000688 <_printf_r>:
     688:	defffd04 	addi	sp,sp,-12
     68c:	dfc00015 	stw	ra,0(sp)
     690:	d9800115 	stw	r6,4(sp)
     694:	d9c00215 	stw	r7,8(sp)
     698:	280d883a 	mov	r6,r5
     69c:	21400217 	ldw	r5,8(r4)
     6a0:	d9c00104 	addi	r7,sp,4
     6a4:	00006f00 	call	6f0 <___vfprintf_internal_r>
     6a8:	dfc00017 	ldw	ra,0(sp)
     6ac:	dec00304 	addi	sp,sp,12
     6b0:	f800283a 	ret

000006b4 <printf>:
     6b4:	defffc04 	addi	sp,sp,-16
     6b8:	dfc00015 	stw	ra,0(sp)
     6bc:	d9400115 	stw	r5,4(sp)
     6c0:	d9800215 	stw	r6,8(sp)
     6c4:	d9c00315 	stw	r7,12(sp)
     6c8:	008000b4 	movhi	r2,2
     6cc:	10afda04 	addi	r2,r2,-16536
     6d0:	10800017 	ldw	r2,0(r2)
     6d4:	200b883a 	mov	r5,r4
     6d8:	d9800104 	addi	r6,sp,4
     6dc:	11000217 	ldw	r4,8(r2)
     6e0:	00026400 	call	2640 <__vfprintf_internal>
     6e4:	dfc00017 	ldw	ra,0(sp)
     6e8:	dec00404 	addi	sp,sp,16
     6ec:	f800283a 	ret

000006f0 <___vfprintf_internal_r>:
     6f0:	deffb604 	addi	sp,sp,-296
     6f4:	dfc04915 	stw	ra,292(sp)
     6f8:	ddc04715 	stw	r23,284(sp)
     6fc:	dd804615 	stw	r22,280(sp)
     700:	282f883a 	mov	r23,r5
     704:	202d883a 	mov	r22,r4
     708:	d9802a15 	stw	r6,168(sp)
     70c:	d9c02d15 	stw	r7,180(sp)
     710:	df004815 	stw	fp,288(sp)
     714:	dd404515 	stw	r21,276(sp)
     718:	dd004415 	stw	r20,272(sp)
     71c:	dcc04315 	stw	r19,268(sp)
     720:	dc804215 	stw	r18,264(sp)
     724:	dc404115 	stw	r17,260(sp)
     728:	dc004015 	stw	r16,256(sp)
     72c:	0004e180 	call	4e18 <_localeconv_r>
     730:	10800017 	ldw	r2,0(r2)
     734:	1009883a 	mov	r4,r2
     738:	d8803515 	stw	r2,212(sp)
     73c:	0006d380 	call	6d38 <strlen>
     740:	d8803815 	stw	r2,224(sp)
     744:	b0000226 	beq	r22,zero,750 <___vfprintf_internal_r+0x60>
     748:	b0800e17 	ldw	r2,56(r22)
     74c:	1000e126 	beq	r2,zero,ad4 <___vfprintf_internal_r+0x3e4>
     750:	b880030b 	ldhu	r2,12(r23)
     754:	10c8000c 	andi	r3,r2,8192
     758:	1800061e 	bne	r3,zero,774 <___vfprintf_internal_r+0x84>
     75c:	b9001917 	ldw	r4,100(r23)
     760:	00f7ffc4 	movi	r3,-8193
     764:	10880014 	ori	r2,r2,8192
     768:	20c6703a 	and	r3,r4,r3
     76c:	b880030d 	sth	r2,12(r23)
     770:	b8c01915 	stw	r3,100(r23)
     774:	10c0020c 	andi	r3,r2,8
     778:	1800a726 	beq	r3,zero,a18 <___vfprintf_internal_r+0x328>
     77c:	b8c00417 	ldw	r3,16(r23)
     780:	1800a526 	beq	r3,zero,a18 <___vfprintf_internal_r+0x328>
     784:	1080068c 	andi	r2,r2,26
     788:	00c00284 	movi	r3,10
     78c:	10c0aa26 	beq	r2,r3,a38 <___vfprintf_internal_r+0x348>
     790:	dac01e04 	addi	r11,sp,120
     794:	db001dc4 	addi	r12,sp,119
     798:	d8800404 	addi	r2,sp,16
     79c:	050000b4 	movhi	r20,2
     7a0:	dac02815 	stw	r11,160(sp)
     7a4:	5b17c83a 	sub	r11,r11,r12
     7a8:	a525a884 	addi	r20,r20,-26974
     7ac:	db002915 	stw	r12,164(sp)
     7b0:	d8801e15 	stw	r2,120(sp)
     7b4:	d8002015 	stw	zero,128(sp)
     7b8:	d8001f15 	stw	zero,124(sp)
     7bc:	d8003315 	stw	zero,204(sp)
     7c0:	d8003715 	stw	zero,220(sp)
     7c4:	d8003915 	stw	zero,228(sp)
     7c8:	1011883a 	mov	r8,r2
     7cc:	d8003b15 	stw	zero,236(sp)
     7d0:	d8003a15 	stw	zero,232(sp)
     7d4:	d8002f15 	stw	zero,188(sp)
     7d8:	dac03c15 	stw	r11,240(sp)
     7dc:	db002a17 	ldw	r12,168(sp)
     7e0:	60800007 	ldb	r2,0(r12)
     7e4:	1000be26 	beq	r2,zero,ae0 <___vfprintf_internal_r+0x3f0>
     7e8:	00c00944 	movi	r3,37
     7ec:	10c0bc26 	beq	r2,r3,ae0 <___vfprintf_internal_r+0x3f0>
     7f0:	6021883a 	mov	r16,r12
     7f4:	00000106 	br	7fc <___vfprintf_internal_r+0x10c>
     7f8:	10c08426 	beq	r2,r3,a0c <___vfprintf_internal_r+0x31c>
     7fc:	84000044 	addi	r16,r16,1
     800:	80800007 	ldb	r2,0(r16)
     804:	103ffc1e 	bne	r2,zero,7f8 <__alt_mem_Flash_flash_data+0xf40007f8>
     808:	dac02a17 	ldw	r11,168(sp)
     80c:	82e3c83a 	sub	r17,r16,r11
     810:	88000f26 	beq	r17,zero,850 <___vfprintf_internal_r+0x160>
     814:	d8c02017 	ldw	r3,128(sp)
     818:	d8801f17 	ldw	r2,124(sp)
     81c:	dac02a17 	ldw	r11,168(sp)
     820:	1c47883a 	add	r3,r3,r17
     824:	10800044 	addi	r2,r2,1
     828:	d8c02015 	stw	r3,128(sp)
     82c:	42c00015 	stw	r11,0(r8)
     830:	44400115 	stw	r17,4(r8)
     834:	d8801f15 	stw	r2,124(sp)
     838:	00c001c4 	movi	r3,7
     83c:	18809316 	blt	r3,r2,a8c <___vfprintf_internal_r+0x39c>
     840:	42000204 	addi	r8,r8,8
     844:	db002f17 	ldw	r12,188(sp)
     848:	6459883a 	add	r12,r12,r17
     84c:	db002f15 	stw	r12,188(sp)
     850:	80800007 	ldb	r2,0(r16)
     854:	10009426 	beq	r2,zero,aa8 <___vfprintf_internal_r+0x3b8>
     858:	80800044 	addi	r2,r16,1
     85c:	84000047 	ldb	r16,1(r16)
     860:	d8002785 	stb	zero,158(sp)
     864:	000d883a 	mov	r6,zero
     868:	027fffc4 	movi	r9,-1
     86c:	d8002e15 	stw	zero,184(sp)
     870:	0023883a 	mov	r17,zero
     874:	01001604 	movi	r4,88
     878:	01400244 	movi	r5,9
     87c:	02800a84 	movi	r10,42
     880:	01c01b04 	movi	r7,108
     884:	10c00044 	addi	r3,r2,1
     888:	80bff804 	addi	r2,r16,-32
     88c:	2082cd36 	bltu	r4,r2,13c4 <___vfprintf_internal_r+0xcd4>
     890:	100490ba 	slli	r2,r2,2
     894:	02c00034 	movhi	r11,0
     898:	5ac22a04 	addi	r11,r11,2216
     89c:	12c5883a 	add	r2,r2,r11
     8a0:	10800017 	ldw	r2,0(r2)
     8a4:	1000683a 	jmp	r2
     8a8:	000011dc 	xori	zero,zero,71
     8ac:	000013c4 	movi	zero,79
     8b0:	000013c4 	movi	zero,79
     8b4:	0000132c 	andhi	zero,zero,76
     8b8:	000013c4 	movi	zero,79
     8bc:	000013c4 	movi	zero,79
     8c0:	000013c4 	movi	zero,79
     8c4:	000013c4 	movi	zero,79
     8c8:	000013c4 	movi	zero,79
     8cc:	000013c4 	movi	zero,79
     8d0:	000011fc 	xorhi	zero,zero,71
     8d4:	00001228 	cmpgeui	zero,zero,72
     8d8:	000013c4 	movi	zero,79
     8dc:	00000ae8 	cmpgeui	zero,zero,43
     8e0:	00000af8 	rdprs	zero,zero,43
     8e4:	000013c4 	movi	zero,79
     8e8:	00000b38 	rdprs	zero,zero,44
     8ec:	00000b48 	cmpgei	zero,zero,45
     8f0:	00000b48 	cmpgei	zero,zero,45
     8f4:	00000b48 	cmpgei	zero,zero,45
     8f8:	00000b48 	cmpgei	zero,zero,45
     8fc:	00000b48 	cmpgei	zero,zero,45
     900:	00000b48 	cmpgei	zero,zero,45
     904:	00000b48 	cmpgei	zero,zero,45
     908:	00000b48 	cmpgei	zero,zero,45
     90c:	00000b48 	cmpgei	zero,zero,45
     910:	000013c4 	movi	zero,79
     914:	000013c4 	movi	zero,79
     918:	000013c4 	movi	zero,79
     91c:	000013c4 	movi	zero,79
     920:	000013c4 	movi	zero,79
     924:	000013c4 	movi	zero,79
     928:	000013c4 	movi	zero,79
     92c:	000013c4 	movi	zero,79
     930:	000013c4 	movi	zero,79
     934:	000013c4 	movi	zero,79
     938:	00000b7c 	xorhi	zero,zero,45
     93c:	00000fec 	andhi	zero,zero,63
     940:	000013c4 	movi	zero,79
     944:	00000fec 	andhi	zero,zero,63
     948:	000013c4 	movi	zero,79
     94c:	000013c4 	movi	zero,79
     950:	000013c4 	movi	zero,79
     954:	000013c4 	movi	zero,79
     958:	000010d8 	cmpnei	zero,zero,67
     95c:	000013c4 	movi	zero,79
     960:	000013c4 	movi	zero,79
     964:	00000f80 	call	f8 <OSCtxSw_SWITCH_PC+0xb8>
     968:	000013c4 	movi	zero,79
     96c:	000013c4 	movi	zero,79
     970:	000013c4 	movi	zero,79
     974:	000013c4 	movi	zero,79
     978:	000013c4 	movi	zero,79
     97c:	00000fbc 	xorhi	zero,zero,62
     980:	000013c4 	movi	zero,79
     984:	000013c4 	movi	zero,79
     988:	00001180 	call	118 <alt_irq_handler+0x1c>
     98c:	000013c4 	movi	zero,79
     990:	000013c4 	movi	zero,79
     994:	000013c4 	movi	zero,79
     998:	000013c4 	movi	zero,79
     99c:	000013c4 	movi	zero,79
     9a0:	000013c4 	movi	zero,79
     9a4:	000013c4 	movi	zero,79
     9a8:	000013c4 	movi	zero,79
     9ac:	000013c4 	movi	zero,79
     9b0:	000013c4 	movi	zero,79
     9b4:	00001238 	rdprs	zero,zero,72
     9b8:	000010e8 	cmpgeui	zero,zero,67
     9bc:	00000fec 	andhi	zero,zero,63
     9c0:	00000fec 	andhi	zero,zero,63
     9c4:	00000fec 	andhi	zero,zero,63
     9c8:	00001128 	cmpgeui	zero,zero,68
     9cc:	000010e8 	cmpgeui	zero,zero,67
     9d0:	000013c4 	movi	zero,79
     9d4:	000013c4 	movi	zero,79
     9d8:	00001138 	rdprs	zero,zero,68
     9dc:	000013c4 	movi	zero,79
     9e0:	0000114c 	andi	zero,zero,69
     9e4:	00001388 	cmpgei	zero,zero,78
     9e8:	00001090 	cmplti	zero,zero,66
     9ec:	0000133c 	xorhi	zero,zero,76
     9f0:	000013c4 	movi	zero,79
     9f4:	00001278 	rdprs	zero,zero,73
     9f8:	000013c4 	movi	zero,79
     9fc:	0000134c 	andi	zero,zero,77
     a00:	000013c4 	movi	zero,79
     a04:	000013c4 	movi	zero,79
     a08:	000012ec 	andhi	zero,zero,75
     a0c:	db002a17 	ldw	r12,168(sp)
     a10:	8323c83a 	sub	r17,r16,r12
     a14:	003f7e06 	br	810 <__alt_mem_Flash_flash_data+0xf4000810>
     a18:	b009883a 	mov	r4,r22
     a1c:	b80b883a 	mov	r5,r23
     a20:	00027200 	call	2720 <__swsetup_r>
     a24:	10000c1e 	bne	r2,zero,a58 <___vfprintf_internal_r+0x368>
     a28:	b880030b 	ldhu	r2,12(r23)
     a2c:	00c00284 	movi	r3,10
     a30:	1080068c 	andi	r2,r2,26
     a34:	10ff561e 	bne	r2,r3,790 <__alt_mem_Flash_flash_data+0xf4000790>
     a38:	b880038f 	ldh	r2,14(r23)
     a3c:	103f5416 	blt	r2,zero,790 <__alt_mem_Flash_flash_data+0xf4000790>
     a40:	d9802a17 	ldw	r6,168(sp)
     a44:	d9c02d17 	ldw	r7,180(sp)
     a48:	b009883a 	mov	r4,r22
     a4c:	b80b883a 	mov	r5,r23
     a50:	00026640 	call	2664 <__sbprintf>
     a54:	00000106 	br	a5c <___vfprintf_internal_r+0x36c>
     a58:	00bfffc4 	movi	r2,-1
     a5c:	dfc04917 	ldw	ra,292(sp)
     a60:	df004817 	ldw	fp,288(sp)
     a64:	ddc04717 	ldw	r23,284(sp)
     a68:	dd804617 	ldw	r22,280(sp)
     a6c:	dd404517 	ldw	r21,276(sp)
     a70:	dd004417 	ldw	r20,272(sp)
     a74:	dcc04317 	ldw	r19,268(sp)
     a78:	dc804217 	ldw	r18,264(sp)
     a7c:	dc404117 	ldw	r17,260(sp)
     a80:	dc004017 	ldw	r16,256(sp)
     a84:	dec04a04 	addi	sp,sp,296
     a88:	f800283a 	ret
     a8c:	b009883a 	mov	r4,r22
     a90:	b80b883a 	mov	r5,r23
     a94:	d9801e04 	addi	r6,sp,120
     a98:	0006ecc0 	call	6ecc <__sprint_r>
     a9c:	1000081e 	bne	r2,zero,ac0 <___vfprintf_internal_r+0x3d0>
     aa0:	da000404 	addi	r8,sp,16
     aa4:	003f6706 	br	844 <__alt_mem_Flash_flash_data+0xf4000844>
     aa8:	d8802017 	ldw	r2,128(sp)
     aac:	10000426 	beq	r2,zero,ac0 <___vfprintf_internal_r+0x3d0>
     ab0:	b009883a 	mov	r4,r22
     ab4:	b80b883a 	mov	r5,r23
     ab8:	d9801e04 	addi	r6,sp,120
     abc:	0006ecc0 	call	6ecc <__sprint_r>
     ac0:	b880030b 	ldhu	r2,12(r23)
     ac4:	1080100c 	andi	r2,r2,64
     ac8:	103fe31e 	bne	r2,zero,a58 <__alt_mem_Flash_flash_data+0xf4000a58>
     acc:	d8802f17 	ldw	r2,188(sp)
     ad0:	003fe206 	br	a5c <__alt_mem_Flash_flash_data+0xf4000a5c>
     ad4:	b009883a 	mov	r4,r22
     ad8:	00047800 	call	4780 <__sinit>
     adc:	003f1c06 	br	750 <__alt_mem_Flash_flash_data+0xf4000750>
     ae0:	dc002a17 	ldw	r16,168(sp)
     ae4:	003f5a06 	br	850 <__alt_mem_Flash_flash_data+0xf4000850>
     ae8:	1805883a 	mov	r2,r3
     aec:	8c400114 	ori	r17,r17,4
     af0:	1c000007 	ldb	r16,0(r3)
     af4:	003f6306 	br	884 <__alt_mem_Flash_flash_data+0xf4000884>
     af8:	1c000007 	ldb	r16,0(r3)
     afc:	18800044 	addi	r2,r3,1
     b00:	8286ad26 	beq	r16,r10,25b8 <___vfprintf_internal_r+0x1ec8>
     b04:	82fff404 	addi	r11,r16,-48
     b08:	1007883a 	mov	r3,r2
     b0c:	0013883a 	mov	r9,zero
     b10:	2aff5d36 	bltu	r5,r11,888 <__alt_mem_Flash_flash_data+0xf4000888>
     b14:	1c000007 	ldb	r16,0(r3)
     b18:	4a4002a4 	muli	r9,r9,10
     b1c:	18c00044 	addi	r3,r3,1
     b20:	5a53883a 	add	r9,r11,r9
     b24:	82fff404 	addi	r11,r16,-48
     b28:	2afffa2e 	bgeu	r5,r11,b14 <__alt_mem_Flash_flash_data+0xf4000b14>
     b2c:	483f560e 	bge	r9,zero,888 <__alt_mem_Flash_flash_data+0xf4000888>
     b30:	027fffc4 	movi	r9,-1
     b34:	003f5406 	br	888 <__alt_mem_Flash_flash_data+0xf4000888>
     b38:	8c402014 	ori	r17,r17,128
     b3c:	1805883a 	mov	r2,r3
     b40:	1c000007 	ldb	r16,0(r3)
     b44:	003f4f06 	br	884 <__alt_mem_Flash_flash_data+0xf4000884>
     b48:	1805883a 	mov	r2,r3
     b4c:	d8002e15 	stw	zero,184(sp)
     b50:	82fff404 	addi	r11,r16,-48
     b54:	0019883a 	mov	r12,zero
     b58:	14000007 	ldb	r16,0(r2)
     b5c:	630002a4 	muli	r12,r12,10
     b60:	18c00044 	addi	r3,r3,1
     b64:	1805883a 	mov	r2,r3
     b68:	62d9883a 	add	r12,r12,r11
     b6c:	82fff404 	addi	r11,r16,-48
     b70:	2afff92e 	bgeu	r5,r11,b58 <__alt_mem_Flash_flash_data+0xf4000b58>
     b74:	db002e15 	stw	r12,184(sp)
     b78:	003f4306 	br	888 <__alt_mem_Flash_flash_data+0xf4000888>
     b7c:	8c400414 	ori	r17,r17,16
     b80:	d8c02a15 	stw	r3,168(sp)
     b84:	d9802785 	stb	r6,158(sp)
     b88:	8880080c 	andi	r2,r17,32
     b8c:	d8c02d17 	ldw	r3,180(sp)
     b90:	10015a26 	beq	r2,zero,10fc <___vfprintf_internal_r+0xa0c>
     b94:	db002d17 	ldw	r12,180(sp)
     b98:	18800117 	ldw	r2,4(r3)
     b9c:	1cc00017 	ldw	r19,0(r3)
     ba0:	63000204 	addi	r12,r12,8
     ba4:	db002d15 	stw	r12,180(sp)
     ba8:	1039883a 	mov	fp,r2
     bac:	10044516 	blt	r2,zero,1cc4 <___vfprintf_internal_r+0x15d4>
     bb0:	dd402783 	ldbu	r21,158(sp)
     bb4:	da403215 	stw	r9,200(sp)
     bb8:	00800044 	movi	r2,1
     bbc:	9f06b03a 	or	r3,r19,fp
     bc0:	48000216 	blt	r9,zero,bcc <___vfprintf_internal_r+0x4dc>
     bc4:	013fdfc4 	movi	r4,-129
     bc8:	8922703a 	and	r17,r17,r4
     bcc:	1802071e 	bne	r3,zero,13ec <___vfprintf_internal_r+0xcfc>
     bd0:	4802fa26 	beq	r9,zero,17bc <___vfprintf_internal_r+0x10cc>
     bd4:	10803fcc 	andi	r2,r2,255
     bd8:	00c00044 	movi	r3,1
     bdc:	10c22926 	beq	r2,r3,1484 <___vfprintf_internal_r+0xd94>
     be0:	00c00084 	movi	r3,2
     be4:	10c31726 	beq	r2,r3,1844 <___vfprintf_internal_r+0x1154>
     be8:	d8c01e04 	addi	r3,sp,120
     bec:	9808d0fa 	srli	r4,r19,3
     bf0:	e00a977a 	slli	r5,fp,29
     bf4:	e038d0fa 	srli	fp,fp,3
     bf8:	9cc001cc 	andi	r19,r19,7
     bfc:	98800c04 	addi	r2,r19,48
     c00:	18ffffc4 	addi	r3,r3,-1
     c04:	2926b03a 	or	r19,r5,r4
     c08:	18800005 	stb	r2,0(r3)
     c0c:	9f08b03a 	or	r4,r19,fp
     c10:	203ff61e 	bne	r4,zero,bec <__alt_mem_Flash_flash_data+0xf4000bec>
     c14:	8900004c 	andi	r4,r17,1
     c18:	d8c03115 	stw	r3,196(sp)
     c1c:	2003931e 	bne	r4,zero,1a6c <___vfprintf_internal_r+0x137c>
     c20:	dac02817 	ldw	r11,160(sp)
     c24:	58e5c83a 	sub	r18,r11,r3
     c28:	9005883a 	mov	r2,r18
     c2c:	9240010e 	bge	r18,r9,c34 <___vfprintf_internal_r+0x544>
     c30:	4805883a 	mov	r2,r9
     c34:	d8802b15 	stw	r2,172(sp)
     c38:	d8003415 	stw	zero,208(sp)
     c3c:	a8803fcc 	andi	r2,r21,255
     c40:	1080201c 	xori	r2,r2,128
     c44:	10bfe004 	addi	r2,r2,-128
     c48:	10000326 	beq	r2,zero,c58 <___vfprintf_internal_r+0x568>
     c4c:	db002b17 	ldw	r12,172(sp)
     c50:	63000044 	addi	r12,r12,1
     c54:	db002b15 	stw	r12,172(sp)
     c58:	88c0008c 	andi	r3,r17,2
     c5c:	d8c02c15 	stw	r3,176(sp)
     c60:	18000326 	beq	r3,zero,c70 <___vfprintf_internal_r+0x580>
     c64:	dac02b17 	ldw	r11,172(sp)
     c68:	5ac00084 	addi	r11,r11,2
     c6c:	dac02b15 	stw	r11,172(sp)
     c70:	8b00210c 	andi	r12,r17,132
     c74:	db003015 	stw	r12,192(sp)
     c78:	6001da1e 	bne	r12,zero,13e4 <___vfprintf_internal_r+0xcf4>
     c7c:	dac02e17 	ldw	r11,184(sp)
     c80:	db002b17 	ldw	r12,172(sp)
     c84:	5b39c83a 	sub	fp,r11,r12
     c88:	0701d60e 	bge	zero,fp,13e4 <___vfprintf_internal_r+0xcf4>
     c8c:	02400404 	movi	r9,16
     c90:	d8c02017 	ldw	r3,128(sp)
     c94:	d8801f17 	ldw	r2,124(sp)
     c98:	4f053c0e 	bge	r9,fp,218c <___vfprintf_internal_r+0x1a9c>
     c9c:	014000b4 	movhi	r5,2
     ca0:	2965ac84 	addi	r5,r5,-26958
     ca4:	d9403615 	stw	r5,216(sp)
     ca8:	482b883a 	mov	r21,r9
     cac:	04c001c4 	movi	r19,7
     cb0:	00000306 	br	cc0 <___vfprintf_internal_r+0x5d0>
     cb4:	e73ffc04 	addi	fp,fp,-16
     cb8:	42000204 	addi	r8,r8,8
     cbc:	af00130e 	bge	r21,fp,d0c <___vfprintf_internal_r+0x61c>
     cc0:	02c000b4 	movhi	r11,2
     cc4:	18c00404 	addi	r3,r3,16
     cc8:	10800044 	addi	r2,r2,1
     ccc:	5ae5ac84 	addi	r11,r11,-26958
     cd0:	42c00015 	stw	r11,0(r8)
     cd4:	45400115 	stw	r21,4(r8)
     cd8:	d8c02015 	stw	r3,128(sp)
     cdc:	d8801f15 	stw	r2,124(sp)
     ce0:	98bff40e 	bge	r19,r2,cb4 <__alt_mem_Flash_flash_data+0xf4000cb4>
     ce4:	b009883a 	mov	r4,r22
     ce8:	b80b883a 	mov	r5,r23
     cec:	d9801e04 	addi	r6,sp,120
     cf0:	0006ecc0 	call	6ecc <__sprint_r>
     cf4:	103f721e 	bne	r2,zero,ac0 <__alt_mem_Flash_flash_data+0xf4000ac0>
     cf8:	e73ffc04 	addi	fp,fp,-16
     cfc:	d8c02017 	ldw	r3,128(sp)
     d00:	d8801f17 	ldw	r2,124(sp)
     d04:	da000404 	addi	r8,sp,16
     d08:	af3fed16 	blt	r21,fp,cc0 <__alt_mem_Flash_flash_data+0xf4000cc0>
     d0c:	db003617 	ldw	r12,216(sp)
     d10:	e0c7883a 	add	r3,fp,r3
     d14:	10800044 	addi	r2,r2,1
     d18:	43000015 	stw	r12,0(r8)
     d1c:	47000115 	stw	fp,4(r8)
     d20:	d8c02015 	stw	r3,128(sp)
     d24:	d8801f15 	stw	r2,124(sp)
     d28:	010001c4 	movi	r4,7
     d2c:	20830e16 	blt	r4,r2,1968 <___vfprintf_internal_r+0x1278>
     d30:	d8802787 	ldb	r2,158(sp)
     d34:	42000204 	addi	r8,r8,8
     d38:	10000c26 	beq	r2,zero,d6c <___vfprintf_internal_r+0x67c>
     d3c:	d8801f17 	ldw	r2,124(sp)
     d40:	d9002784 	addi	r4,sp,158
     d44:	18c00044 	addi	r3,r3,1
     d48:	10800044 	addi	r2,r2,1
     d4c:	41000015 	stw	r4,0(r8)
     d50:	01000044 	movi	r4,1
     d54:	41000115 	stw	r4,4(r8)
     d58:	d8c02015 	stw	r3,128(sp)
     d5c:	d8801f15 	stw	r2,124(sp)
     d60:	010001c4 	movi	r4,7
     d64:	2082a716 	blt	r4,r2,1804 <___vfprintf_internal_r+0x1114>
     d68:	42000204 	addi	r8,r8,8
     d6c:	dac02c17 	ldw	r11,176(sp)
     d70:	58000c26 	beq	r11,zero,da4 <___vfprintf_internal_r+0x6b4>
     d74:	d8801f17 	ldw	r2,124(sp)
     d78:	d9002704 	addi	r4,sp,156
     d7c:	18c00084 	addi	r3,r3,2
     d80:	10800044 	addi	r2,r2,1
     d84:	41000015 	stw	r4,0(r8)
     d88:	01000084 	movi	r4,2
     d8c:	41000115 	stw	r4,4(r8)
     d90:	d8c02015 	stw	r3,128(sp)
     d94:	d8801f15 	stw	r2,124(sp)
     d98:	010001c4 	movi	r4,7
     d9c:	2082a116 	blt	r4,r2,1824 <___vfprintf_internal_r+0x1134>
     da0:	42000204 	addi	r8,r8,8
     da4:	db003017 	ldw	r12,192(sp)
     da8:	00802004 	movi	r2,128
     dac:	60820326 	beq	r12,r2,15bc <___vfprintf_internal_r+0xecc>
     db0:	db003217 	ldw	r12,200(sp)
     db4:	64abc83a 	sub	r21,r12,r18
     db8:	0540260e 	bge	zero,r21,e54 <___vfprintf_internal_r+0x764>
     dbc:	07000404 	movi	fp,16
     dc0:	d8801f17 	ldw	r2,124(sp)
     dc4:	e544570e 	bge	fp,r21,1f24 <___vfprintf_internal_r+0x1834>
     dc8:	014000b4 	movhi	r5,2
     dcc:	2965a884 	addi	r5,r5,-26974
     dd0:	d9402c15 	stw	r5,176(sp)
     dd4:	04c001c4 	movi	r19,7
     dd8:	00000306 	br	de8 <___vfprintf_internal_r+0x6f8>
     ddc:	ad7ffc04 	addi	r21,r21,-16
     de0:	42000204 	addi	r8,r8,8
     de4:	e540110e 	bge	fp,r21,e2c <___vfprintf_internal_r+0x73c>
     de8:	18c00404 	addi	r3,r3,16
     dec:	10800044 	addi	r2,r2,1
     df0:	45000015 	stw	r20,0(r8)
     df4:	47000115 	stw	fp,4(r8)
     df8:	d8c02015 	stw	r3,128(sp)
     dfc:	d8801f15 	stw	r2,124(sp)
     e00:	98bff60e 	bge	r19,r2,ddc <__alt_mem_Flash_flash_data+0xf4000ddc>
     e04:	b009883a 	mov	r4,r22
     e08:	b80b883a 	mov	r5,r23
     e0c:	d9801e04 	addi	r6,sp,120
     e10:	0006ecc0 	call	6ecc <__sprint_r>
     e14:	103f2a1e 	bne	r2,zero,ac0 <__alt_mem_Flash_flash_data+0xf4000ac0>
     e18:	ad7ffc04 	addi	r21,r21,-16
     e1c:	d8c02017 	ldw	r3,128(sp)
     e20:	d8801f17 	ldw	r2,124(sp)
     e24:	da000404 	addi	r8,sp,16
     e28:	e57fef16 	blt	fp,r21,de8 <__alt_mem_Flash_flash_data+0xf4000de8>
     e2c:	dac02c17 	ldw	r11,176(sp)
     e30:	1d47883a 	add	r3,r3,r21
     e34:	10800044 	addi	r2,r2,1
     e38:	42c00015 	stw	r11,0(r8)
     e3c:	45400115 	stw	r21,4(r8)
     e40:	d8c02015 	stw	r3,128(sp)
     e44:	d8801f15 	stw	r2,124(sp)
     e48:	010001c4 	movi	r4,7
     e4c:	20826516 	blt	r4,r2,17e4 <___vfprintf_internal_r+0x10f4>
     e50:	42000204 	addi	r8,r8,8
     e54:	8880400c 	andi	r2,r17,256
     e58:	1001901e 	bne	r2,zero,149c <___vfprintf_internal_r+0xdac>
     e5c:	d8801f17 	ldw	r2,124(sp)
     e60:	db003117 	ldw	r12,196(sp)
     e64:	1c87883a 	add	r3,r3,r18
     e68:	10800044 	addi	r2,r2,1
     e6c:	43000015 	stw	r12,0(r8)
     e70:	44800115 	stw	r18,4(r8)
     e74:	d8c02015 	stw	r3,128(sp)
     e78:	d8801f15 	stw	r2,124(sp)
     e7c:	010001c4 	movi	r4,7
     e80:	20824016 	blt	r4,r2,1784 <___vfprintf_internal_r+0x1094>
     e84:	42000204 	addi	r8,r8,8
     e88:	8c40010c 	andi	r17,r17,4
     e8c:	88003126 	beq	r17,zero,f54 <___vfprintf_internal_r+0x864>
     e90:	db002e17 	ldw	r12,184(sp)
     e94:	dac02b17 	ldw	r11,172(sp)
     e98:	62e1c83a 	sub	r16,r12,r11
     e9c:	04002d0e 	bge	zero,r16,f54 <___vfprintf_internal_r+0x864>
     ea0:	04400404 	movi	r17,16
     ea4:	d8801f17 	ldw	r2,124(sp)
     ea8:	8c05150e 	bge	r17,r16,2300 <___vfprintf_internal_r+0x1c10>
     eac:	010000b4 	movhi	r4,2
     eb0:	2125ac84 	addi	r4,r4,-26958
     eb4:	d9003615 	stw	r4,216(sp)
     eb8:	048001c4 	movi	r18,7
     ebc:	00000306 	br	ecc <___vfprintf_internal_r+0x7dc>
     ec0:	843ffc04 	addi	r16,r16,-16
     ec4:	42000204 	addi	r8,r8,8
     ec8:	8c00130e 	bge	r17,r16,f18 <___vfprintf_internal_r+0x828>
     ecc:	014000b4 	movhi	r5,2
     ed0:	18c00404 	addi	r3,r3,16
     ed4:	10800044 	addi	r2,r2,1
     ed8:	2965ac84 	addi	r5,r5,-26958
     edc:	41400015 	stw	r5,0(r8)
     ee0:	44400115 	stw	r17,4(r8)
     ee4:	d8c02015 	stw	r3,128(sp)
     ee8:	d8801f15 	stw	r2,124(sp)
     eec:	90bff40e 	bge	r18,r2,ec0 <__alt_mem_Flash_flash_data+0xf4000ec0>
     ef0:	b009883a 	mov	r4,r22
     ef4:	b80b883a 	mov	r5,r23
     ef8:	d9801e04 	addi	r6,sp,120
     efc:	0006ecc0 	call	6ecc <__sprint_r>
     f00:	103eef1e 	bne	r2,zero,ac0 <__alt_mem_Flash_flash_data+0xf4000ac0>
     f04:	843ffc04 	addi	r16,r16,-16
     f08:	d8c02017 	ldw	r3,128(sp)
     f0c:	d8801f17 	ldw	r2,124(sp)
     f10:	da000404 	addi	r8,sp,16
     f14:	8c3fed16 	blt	r17,r16,ecc <__alt_mem_Flash_flash_data+0xf4000ecc>
     f18:	dac03617 	ldw	r11,216(sp)
     f1c:	1c07883a 	add	r3,r3,r16
     f20:	10800044 	addi	r2,r2,1
     f24:	42c00015 	stw	r11,0(r8)
     f28:	44000115 	stw	r16,4(r8)
     f2c:	d8c02015 	stw	r3,128(sp)
     f30:	d8801f15 	stw	r2,124(sp)
     f34:	010001c4 	movi	r4,7
     f38:	2080060e 	bge	r4,r2,f54 <___vfprintf_internal_r+0x864>
     f3c:	b009883a 	mov	r4,r22
     f40:	b80b883a 	mov	r5,r23
     f44:	d9801e04 	addi	r6,sp,120
     f48:	0006ecc0 	call	6ecc <__sprint_r>
     f4c:	103edc1e 	bne	r2,zero,ac0 <__alt_mem_Flash_flash_data+0xf4000ac0>
     f50:	d8c02017 	ldw	r3,128(sp)
     f54:	d8802b17 	ldw	r2,172(sp)
     f58:	db002e17 	ldw	r12,184(sp)
     f5c:	1300010e 	bge	r2,r12,f64 <___vfprintf_internal_r+0x874>
     f60:	6005883a 	mov	r2,r12
     f64:	dac02f17 	ldw	r11,188(sp)
     f68:	5897883a 	add	r11,r11,r2
     f6c:	dac02f15 	stw	r11,188(sp)
     f70:	18020c1e 	bne	r3,zero,17a4 <___vfprintf_internal_r+0x10b4>
     f74:	d8001f15 	stw	zero,124(sp)
     f78:	da000404 	addi	r8,sp,16
     f7c:	003e1706 	br	7dc <__alt_mem_Flash_flash_data+0xf40007dc>
     f80:	8c400414 	ori	r17,r17,16
     f84:	d8c02a15 	stw	r3,168(sp)
     f88:	8880080c 	andi	r2,r17,32
     f8c:	10010126 	beq	r2,zero,1394 <___vfprintf_internal_r+0xca4>
     f90:	db002d17 	ldw	r12,180(sp)
     f94:	0005883a 	mov	r2,zero
     f98:	64c00017 	ldw	r19,0(r12)
     f9c:	67000117 	ldw	fp,4(r12)
     fa0:	63000204 	addi	r12,r12,8
     fa4:	db002d15 	stw	r12,180(sp)
     fa8:	9f06b03a 	or	r3,r19,fp
     fac:	d8002785 	stb	zero,158(sp)
     fb0:	da403215 	stw	r9,200(sp)
     fb4:	002b883a 	mov	r21,zero
     fb8:	003f0106 	br	bc0 <__alt_mem_Flash_flash_data+0xf4000bc0>
     fbc:	8c400414 	ori	r17,r17,16
     fc0:	d8c02a15 	stw	r3,168(sp)
     fc4:	8880080c 	andi	r2,r17,32
     fc8:	1000e326 	beq	r2,zero,1358 <___vfprintf_internal_r+0xc68>
     fcc:	dac02d17 	ldw	r11,180(sp)
     fd0:	00800044 	movi	r2,1
     fd4:	5cc00017 	ldw	r19,0(r11)
     fd8:	5f000117 	ldw	fp,4(r11)
     fdc:	5ac00204 	addi	r11,r11,8
     fe0:	dac02d15 	stw	r11,180(sp)
     fe4:	9f06b03a 	or	r3,r19,fp
     fe8:	003ff006 	br	fac <__alt_mem_Flash_flash_data+0xf4000fac>
     fec:	db002d17 	ldw	r12,180(sp)
     ff0:	dac02d17 	ldw	r11,180(sp)
     ff4:	d8c02a15 	stw	r3,168(sp)
     ff8:	63000017 	ldw	r12,0(r12)
     ffc:	5ac00117 	ldw	r11,4(r11)
    1000:	d9802785 	stb	r6,158(sp)
    1004:	6009883a 	mov	r4,r12
    1008:	580b883a 	mov	r5,r11
    100c:	db003715 	stw	r12,220(sp)
    1010:	da003f15 	stw	r8,252(sp)
    1014:	da403e15 	stw	r9,248(sp)
    1018:	dac03915 	stw	r11,228(sp)
    101c:	0006a900 	call	6a90 <__fpclassifyd>
    1020:	db002d17 	ldw	r12,180(sp)
    1024:	04800044 	movi	r18,1
    1028:	da003f17 	ldw	r8,252(sp)
    102c:	64c00204 	addi	r19,r12,8
    1030:	da403e17 	ldw	r9,248(sp)
    1034:	d9003717 	ldw	r4,220(sp)
    1038:	d9403917 	ldw	r5,228(sp)
    103c:	14832b1e 	bne	r2,r18,1cec <___vfprintf_internal_r+0x15fc>
    1040:	000d883a 	mov	r6,zero
    1044:	000f883a 	mov	r7,zero
    1048:	000b6580 	call	b658 <__ledf2>
    104c:	da003f17 	ldw	r8,252(sp)
    1050:	1004b716 	blt	r2,zero,2330 <___vfprintf_internal_r+0x1c40>
    1054:	dd402783 	ldbu	r21,158(sp)
    1058:	008011c4 	movi	r2,71
    105c:	14040e0e 	bge	r2,r16,2098 <___vfprintf_internal_r+0x19a8>
    1060:	00c000b4 	movhi	r3,2
    1064:	18e59904 	addi	r3,r3,-27036
    1068:	d8c03115 	stw	r3,196(sp)
    106c:	02c000c4 	movi	r11,3
    1070:	00bfdfc4 	movi	r2,-129
    1074:	dac02b15 	stw	r11,172(sp)
    1078:	88a2703a 	and	r17,r17,r2
    107c:	dcc02d15 	stw	r19,180(sp)
    1080:	5825883a 	mov	r18,r11
    1084:	d8003215 	stw	zero,200(sp)
    1088:	d8003415 	stw	zero,208(sp)
    108c:	003eeb06 	br	c3c <__alt_mem_Flash_flash_data+0xf4000c3c>
    1090:	db002d17 	ldw	r12,180(sp)
    1094:	00800c04 	movi	r2,48
    1098:	d8802705 	stb	r2,156(sp)
    109c:	64c00017 	ldw	r19,0(r12)
    10a0:	00801e04 	movi	r2,120
    10a4:	d8802745 	stb	r2,157(sp)
    10a8:	008000b4 	movhi	r2,2
    10ac:	10a5a104 	addi	r2,r2,-27004
    10b0:	63000104 	addi	r12,r12,4
    10b4:	d8c02a15 	stw	r3,168(sp)
    10b8:	d8803b15 	stw	r2,236(sp)
    10bc:	0039883a 	mov	fp,zero
    10c0:	8c400094 	ori	r17,r17,2
    10c4:	db002d15 	stw	r12,180(sp)
    10c8:	00800084 	movi	r2,2
    10cc:	04001e04 	movi	r16,120
    10d0:	9807883a 	mov	r3,r19
    10d4:	003fb506 	br	fac <__alt_mem_Flash_flash_data+0xf4000fac>
    10d8:	8c400214 	ori	r17,r17,8
    10dc:	1805883a 	mov	r2,r3
    10e0:	1c000007 	ldb	r16,0(r3)
    10e4:	003de706 	br	884 <__alt_mem_Flash_flash_data+0xf4000884>
    10e8:	d8c02a15 	stw	r3,168(sp)
    10ec:	d9802785 	stb	r6,158(sp)
    10f0:	8880080c 	andi	r2,r17,32
    10f4:	d8c02d17 	ldw	r3,180(sp)
    10f8:	103ea61e 	bne	r2,zero,b94 <__alt_mem_Flash_flash_data+0xf4000b94>
    10fc:	8880040c 	andi	r2,r17,16
    1100:	1002221e 	bne	r2,zero,198c <___vfprintf_internal_r+0x129c>
    1104:	8880100c 	andi	r2,r17,64
    1108:	10022026 	beq	r2,zero,198c <___vfprintf_internal_r+0x129c>
    110c:	1cc0000f 	ldh	r19,0(r3)
    1110:	db002d17 	ldw	r12,180(sp)
    1114:	9839d7fa 	srai	fp,r19,31
    1118:	63000104 	addi	r12,r12,4
    111c:	db002d15 	stw	r12,180(sp)
    1120:	e005883a 	mov	r2,fp
    1124:	003ea106 	br	bac <__alt_mem_Flash_flash_data+0xf4000bac>
    1128:	8c401014 	ori	r17,r17,64
    112c:	1805883a 	mov	r2,r3
    1130:	1c000007 	ldb	r16,0(r3)
    1134:	003dd306 	br	884 <__alt_mem_Flash_flash_data+0xf4000884>
    1138:	1c000007 	ldb	r16,0(r3)
    113c:	81c3e926 	beq	r16,r7,20e4 <___vfprintf_internal_r+0x19f4>
    1140:	8c400414 	ori	r17,r17,16
    1144:	1805883a 	mov	r2,r3
    1148:	003dce06 	br	884 <__alt_mem_Flash_flash_data+0xf4000884>
    114c:	d8c02a15 	stw	r3,168(sp)
    1150:	d9802785 	stb	r6,158(sp)
    1154:	8880080c 	andi	r2,r17,32
    1158:	10034726 	beq	r2,zero,1e78 <___vfprintf_internal_r+0x1788>
    115c:	db002d17 	ldw	r12,180(sp)
    1160:	dac02f17 	ldw	r11,188(sp)
    1164:	60800017 	ldw	r2,0(r12)
    1168:	5807d7fa 	srai	r3,r11,31
    116c:	63000104 	addi	r12,r12,4
    1170:	db002d15 	stw	r12,180(sp)
    1174:	12c00015 	stw	r11,0(r2)
    1178:	10c00115 	stw	r3,4(r2)
    117c:	003d9706 	br	7dc <__alt_mem_Flash_flash_data+0xf40007dc>
    1180:	030000b4 	movhi	r12,2
    1184:	63259c04 	addi	r12,r12,-27024
    1188:	d8c02a15 	stw	r3,168(sp)
    118c:	d9802785 	stb	r6,158(sp)
    1190:	db003b15 	stw	r12,236(sp)
    1194:	88c0080c 	andi	r3,r17,32
    1198:	d8802d17 	ldw	r2,180(sp)
    119c:	18005b26 	beq	r3,zero,130c <___vfprintf_internal_r+0xc1c>
    11a0:	dac02d17 	ldw	r11,180(sp)
    11a4:	14c00017 	ldw	r19,0(r2)
    11a8:	17000117 	ldw	fp,4(r2)
    11ac:	5ac00204 	addi	r11,r11,8
    11b0:	dac02d15 	stw	r11,180(sp)
    11b4:	8880004c 	andi	r2,r17,1
    11b8:	10022926 	beq	r2,zero,1a60 <___vfprintf_internal_r+0x1370>
    11bc:	9f06b03a 	or	r3,r19,fp
    11c0:	18032b26 	beq	r3,zero,1e70 <___vfprintf_internal_r+0x1780>
    11c4:	00800c04 	movi	r2,48
    11c8:	d8802705 	stb	r2,156(sp)
    11cc:	dc002745 	stb	r16,157(sp)
    11d0:	8c400094 	ori	r17,r17,2
    11d4:	00800084 	movi	r2,2
    11d8:	003f7406 	br	fac <__alt_mem_Flash_flash_data+0xf4000fac>
    11dc:	30803fcc 	andi	r2,r6,255
    11e0:	1080201c 	xori	r2,r2,128
    11e4:	10bfe004 	addi	r2,r2,-128
    11e8:	1003351e 	bne	r2,zero,1ec0 <___vfprintf_internal_r+0x17d0>
    11ec:	1805883a 	mov	r2,r3
    11f0:	01800804 	movi	r6,32
    11f4:	1c000007 	ldb	r16,0(r3)
    11f8:	003da206 	br	884 <__alt_mem_Flash_flash_data+0xf4000884>
    11fc:	dac02d17 	ldw	r11,180(sp)
    1200:	db002d17 	ldw	r12,180(sp)
    1204:	5ac00017 	ldw	r11,0(r11)
    1208:	dac02e15 	stw	r11,184(sp)
    120c:	62c00104 	addi	r11,r12,4
    1210:	db002e17 	ldw	r12,184(sp)
    1214:	6003ad16 	blt	r12,zero,20cc <___vfprintf_internal_r+0x19dc>
    1218:	dac02d15 	stw	r11,180(sp)
    121c:	1805883a 	mov	r2,r3
    1220:	1c000007 	ldb	r16,0(r3)
    1224:	003d9706 	br	884 <__alt_mem_Flash_flash_data+0xf4000884>
    1228:	1805883a 	mov	r2,r3
    122c:	01800ac4 	movi	r6,43
    1230:	1c000007 	ldb	r16,0(r3)
    1234:	003d9306 	br	884 <__alt_mem_Flash_flash_data+0xf4000884>
    1238:	db002d17 	ldw	r12,180(sp)
    123c:	d8c02a15 	stw	r3,168(sp)
    1240:	00c00044 	movi	r3,1
    1244:	60800017 	ldw	r2,0(r12)
    1248:	63000104 	addi	r12,r12,4
    124c:	d8c02b15 	stw	r3,172(sp)
    1250:	d8002785 	stb	zero,158(sp)
    1254:	d8801405 	stb	r2,80(sp)
    1258:	db002d15 	stw	r12,180(sp)
    125c:	dac01404 	addi	r11,sp,80
    1260:	1825883a 	mov	r18,r3
    1264:	d8003215 	stw	zero,200(sp)
    1268:	d8003415 	stw	zero,208(sp)
    126c:	dac03115 	stw	r11,196(sp)
    1270:	0005883a 	mov	r2,zero
    1274:	003e7806 	br	c58 <__alt_mem_Flash_flash_data+0xf4000c58>
    1278:	dac02d17 	ldw	r11,180(sp)
    127c:	db002d17 	ldw	r12,180(sp)
    1280:	d8c02a15 	stw	r3,168(sp)
    1284:	5ac00017 	ldw	r11,0(r11)
    1288:	d8002785 	stb	zero,158(sp)
    128c:	64c00104 	addi	r19,r12,4
    1290:	dac03115 	stw	r11,196(sp)
    1294:	5803fe26 	beq	r11,zero,2290 <___vfprintf_internal_r+0x1ba0>
    1298:	d9003117 	ldw	r4,196(sp)
    129c:	4803b416 	blt	r9,zero,2170 <___vfprintf_internal_r+0x1a80>
    12a0:	480d883a 	mov	r6,r9
    12a4:	000b883a 	mov	r5,zero
    12a8:	da003f15 	stw	r8,252(sp)
    12ac:	da403e15 	stw	r9,248(sp)
    12b0:	00057ac0 	call	57ac <memchr>
    12b4:	da003f17 	ldw	r8,252(sp)
    12b8:	da403e17 	ldw	r9,248(sp)
    12bc:	10043026 	beq	r2,zero,2380 <___vfprintf_internal_r+0x1c90>
    12c0:	d8c03117 	ldw	r3,196(sp)
    12c4:	10e5c83a 	sub	r18,r2,r3
    12c8:	4c836b16 	blt	r9,r18,2078 <___vfprintf_internal_r+0x1988>
    12cc:	9005883a 	mov	r2,r18
    12d0:	9003ac16 	blt	r18,zero,2184 <___vfprintf_internal_r+0x1a94>
    12d4:	dd402783 	ldbu	r21,158(sp)
    12d8:	d8802b15 	stw	r2,172(sp)
    12dc:	dcc02d15 	stw	r19,180(sp)
    12e0:	d8003215 	stw	zero,200(sp)
    12e4:	d8003415 	stw	zero,208(sp)
    12e8:	003e5406 	br	c3c <__alt_mem_Flash_flash_data+0xf4000c3c>
    12ec:	008000b4 	movhi	r2,2
    12f0:	10a5a104 	addi	r2,r2,-27004
    12f4:	d8c02a15 	stw	r3,168(sp)
    12f8:	d8803b15 	stw	r2,236(sp)
    12fc:	d9802785 	stb	r6,158(sp)
    1300:	88c0080c 	andi	r3,r17,32
    1304:	d8802d17 	ldw	r2,180(sp)
    1308:	183fa51e 	bne	r3,zero,11a0 <__alt_mem_Flash_flash_data+0xf40011a0>
    130c:	88c0040c 	andi	r3,r17,16
    1310:	1802ee26 	beq	r3,zero,1ecc <___vfprintf_internal_r+0x17dc>
    1314:	db002d17 	ldw	r12,180(sp)
    1318:	14c00017 	ldw	r19,0(r2)
    131c:	0039883a 	mov	fp,zero
    1320:	63000104 	addi	r12,r12,4
    1324:	db002d15 	stw	r12,180(sp)
    1328:	003fa206 	br	11b4 <__alt_mem_Flash_flash_data+0xf40011b4>
    132c:	8c400054 	ori	r17,r17,1
    1330:	1805883a 	mov	r2,r3
    1334:	1c000007 	ldb	r16,0(r3)
    1338:	003d5206 	br	884 <__alt_mem_Flash_flash_data+0xf4000884>
    133c:	8c400814 	ori	r17,r17,32
    1340:	1805883a 	mov	r2,r3
    1344:	1c000007 	ldb	r16,0(r3)
    1348:	003d4e06 	br	884 <__alt_mem_Flash_flash_data+0xf4000884>
    134c:	d8c02a15 	stw	r3,168(sp)
    1350:	8880080c 	andi	r2,r17,32
    1354:	103f1d1e 	bne	r2,zero,fcc <__alt_mem_Flash_flash_data+0xf4000fcc>
    1358:	8880040c 	andi	r2,r17,16
    135c:	1001b81e 	bne	r2,zero,1a40 <___vfprintf_internal_r+0x1350>
    1360:	8880100c 	andi	r2,r17,64
    1364:	1001b626 	beq	r2,zero,1a40 <___vfprintf_internal_r+0x1350>
    1368:	dac02d17 	ldw	r11,180(sp)
    136c:	0039883a 	mov	fp,zero
    1370:	00800044 	movi	r2,1
    1374:	5cc0000b 	ldhu	r19,0(r11)
    1378:	5ac00104 	addi	r11,r11,4
    137c:	dac02d15 	stw	r11,180(sp)
    1380:	9807883a 	mov	r3,r19
    1384:	003f0906 	br	fac <__alt_mem_Flash_flash_data+0xf4000fac>
    1388:	d8c02a15 	stw	r3,168(sp)
    138c:	8880080c 	andi	r2,r17,32
    1390:	103eff1e 	bne	r2,zero,f90 <__alt_mem_Flash_flash_data+0xf4000f90>
    1394:	8880040c 	andi	r2,r17,16
    1398:	1001a11e 	bne	r2,zero,1a20 <___vfprintf_internal_r+0x1330>
    139c:	8880100c 	andi	r2,r17,64
    13a0:	10019f26 	beq	r2,zero,1a20 <___vfprintf_internal_r+0x1330>
    13a4:	db002d17 	ldw	r12,180(sp)
    13a8:	0039883a 	mov	fp,zero
    13ac:	0005883a 	mov	r2,zero
    13b0:	64c0000b 	ldhu	r19,0(r12)
    13b4:	63000104 	addi	r12,r12,4
    13b8:	db002d15 	stw	r12,180(sp)
    13bc:	9807883a 	mov	r3,r19
    13c0:	003efa06 	br	fac <__alt_mem_Flash_flash_data+0xf4000fac>
    13c4:	d8c02a15 	stw	r3,168(sp)
    13c8:	d9802785 	stb	r6,158(sp)
    13cc:	803db626 	beq	r16,zero,aa8 <__alt_mem_Flash_flash_data+0xf4000aa8>
    13d0:	00c00044 	movi	r3,1
    13d4:	d8c02b15 	stw	r3,172(sp)
    13d8:	dc001405 	stb	r16,80(sp)
    13dc:	d8002785 	stb	zero,158(sp)
    13e0:	003f9e06 	br	125c <__alt_mem_Flash_flash_data+0xf400125c>
    13e4:	d8c02017 	ldw	r3,128(sp)
    13e8:	003e5306 	br	d38 <__alt_mem_Flash_flash_data+0xf4000d38>
    13ec:	10803fcc 	andi	r2,r2,255
    13f0:	00c00044 	movi	r3,1
    13f4:	10fdfa1e 	bne	r2,r3,be0 <__alt_mem_Flash_flash_data+0xf4000be0>
    13f8:	e000021e 	bne	fp,zero,1404 <___vfprintf_internal_r+0xd14>
    13fc:	00800244 	movi	r2,9
    1400:	14c0202e 	bgeu	r2,r19,1484 <___vfprintf_internal_r+0xd94>
    1404:	dc002b15 	stw	r16,172(sp)
    1408:	dc402c15 	stw	r17,176(sp)
    140c:	9821883a 	mov	r16,r19
    1410:	e023883a 	mov	r17,fp
    1414:	dc801e04 	addi	r18,sp,120
    1418:	4827883a 	mov	r19,r9
    141c:	4039883a 	mov	fp,r8
    1420:	8009883a 	mov	r4,r16
    1424:	880b883a 	mov	r5,r17
    1428:	01800284 	movi	r6,10
    142c:	000f883a 	mov	r7,zero
    1430:	0009cd00 	call	9cd0 <__umoddi3>
    1434:	10800c04 	addi	r2,r2,48
    1438:	94bfffc4 	addi	r18,r18,-1
    143c:	8009883a 	mov	r4,r16
    1440:	880b883a 	mov	r5,r17
    1444:	01800284 	movi	r6,10
    1448:	000f883a 	mov	r7,zero
    144c:	90800005 	stb	r2,0(r18)
    1450:	00097100 	call	9710 <__udivdi3>
    1454:	1021883a 	mov	r16,r2
    1458:	10c4b03a 	or	r2,r2,r3
    145c:	1823883a 	mov	r17,r3
    1460:	103fef1e 	bne	r2,zero,1420 <__alt_mem_Flash_flash_data+0xf4001420>
    1464:	dac02817 	ldw	r11,160(sp)
    1468:	dc803115 	stw	r18,196(sp)
    146c:	dc002b17 	ldw	r16,172(sp)
    1470:	dc402c17 	ldw	r17,176(sp)
    1474:	9813883a 	mov	r9,r19
    1478:	e011883a 	mov	r8,fp
    147c:	5ca5c83a 	sub	r18,r11,r18
    1480:	003de906 	br	c28 <__alt_mem_Flash_flash_data+0xf4000c28>
    1484:	9cc00c04 	addi	r19,r19,48
    1488:	d8c01dc4 	addi	r3,sp,119
    148c:	dcc01dc5 	stb	r19,119(sp)
    1490:	dc803c17 	ldw	r18,240(sp)
    1494:	d8c03115 	stw	r3,196(sp)
    1498:	003de306 	br	c28 <__alt_mem_Flash_flash_data+0xf4000c28>
    149c:	00801944 	movi	r2,101
    14a0:	1400710e 	bge	r2,r16,1668 <___vfprintf_internal_r+0xf78>
    14a4:	d9003717 	ldw	r4,220(sp)
    14a8:	d9403917 	ldw	r5,228(sp)
    14ac:	000d883a 	mov	r6,zero
    14b0:	000f883a 	mov	r7,zero
    14b4:	d8c03d15 	stw	r3,244(sp)
    14b8:	da003f15 	stw	r8,252(sp)
    14bc:	000b4f40 	call	b4f4 <__eqdf2>
    14c0:	d8c03d17 	ldw	r3,244(sp)
    14c4:	da003f17 	ldw	r8,252(sp)
    14c8:	1000ef1e 	bne	r2,zero,1888 <___vfprintf_internal_r+0x1198>
    14cc:	d8801f17 	ldw	r2,124(sp)
    14d0:	010000b4 	movhi	r4,2
    14d4:	2125a804 	addi	r4,r4,-26976
    14d8:	18c00044 	addi	r3,r3,1
    14dc:	10800044 	addi	r2,r2,1
    14e0:	41000015 	stw	r4,0(r8)
    14e4:	01000044 	movi	r4,1
    14e8:	41000115 	stw	r4,4(r8)
    14ec:	d8c02015 	stw	r3,128(sp)
    14f0:	d8801f15 	stw	r2,124(sp)
    14f4:	010001c4 	movi	r4,7
    14f8:	20828e16 	blt	r4,r2,1f34 <___vfprintf_internal_r+0x1844>
    14fc:	42000204 	addi	r8,r8,8
    1500:	d8802617 	ldw	r2,152(sp)
    1504:	dac03317 	ldw	r11,204(sp)
    1508:	12c00216 	blt	r2,r11,1514 <___vfprintf_internal_r+0xe24>
    150c:	8880004c 	andi	r2,r17,1
    1510:	103e5d26 	beq	r2,zero,e88 <__alt_mem_Flash_flash_data+0xf4000e88>
    1514:	db003817 	ldw	r12,224(sp)
    1518:	d8801f17 	ldw	r2,124(sp)
    151c:	dac03517 	ldw	r11,212(sp)
    1520:	1b07883a 	add	r3,r3,r12
    1524:	10800044 	addi	r2,r2,1
    1528:	42c00015 	stw	r11,0(r8)
    152c:	43000115 	stw	r12,4(r8)
    1530:	d8c02015 	stw	r3,128(sp)
    1534:	d8801f15 	stw	r2,124(sp)
    1538:	010001c4 	movi	r4,7
    153c:	2082ed16 	blt	r4,r2,20f4 <___vfprintf_internal_r+0x1a04>
    1540:	42000204 	addi	r8,r8,8
    1544:	db003317 	ldw	r12,204(sp)
    1548:	643fffc4 	addi	r16,r12,-1
    154c:	043e4e0e 	bge	zero,r16,e88 <__alt_mem_Flash_flash_data+0xf4000e88>
    1550:	04800404 	movi	r18,16
    1554:	d8801f17 	ldw	r2,124(sp)
    1558:	94007e0e 	bge	r18,r16,1754 <___vfprintf_internal_r+0x1064>
    155c:	014000b4 	movhi	r5,2
    1560:	2965a884 	addi	r5,r5,-26974
    1564:	d9402c15 	stw	r5,176(sp)
    1568:	054001c4 	movi	r21,7
    156c:	00000306 	br	157c <___vfprintf_internal_r+0xe8c>
    1570:	42000204 	addi	r8,r8,8
    1574:	843ffc04 	addi	r16,r16,-16
    1578:	9400790e 	bge	r18,r16,1760 <___vfprintf_internal_r+0x1070>
    157c:	18c00404 	addi	r3,r3,16
    1580:	10800044 	addi	r2,r2,1
    1584:	45000015 	stw	r20,0(r8)
    1588:	44800115 	stw	r18,4(r8)
    158c:	d8c02015 	stw	r3,128(sp)
    1590:	d8801f15 	stw	r2,124(sp)
    1594:	a8bff60e 	bge	r21,r2,1570 <__alt_mem_Flash_flash_data+0xf4001570>
    1598:	b009883a 	mov	r4,r22
    159c:	b80b883a 	mov	r5,r23
    15a0:	d9801e04 	addi	r6,sp,120
    15a4:	0006ecc0 	call	6ecc <__sprint_r>
    15a8:	103d451e 	bne	r2,zero,ac0 <__alt_mem_Flash_flash_data+0xf4000ac0>
    15ac:	d8c02017 	ldw	r3,128(sp)
    15b0:	d8801f17 	ldw	r2,124(sp)
    15b4:	da000404 	addi	r8,sp,16
    15b8:	003fee06 	br	1574 <__alt_mem_Flash_flash_data+0xf4001574>
    15bc:	dac02e17 	ldw	r11,184(sp)
    15c0:	db002b17 	ldw	r12,172(sp)
    15c4:	5b2bc83a 	sub	r21,r11,r12
    15c8:	057df90e 	bge	zero,r21,db0 <__alt_mem_Flash_flash_data+0xf4000db0>
    15cc:	07000404 	movi	fp,16
    15d0:	d8801f17 	ldw	r2,124(sp)
    15d4:	e543640e 	bge	fp,r21,2368 <___vfprintf_internal_r+0x1c78>
    15d8:	014000b4 	movhi	r5,2
    15dc:	2965a884 	addi	r5,r5,-26974
    15e0:	d9402c15 	stw	r5,176(sp)
    15e4:	04c001c4 	movi	r19,7
    15e8:	00000306 	br	15f8 <___vfprintf_internal_r+0xf08>
    15ec:	ad7ffc04 	addi	r21,r21,-16
    15f0:	42000204 	addi	r8,r8,8
    15f4:	e540110e 	bge	fp,r21,163c <___vfprintf_internal_r+0xf4c>
    15f8:	18c00404 	addi	r3,r3,16
    15fc:	10800044 	addi	r2,r2,1
    1600:	45000015 	stw	r20,0(r8)
    1604:	47000115 	stw	fp,4(r8)
    1608:	d8c02015 	stw	r3,128(sp)
    160c:	d8801f15 	stw	r2,124(sp)
    1610:	98bff60e 	bge	r19,r2,15ec <__alt_mem_Flash_flash_data+0xf40015ec>
    1614:	b009883a 	mov	r4,r22
    1618:	b80b883a 	mov	r5,r23
    161c:	d9801e04 	addi	r6,sp,120
    1620:	0006ecc0 	call	6ecc <__sprint_r>
    1624:	103d261e 	bne	r2,zero,ac0 <__alt_mem_Flash_flash_data+0xf4000ac0>
    1628:	ad7ffc04 	addi	r21,r21,-16
    162c:	d8c02017 	ldw	r3,128(sp)
    1630:	d8801f17 	ldw	r2,124(sp)
    1634:	da000404 	addi	r8,sp,16
    1638:	e57fef16 	blt	fp,r21,15f8 <__alt_mem_Flash_flash_data+0xf40015f8>
    163c:	dac02c17 	ldw	r11,176(sp)
    1640:	1d47883a 	add	r3,r3,r21
    1644:	10800044 	addi	r2,r2,1
    1648:	42c00015 	stw	r11,0(r8)
    164c:	45400115 	stw	r21,4(r8)
    1650:	d8c02015 	stw	r3,128(sp)
    1654:	d8801f15 	stw	r2,124(sp)
    1658:	010001c4 	movi	r4,7
    165c:	20819116 	blt	r4,r2,1ca4 <___vfprintf_internal_r+0x15b4>
    1660:	42000204 	addi	r8,r8,8
    1664:	003dd206 	br	db0 <__alt_mem_Flash_flash_data+0xf4000db0>
    1668:	db003317 	ldw	r12,204(sp)
    166c:	00800044 	movi	r2,1
    1670:	18c00044 	addi	r3,r3,1
    1674:	1301530e 	bge	r2,r12,1bc4 <___vfprintf_internal_r+0x14d4>
    1678:	dc001f17 	ldw	r16,124(sp)
    167c:	dac03117 	ldw	r11,196(sp)
    1680:	00800044 	movi	r2,1
    1684:	84000044 	addi	r16,r16,1
    1688:	40800115 	stw	r2,4(r8)
    168c:	42c00015 	stw	r11,0(r8)
    1690:	d8c02015 	stw	r3,128(sp)
    1694:	dc001f15 	stw	r16,124(sp)
    1698:	008001c4 	movi	r2,7
    169c:	14016b16 	blt	r2,r16,1c4c <___vfprintf_internal_r+0x155c>
    16a0:	42000204 	addi	r8,r8,8
    16a4:	db003817 	ldw	r12,224(sp)
    16a8:	dac03517 	ldw	r11,212(sp)
    16ac:	84000044 	addi	r16,r16,1
    16b0:	1b07883a 	add	r3,r3,r12
    16b4:	42c00015 	stw	r11,0(r8)
    16b8:	43000115 	stw	r12,4(r8)
    16bc:	d8c02015 	stw	r3,128(sp)
    16c0:	dc001f15 	stw	r16,124(sp)
    16c4:	008001c4 	movi	r2,7
    16c8:	14016916 	blt	r2,r16,1c70 <___vfprintf_internal_r+0x1580>
    16cc:	44800204 	addi	r18,r8,8
    16d0:	d9003717 	ldw	r4,220(sp)
    16d4:	d9403917 	ldw	r5,228(sp)
    16d8:	000d883a 	mov	r6,zero
    16dc:	000f883a 	mov	r7,zero
    16e0:	d8c03d15 	stw	r3,244(sp)
    16e4:	000b4f40 	call	b4f4 <__eqdf2>
    16e8:	d8c03d17 	ldw	r3,244(sp)
    16ec:	db003317 	ldw	r12,204(sp)
    16f0:	1000ad26 	beq	r2,zero,19a8 <___vfprintf_internal_r+0x12b8>
    16f4:	dac03117 	ldw	r11,196(sp)
    16f8:	60bfffc4 	addi	r2,r12,-1
    16fc:	1887883a 	add	r3,r3,r2
    1700:	59000044 	addi	r4,r11,1
    1704:	84000044 	addi	r16,r16,1
    1708:	90800115 	stw	r2,4(r18)
    170c:	91000015 	stw	r4,0(r18)
    1710:	d8c02015 	stw	r3,128(sp)
    1714:	dc001f15 	stw	r16,124(sp)
    1718:	008001c4 	movi	r2,7
    171c:	14014216 	blt	r2,r16,1c28 <___vfprintf_internal_r+0x1538>
    1720:	94800204 	addi	r18,r18,8
    1724:	dac03a17 	ldw	r11,232(sp)
    1728:	dd4022c4 	addi	r21,sp,139
    172c:	84000044 	addi	r16,r16,1
    1730:	1ac7883a 	add	r3,r3,r11
    1734:	95400015 	stw	r21,0(r18)
    1738:	92c00115 	stw	r11,4(r18)
    173c:	d8c02015 	stw	r3,128(sp)
    1740:	dc001f15 	stw	r16,124(sp)
    1744:	008001c4 	movi	r2,7
    1748:	14000e16 	blt	r2,r16,1784 <___vfprintf_internal_r+0x1094>
    174c:	92000204 	addi	r8,r18,8
    1750:	003dcd06 	br	e88 <__alt_mem_Flash_flash_data+0xf4000e88>
    1754:	010000b4 	movhi	r4,2
    1758:	2125a884 	addi	r4,r4,-26974
    175c:	d9002c15 	stw	r4,176(sp)
    1760:	dac02c17 	ldw	r11,176(sp)
    1764:	1c07883a 	add	r3,r3,r16
    1768:	44000115 	stw	r16,4(r8)
    176c:	42c00015 	stw	r11,0(r8)
    1770:	10800044 	addi	r2,r2,1
    1774:	d8c02015 	stw	r3,128(sp)
    1778:	d8801f15 	stw	r2,124(sp)
    177c:	010001c4 	movi	r4,7
    1780:	20bdc00e 	bge	r4,r2,e84 <__alt_mem_Flash_flash_data+0xf4000e84>
    1784:	b009883a 	mov	r4,r22
    1788:	b80b883a 	mov	r5,r23
    178c:	d9801e04 	addi	r6,sp,120
    1790:	0006ecc0 	call	6ecc <__sprint_r>
    1794:	103cca1e 	bne	r2,zero,ac0 <__alt_mem_Flash_flash_data+0xf4000ac0>
    1798:	d8c02017 	ldw	r3,128(sp)
    179c:	da000404 	addi	r8,sp,16
    17a0:	003db906 	br	e88 <__alt_mem_Flash_flash_data+0xf4000e88>
    17a4:	b009883a 	mov	r4,r22
    17a8:	b80b883a 	mov	r5,r23
    17ac:	d9801e04 	addi	r6,sp,120
    17b0:	0006ecc0 	call	6ecc <__sprint_r>
    17b4:	103def26 	beq	r2,zero,f74 <__alt_mem_Flash_flash_data+0xf4000f74>
    17b8:	003cc106 	br	ac0 <__alt_mem_Flash_flash_data+0xf4000ac0>
    17bc:	10803fcc 	andi	r2,r2,255
    17c0:	1000651e 	bne	r2,zero,1958 <___vfprintf_internal_r+0x1268>
    17c4:	8880004c 	andi	r2,r17,1
    17c8:	10013226 	beq	r2,zero,1c94 <___vfprintf_internal_r+0x15a4>
    17cc:	00800c04 	movi	r2,48
    17d0:	d8c01dc4 	addi	r3,sp,119
    17d4:	d8801dc5 	stb	r2,119(sp)
    17d8:	dc803c17 	ldw	r18,240(sp)
    17dc:	d8c03115 	stw	r3,196(sp)
    17e0:	003d1106 	br	c28 <__alt_mem_Flash_flash_data+0xf4000c28>
    17e4:	b009883a 	mov	r4,r22
    17e8:	b80b883a 	mov	r5,r23
    17ec:	d9801e04 	addi	r6,sp,120
    17f0:	0006ecc0 	call	6ecc <__sprint_r>
    17f4:	103cb21e 	bne	r2,zero,ac0 <__alt_mem_Flash_flash_data+0xf4000ac0>
    17f8:	d8c02017 	ldw	r3,128(sp)
    17fc:	da000404 	addi	r8,sp,16
    1800:	003d9406 	br	e54 <__alt_mem_Flash_flash_data+0xf4000e54>
    1804:	b009883a 	mov	r4,r22
    1808:	b80b883a 	mov	r5,r23
    180c:	d9801e04 	addi	r6,sp,120
    1810:	0006ecc0 	call	6ecc <__sprint_r>
    1814:	103caa1e 	bne	r2,zero,ac0 <__alt_mem_Flash_flash_data+0xf4000ac0>
    1818:	d8c02017 	ldw	r3,128(sp)
    181c:	da000404 	addi	r8,sp,16
    1820:	003d5206 	br	d6c <__alt_mem_Flash_flash_data+0xf4000d6c>
    1824:	b009883a 	mov	r4,r22
    1828:	b80b883a 	mov	r5,r23
    182c:	d9801e04 	addi	r6,sp,120
    1830:	0006ecc0 	call	6ecc <__sprint_r>
    1834:	103ca21e 	bne	r2,zero,ac0 <__alt_mem_Flash_flash_data+0xf4000ac0>
    1838:	d8c02017 	ldw	r3,128(sp)
    183c:	da000404 	addi	r8,sp,16
    1840:	003d5806 	br	da4 <__alt_mem_Flash_flash_data+0xf4000da4>
    1844:	d9403b17 	ldw	r5,236(sp)
    1848:	d8c01e04 	addi	r3,sp,120
    184c:	988003cc 	andi	r2,r19,15
    1850:	e008973a 	slli	r4,fp,28
    1854:	2885883a 	add	r2,r5,r2
    1858:	9826d13a 	srli	r19,r19,4
    185c:	10800003 	ldbu	r2,0(r2)
    1860:	e038d13a 	srli	fp,fp,4
    1864:	18ffffc4 	addi	r3,r3,-1
    1868:	24e6b03a 	or	r19,r4,r19
    186c:	18800005 	stb	r2,0(r3)
    1870:	9f04b03a 	or	r2,r19,fp
    1874:	103ff51e 	bne	r2,zero,184c <__alt_mem_Flash_flash_data+0xf400184c>
    1878:	db002817 	ldw	r12,160(sp)
    187c:	d8c03115 	stw	r3,196(sp)
    1880:	60e5c83a 	sub	r18,r12,r3
    1884:	003ce806 	br	c28 <__alt_mem_Flash_flash_data+0xf4000c28>
    1888:	dc002617 	ldw	r16,152(sp)
    188c:	0401b10e 	bge	zero,r16,1f54 <___vfprintf_internal_r+0x1864>
    1890:	db003117 	ldw	r12,196(sp)
    1894:	dac03317 	ldw	r11,204(sp)
    1898:	62e1883a 	add	r16,r12,r11
    189c:	db003417 	ldw	r12,208(sp)
    18a0:	5825883a 	mov	r18,r11
    18a4:	62c0010e 	bge	r12,r11,18ac <___vfprintf_internal_r+0x11bc>
    18a8:	6025883a 	mov	r18,r12
    18ac:	04800b0e 	bge	zero,r18,18dc <___vfprintf_internal_r+0x11ec>
    18b0:	d8801f17 	ldw	r2,124(sp)
    18b4:	dac03117 	ldw	r11,196(sp)
    18b8:	1c87883a 	add	r3,r3,r18
    18bc:	10800044 	addi	r2,r2,1
    18c0:	42c00015 	stw	r11,0(r8)
    18c4:	44800115 	stw	r18,4(r8)
    18c8:	d8c02015 	stw	r3,128(sp)
    18cc:	d8801f15 	stw	r2,124(sp)
    18d0:	010001c4 	movi	r4,7
    18d4:	20824f16 	blt	r4,r2,2214 <___vfprintf_internal_r+0x1b24>
    18d8:	42000204 	addi	r8,r8,8
    18dc:	90024b16 	blt	r18,zero,220c <___vfprintf_internal_r+0x1b1c>
    18e0:	db003417 	ldw	r12,208(sp)
    18e4:	64a5c83a 	sub	r18,r12,r18
    18e8:	0480730e 	bge	zero,r18,1ab8 <___vfprintf_internal_r+0x13c8>
    18ec:	05400404 	movi	r21,16
    18f0:	d8801f17 	ldw	r2,124(sp)
    18f4:	ac817d0e 	bge	r21,r18,1eec <___vfprintf_internal_r+0x17fc>
    18f8:	014000b4 	movhi	r5,2
    18fc:	2965a884 	addi	r5,r5,-26974
    1900:	d9402c15 	stw	r5,176(sp)
    1904:	070001c4 	movi	fp,7
    1908:	00000306 	br	1918 <___vfprintf_internal_r+0x1228>
    190c:	42000204 	addi	r8,r8,8
    1910:	94bffc04 	addi	r18,r18,-16
    1914:	ac81780e 	bge	r21,r18,1ef8 <___vfprintf_internal_r+0x1808>
    1918:	18c00404 	addi	r3,r3,16
    191c:	10800044 	addi	r2,r2,1
    1920:	45000015 	stw	r20,0(r8)
    1924:	45400115 	stw	r21,4(r8)
    1928:	d8c02015 	stw	r3,128(sp)
    192c:	d8801f15 	stw	r2,124(sp)
    1930:	e0bff60e 	bge	fp,r2,190c <__alt_mem_Flash_flash_data+0xf400190c>
    1934:	b009883a 	mov	r4,r22
    1938:	b80b883a 	mov	r5,r23
    193c:	d9801e04 	addi	r6,sp,120
    1940:	0006ecc0 	call	6ecc <__sprint_r>
    1944:	103c5e1e 	bne	r2,zero,ac0 <__alt_mem_Flash_flash_data+0xf4000ac0>
    1948:	d8c02017 	ldw	r3,128(sp)
    194c:	d8801f17 	ldw	r2,124(sp)
    1950:	da000404 	addi	r8,sp,16
    1954:	003fee06 	br	1910 <__alt_mem_Flash_flash_data+0xf4001910>
    1958:	dac01e04 	addi	r11,sp,120
    195c:	0025883a 	mov	r18,zero
    1960:	dac03115 	stw	r11,196(sp)
    1964:	003cb006 	br	c28 <__alt_mem_Flash_flash_data+0xf4000c28>
    1968:	b009883a 	mov	r4,r22
    196c:	b80b883a 	mov	r5,r23
    1970:	d9801e04 	addi	r6,sp,120
    1974:	0006ecc0 	call	6ecc <__sprint_r>
    1978:	103c511e 	bne	r2,zero,ac0 <__alt_mem_Flash_flash_data+0xf4000ac0>
    197c:	d8c02017 	ldw	r3,128(sp)
    1980:	d8802787 	ldb	r2,158(sp)
    1984:	da000404 	addi	r8,sp,16
    1988:	003ceb06 	br	d38 <__alt_mem_Flash_flash_data+0xf4000d38>
    198c:	1cc00017 	ldw	r19,0(r3)
    1990:	dac02d17 	ldw	r11,180(sp)
    1994:	9839d7fa 	srai	fp,r19,31
    1998:	5ac00104 	addi	r11,r11,4
    199c:	dac02d15 	stw	r11,180(sp)
    19a0:	e005883a 	mov	r2,fp
    19a4:	003c8106 	br	bac <__alt_mem_Flash_flash_data+0xf4000bac>
    19a8:	657fffc4 	addi	r21,r12,-1
    19ac:	057f5d0e 	bge	zero,r21,1724 <__alt_mem_Flash_flash_data+0xf4001724>
    19b0:	07000404 	movi	fp,16
    19b4:	e540900e 	bge	fp,r21,1bf8 <___vfprintf_internal_r+0x1508>
    19b8:	010000b4 	movhi	r4,2
    19bc:	2125a884 	addi	r4,r4,-26974
    19c0:	d9002c15 	stw	r4,176(sp)
    19c4:	01c001c4 	movi	r7,7
    19c8:	00000306 	br	19d8 <___vfprintf_internal_r+0x12e8>
    19cc:	94800204 	addi	r18,r18,8
    19d0:	ad7ffc04 	addi	r21,r21,-16
    19d4:	e5408b0e 	bge	fp,r21,1c04 <___vfprintf_internal_r+0x1514>
    19d8:	18c00404 	addi	r3,r3,16
    19dc:	84000044 	addi	r16,r16,1
    19e0:	95000015 	stw	r20,0(r18)
    19e4:	97000115 	stw	fp,4(r18)
    19e8:	d8c02015 	stw	r3,128(sp)
    19ec:	dc001f15 	stw	r16,124(sp)
    19f0:	3c3ff60e 	bge	r7,r16,19cc <__alt_mem_Flash_flash_data+0xf40019cc>
    19f4:	b009883a 	mov	r4,r22
    19f8:	b80b883a 	mov	r5,r23
    19fc:	d9801e04 	addi	r6,sp,120
    1a00:	d9c03d15 	stw	r7,244(sp)
    1a04:	0006ecc0 	call	6ecc <__sprint_r>
    1a08:	d9c03d17 	ldw	r7,244(sp)
    1a0c:	103c2c1e 	bne	r2,zero,ac0 <__alt_mem_Flash_flash_data+0xf4000ac0>
    1a10:	d8c02017 	ldw	r3,128(sp)
    1a14:	dc001f17 	ldw	r16,124(sp)
    1a18:	dc800404 	addi	r18,sp,16
    1a1c:	003fec06 	br	19d0 <__alt_mem_Flash_flash_data+0xf40019d0>
    1a20:	dac02d17 	ldw	r11,180(sp)
    1a24:	0039883a 	mov	fp,zero
    1a28:	0005883a 	mov	r2,zero
    1a2c:	5cc00017 	ldw	r19,0(r11)
    1a30:	5ac00104 	addi	r11,r11,4
    1a34:	dac02d15 	stw	r11,180(sp)
    1a38:	9807883a 	mov	r3,r19
    1a3c:	003d5b06 	br	fac <__alt_mem_Flash_flash_data+0xf4000fac>
    1a40:	db002d17 	ldw	r12,180(sp)
    1a44:	0039883a 	mov	fp,zero
    1a48:	00800044 	movi	r2,1
    1a4c:	64c00017 	ldw	r19,0(r12)
    1a50:	63000104 	addi	r12,r12,4
    1a54:	db002d15 	stw	r12,180(sp)
    1a58:	9807883a 	mov	r3,r19
    1a5c:	003d5306 	br	fac <__alt_mem_Flash_flash_data+0xf4000fac>
    1a60:	00800084 	movi	r2,2
    1a64:	9f06b03a 	or	r3,r19,fp
    1a68:	003d5006 	br	fac <__alt_mem_Flash_flash_data+0xf4000fac>
    1a6c:	10803fcc 	andi	r2,r2,255
    1a70:	1080201c 	xori	r2,r2,128
    1a74:	10bfe004 	addi	r2,r2,-128
    1a78:	01000c04 	movi	r4,48
    1a7c:	1101a526 	beq	r2,r4,2114 <___vfprintf_internal_r+0x1a24>
    1a80:	dac03117 	ldw	r11,196(sp)
    1a84:	db002817 	ldw	r12,160(sp)
    1a88:	193fffc5 	stb	r4,-1(r3)
    1a8c:	5affffc4 	addi	r11,r11,-1
    1a90:	dac03115 	stw	r11,196(sp)
    1a94:	62e5c83a 	sub	r18,r12,r11
    1a98:	003c6306 	br	c28 <__alt_mem_Flash_flash_data+0xf4000c28>
    1a9c:	b009883a 	mov	r4,r22
    1aa0:	b80b883a 	mov	r5,r23
    1aa4:	d9801e04 	addi	r6,sp,120
    1aa8:	0006ecc0 	call	6ecc <__sprint_r>
    1aac:	103c041e 	bne	r2,zero,ac0 <__alt_mem_Flash_flash_data+0xf4000ac0>
    1ab0:	d8c02017 	ldw	r3,128(sp)
    1ab4:	da000404 	addi	r8,sp,16
    1ab8:	db003117 	ldw	r12,196(sp)
    1abc:	dac03417 	ldw	r11,208(sp)
    1ac0:	d8802617 	ldw	r2,152(sp)
    1ac4:	62e5883a 	add	r18,r12,r11
    1ac8:	db003317 	ldw	r12,204(sp)
    1acc:	13000216 	blt	r2,r12,1ad8 <___vfprintf_internal_r+0x13e8>
    1ad0:	8900004c 	andi	r4,r17,1
    1ad4:	20000c26 	beq	r4,zero,1b08 <___vfprintf_internal_r+0x1418>
    1ad8:	dac03817 	ldw	r11,224(sp)
    1adc:	d9001f17 	ldw	r4,124(sp)
    1ae0:	db003517 	ldw	r12,212(sp)
    1ae4:	1ac7883a 	add	r3,r3,r11
    1ae8:	21000044 	addi	r4,r4,1
    1aec:	43000015 	stw	r12,0(r8)
    1af0:	42c00115 	stw	r11,4(r8)
    1af4:	d8c02015 	stw	r3,128(sp)
    1af8:	d9001f15 	stw	r4,124(sp)
    1afc:	014001c4 	movi	r5,7
    1b00:	2901cc16 	blt	r5,r4,2234 <___vfprintf_internal_r+0x1b44>
    1b04:	42000204 	addi	r8,r8,8
    1b08:	dac03317 	ldw	r11,204(sp)
    1b0c:	8489c83a 	sub	r4,r16,r18
    1b10:	5885c83a 	sub	r2,r11,r2
    1b14:	1021883a 	mov	r16,r2
    1b18:	2080010e 	bge	r4,r2,1b20 <___vfprintf_internal_r+0x1430>
    1b1c:	2021883a 	mov	r16,r4
    1b20:	04000a0e 	bge	zero,r16,1b4c <___vfprintf_internal_r+0x145c>
    1b24:	d9001f17 	ldw	r4,124(sp)
    1b28:	1c07883a 	add	r3,r3,r16
    1b2c:	44800015 	stw	r18,0(r8)
    1b30:	21000044 	addi	r4,r4,1
    1b34:	44000115 	stw	r16,4(r8)
    1b38:	d8c02015 	stw	r3,128(sp)
    1b3c:	d9001f15 	stw	r4,124(sp)
    1b40:	014001c4 	movi	r5,7
    1b44:	2901e316 	blt	r5,r4,22d4 <___vfprintf_internal_r+0x1be4>
    1b48:	42000204 	addi	r8,r8,8
    1b4c:	8001df16 	blt	r16,zero,22cc <___vfprintf_internal_r+0x1bdc>
    1b50:	1421c83a 	sub	r16,r2,r16
    1b54:	043ccc0e 	bge	zero,r16,e88 <__alt_mem_Flash_flash_data+0xf4000e88>
    1b58:	04800404 	movi	r18,16
    1b5c:	d8801f17 	ldw	r2,124(sp)
    1b60:	943efc0e 	bge	r18,r16,1754 <__alt_mem_Flash_flash_data+0xf4001754>
    1b64:	014000b4 	movhi	r5,2
    1b68:	2965a884 	addi	r5,r5,-26974
    1b6c:	d9402c15 	stw	r5,176(sp)
    1b70:	054001c4 	movi	r21,7
    1b74:	00000306 	br	1b84 <___vfprintf_internal_r+0x1494>
    1b78:	42000204 	addi	r8,r8,8
    1b7c:	843ffc04 	addi	r16,r16,-16
    1b80:	943ef70e 	bge	r18,r16,1760 <__alt_mem_Flash_flash_data+0xf4001760>
    1b84:	18c00404 	addi	r3,r3,16
    1b88:	10800044 	addi	r2,r2,1
    1b8c:	45000015 	stw	r20,0(r8)
    1b90:	44800115 	stw	r18,4(r8)
    1b94:	d8c02015 	stw	r3,128(sp)
    1b98:	d8801f15 	stw	r2,124(sp)
    1b9c:	a8bff60e 	bge	r21,r2,1b78 <__alt_mem_Flash_flash_data+0xf4001b78>
    1ba0:	b009883a 	mov	r4,r22
    1ba4:	b80b883a 	mov	r5,r23
    1ba8:	d9801e04 	addi	r6,sp,120
    1bac:	0006ecc0 	call	6ecc <__sprint_r>
    1bb0:	103bc31e 	bne	r2,zero,ac0 <__alt_mem_Flash_flash_data+0xf4000ac0>
    1bb4:	d8c02017 	ldw	r3,128(sp)
    1bb8:	d8801f17 	ldw	r2,124(sp)
    1bbc:	da000404 	addi	r8,sp,16
    1bc0:	003fee06 	br	1b7c <__alt_mem_Flash_flash_data+0xf4001b7c>
    1bc4:	8888703a 	and	r4,r17,r2
    1bc8:	203eab1e 	bne	r4,zero,1678 <__alt_mem_Flash_flash_data+0xf4001678>
    1bcc:	dc001f17 	ldw	r16,124(sp)
    1bd0:	db003117 	ldw	r12,196(sp)
    1bd4:	40800115 	stw	r2,4(r8)
    1bd8:	84000044 	addi	r16,r16,1
    1bdc:	43000015 	stw	r12,0(r8)
    1be0:	d8c02015 	stw	r3,128(sp)
    1be4:	dc001f15 	stw	r16,124(sp)
    1be8:	008001c4 	movi	r2,7
    1bec:	14000e16 	blt	r2,r16,1c28 <___vfprintf_internal_r+0x1538>
    1bf0:	44800204 	addi	r18,r8,8
    1bf4:	003ecb06 	br	1724 <__alt_mem_Flash_flash_data+0xf4001724>
    1bf8:	008000b4 	movhi	r2,2
    1bfc:	10a5a884 	addi	r2,r2,-26974
    1c00:	d8802c15 	stw	r2,176(sp)
    1c04:	dac02c17 	ldw	r11,176(sp)
    1c08:	1d47883a 	add	r3,r3,r21
    1c0c:	84000044 	addi	r16,r16,1
    1c10:	92c00015 	stw	r11,0(r18)
    1c14:	95400115 	stw	r21,4(r18)
    1c18:	d8c02015 	stw	r3,128(sp)
    1c1c:	dc001f15 	stw	r16,124(sp)
    1c20:	008001c4 	movi	r2,7
    1c24:	143ebe0e 	bge	r2,r16,1720 <__alt_mem_Flash_flash_data+0xf4001720>
    1c28:	b009883a 	mov	r4,r22
    1c2c:	b80b883a 	mov	r5,r23
    1c30:	d9801e04 	addi	r6,sp,120
    1c34:	0006ecc0 	call	6ecc <__sprint_r>
    1c38:	103ba11e 	bne	r2,zero,ac0 <__alt_mem_Flash_flash_data+0xf4000ac0>
    1c3c:	d8c02017 	ldw	r3,128(sp)
    1c40:	dc001f17 	ldw	r16,124(sp)
    1c44:	dc800404 	addi	r18,sp,16
    1c48:	003eb606 	br	1724 <__alt_mem_Flash_flash_data+0xf4001724>
    1c4c:	b009883a 	mov	r4,r22
    1c50:	b80b883a 	mov	r5,r23
    1c54:	d9801e04 	addi	r6,sp,120
    1c58:	0006ecc0 	call	6ecc <__sprint_r>
    1c5c:	103b981e 	bne	r2,zero,ac0 <__alt_mem_Flash_flash_data+0xf4000ac0>
    1c60:	d8c02017 	ldw	r3,128(sp)
    1c64:	dc001f17 	ldw	r16,124(sp)
    1c68:	da000404 	addi	r8,sp,16
    1c6c:	003e8d06 	br	16a4 <__alt_mem_Flash_flash_data+0xf40016a4>
    1c70:	b009883a 	mov	r4,r22
    1c74:	b80b883a 	mov	r5,r23
    1c78:	d9801e04 	addi	r6,sp,120
    1c7c:	0006ecc0 	call	6ecc <__sprint_r>
    1c80:	103b8f1e 	bne	r2,zero,ac0 <__alt_mem_Flash_flash_data+0xf4000ac0>
    1c84:	d8c02017 	ldw	r3,128(sp)
    1c88:	dc001f17 	ldw	r16,124(sp)
    1c8c:	dc800404 	addi	r18,sp,16
    1c90:	003e8f06 	br	16d0 <__alt_mem_Flash_flash_data+0xf40016d0>
    1c94:	db001e04 	addi	r12,sp,120
    1c98:	0025883a 	mov	r18,zero
    1c9c:	db003115 	stw	r12,196(sp)
    1ca0:	003be106 	br	c28 <__alt_mem_Flash_flash_data+0xf4000c28>
    1ca4:	b009883a 	mov	r4,r22
    1ca8:	b80b883a 	mov	r5,r23
    1cac:	d9801e04 	addi	r6,sp,120
    1cb0:	0006ecc0 	call	6ecc <__sprint_r>
    1cb4:	103b821e 	bne	r2,zero,ac0 <__alt_mem_Flash_flash_data+0xf4000ac0>
    1cb8:	d8c02017 	ldw	r3,128(sp)
    1cbc:	da000404 	addi	r8,sp,16
    1cc0:	003c3b06 	br	db0 <__alt_mem_Flash_flash_data+0xf4000db0>
    1cc4:	04e7c83a 	sub	r19,zero,r19
    1cc8:	9804c03a 	cmpne	r2,r19,zero
    1ccc:	0739c83a 	sub	fp,zero,fp
    1cd0:	e0b9c83a 	sub	fp,fp,r2
    1cd4:	05400b44 	movi	r21,45
    1cd8:	dd402785 	stb	r21,158(sp)
    1cdc:	da403215 	stw	r9,200(sp)
    1ce0:	00800044 	movi	r2,1
    1ce4:	9f06b03a 	or	r3,r19,fp
    1ce8:	003bb506 	br	bc0 <__alt_mem_Flash_flash_data+0xf4000bc0>
    1cec:	da003f15 	stw	r8,252(sp)
    1cf0:	da403e15 	stw	r9,248(sp)
    1cf4:	0006a900 	call	6a90 <__fpclassifyd>
    1cf8:	da003f17 	ldw	r8,252(sp)
    1cfc:	da403e17 	ldw	r9,248(sp)
    1d00:	1000ce26 	beq	r2,zero,203c <___vfprintf_internal_r+0x194c>
    1d04:	057ff7c4 	movi	r21,-33
    1d08:	00bfffc4 	movi	r2,-1
    1d0c:	856a703a 	and	r21,r16,r21
    1d10:	4881e826 	beq	r9,r2,24b4 <___vfprintf_internal_r+0x1dc4>
    1d14:	008011c4 	movi	r2,71
    1d18:	a881e326 	beq	r21,r2,24a8 <___vfprintf_internal_r+0x1db8>
    1d1c:	db003917 	ldw	r12,228(sp)
    1d20:	8ac04014 	ori	r11,r17,256
    1d24:	dac02d15 	stw	r11,180(sp)
    1d28:	6001ed16 	blt	r12,zero,24e0 <___vfprintf_internal_r+0x1df0>
    1d2c:	dc803917 	ldw	r18,228(sp)
    1d30:	d8002b05 	stb	zero,172(sp)
    1d34:	00801984 	movi	r2,102
    1d38:	80811826 	beq	r16,r2,219c <___vfprintf_internal_r+0x1aac>
    1d3c:	00801184 	movi	r2,70
    1d40:	80811626 	beq	r16,r2,219c <___vfprintf_internal_r+0x1aac>
    1d44:	00801144 	movi	r2,69
    1d48:	a881e926 	beq	r21,r2,24f0 <___vfprintf_internal_r+0x1e00>
    1d4c:	4839883a 	mov	fp,r9
    1d50:	d8802604 	addi	r2,sp,152
    1d54:	d8800115 	stw	r2,4(sp)
    1d58:	d9403717 	ldw	r5,220(sp)
    1d5c:	d8802504 	addi	r2,sp,148
    1d60:	d8800215 	stw	r2,8(sp)
    1d64:	d8802104 	addi	r2,sp,132
    1d68:	df000015 	stw	fp,0(sp)
    1d6c:	d8800315 	stw	r2,12(sp)
    1d70:	b009883a 	mov	r4,r22
    1d74:	900d883a 	mov	r6,r18
    1d78:	01c00084 	movi	r7,2
    1d7c:	da003f15 	stw	r8,252(sp)
    1d80:	da403e15 	stw	r9,248(sp)
    1d84:	0002a740 	call	2a74 <_dtoa_r>
    1d88:	d8803115 	stw	r2,196(sp)
    1d8c:	008019c4 	movi	r2,103
    1d90:	da003f17 	ldw	r8,252(sp)
    1d94:	da403e17 	ldw	r9,248(sp)
    1d98:	80800226 	beq	r16,r2,1da4 <___vfprintf_internal_r+0x16b4>
    1d9c:	008011c4 	movi	r2,71
    1da0:	8081101e 	bne	r16,r2,21e4 <___vfprintf_internal_r+0x1af4>
    1da4:	8880004c 	andi	r2,r17,1
    1da8:	1001dd26 	beq	r2,zero,2520 <___vfprintf_internal_r+0x1e30>
    1dac:	db003117 	ldw	r12,196(sp)
    1db0:	6715883a 	add	r10,r12,fp
    1db4:	d9003717 	ldw	r4,220(sp)
    1db8:	900b883a 	mov	r5,r18
    1dbc:	000d883a 	mov	r6,zero
    1dc0:	000f883a 	mov	r7,zero
    1dc4:	da003f15 	stw	r8,252(sp)
    1dc8:	da403e15 	stw	r9,248(sp)
    1dcc:	da803d15 	stw	r10,244(sp)
    1dd0:	000b4f40 	call	b4f4 <__eqdf2>
    1dd4:	da003f17 	ldw	r8,252(sp)
    1dd8:	da403e17 	ldw	r9,248(sp)
    1ddc:	da803d17 	ldw	r10,244(sp)
    1de0:	10016526 	beq	r2,zero,2378 <___vfprintf_internal_r+0x1c88>
    1de4:	d8802117 	ldw	r2,132(sp)
    1de8:	1280062e 	bgeu	r2,r10,1e04 <___vfprintf_internal_r+0x1714>
    1dec:	01000c04 	movi	r4,48
    1df0:	10c00044 	addi	r3,r2,1
    1df4:	d8c02115 	stw	r3,132(sp)
    1df8:	11000005 	stb	r4,0(r2)
    1dfc:	d8802117 	ldw	r2,132(sp)
    1e00:	12bffb36 	bltu	r2,r10,1df0 <__alt_mem_Flash_flash_data+0xf4001df0>
    1e04:	db003117 	ldw	r12,196(sp)
    1e08:	1305c83a 	sub	r2,r2,r12
    1e0c:	d8803315 	stw	r2,204(sp)
    1e10:	008011c4 	movi	r2,71
    1e14:	a8814d26 	beq	r21,r2,234c <___vfprintf_internal_r+0x1c5c>
    1e18:	00801944 	movi	r2,101
    1e1c:	1402060e 	bge	r2,r16,2638 <___vfprintf_internal_r+0x1f48>
    1e20:	00801984 	movi	r2,102
    1e24:	8081b426 	beq	r16,r2,24f8 <___vfprintf_internal_r+0x1e08>
    1e28:	db002617 	ldw	r12,152(sp)
    1e2c:	db003415 	stw	r12,208(sp)
    1e30:	db003417 	ldw	r12,208(sp)
    1e34:	dac03317 	ldw	r11,204(sp)
    1e38:	62c1a016 	blt	r12,r11,24bc <___vfprintf_internal_r+0x1dcc>
    1e3c:	8c40004c 	andi	r17,r17,1
    1e40:	8801bf1e 	bne	r17,zero,2540 <___vfprintf_internal_r+0x1e50>
    1e44:	6005883a 	mov	r2,r12
    1e48:	6001b316 	blt	r12,zero,2518 <___vfprintf_internal_r+0x1e28>
    1e4c:	dc803417 	ldw	r18,208(sp)
    1e50:	df002b07 	ldb	fp,172(sp)
    1e54:	e0012e1e 	bne	fp,zero,2310 <___vfprintf_internal_r+0x1c20>
    1e58:	dc402d17 	ldw	r17,180(sp)
    1e5c:	dd402783 	ldbu	r21,158(sp)
    1e60:	d8802b15 	stw	r2,172(sp)
    1e64:	dcc02d15 	stw	r19,180(sp)
    1e68:	d8003215 	stw	zero,200(sp)
    1e6c:	003b7306 	br	c3c <__alt_mem_Flash_flash_data+0xf4000c3c>
    1e70:	00800084 	movi	r2,2
    1e74:	003c4d06 	br	fac <__alt_mem_Flash_flash_data+0xf4000fac>
    1e78:	8880040c 	andi	r2,r17,16
    1e7c:	1000091e 	bne	r2,zero,1ea4 <___vfprintf_internal_r+0x17b4>
    1e80:	8c40100c 	andi	r17,r17,64
    1e84:	88000726 	beq	r17,zero,1ea4 <___vfprintf_internal_r+0x17b4>
    1e88:	db002d17 	ldw	r12,180(sp)
    1e8c:	dac02f17 	ldw	r11,188(sp)
    1e90:	60800017 	ldw	r2,0(r12)
    1e94:	63000104 	addi	r12,r12,4
    1e98:	db002d15 	stw	r12,180(sp)
    1e9c:	12c0000d 	sth	r11,0(r2)
    1ea0:	003a4e06 	br	7dc <__alt_mem_Flash_flash_data+0xf40007dc>
    1ea4:	db002d17 	ldw	r12,180(sp)
    1ea8:	dac02f17 	ldw	r11,188(sp)
    1eac:	60800017 	ldw	r2,0(r12)
    1eb0:	63000104 	addi	r12,r12,4
    1eb4:	db002d15 	stw	r12,180(sp)
    1eb8:	12c00015 	stw	r11,0(r2)
    1ebc:	003a4706 	br	7dc <__alt_mem_Flash_flash_data+0xf40007dc>
    1ec0:	1c000007 	ldb	r16,0(r3)
    1ec4:	1805883a 	mov	r2,r3
    1ec8:	003a6e06 	br	884 <__alt_mem_Flash_flash_data+0xf4000884>
    1ecc:	88c0100c 	andi	r3,r17,64
    1ed0:	18006b26 	beq	r3,zero,2080 <___vfprintf_internal_r+0x1990>
    1ed4:	dac02d17 	ldw	r11,180(sp)
    1ed8:	14c0000b 	ldhu	r19,0(r2)
    1edc:	0039883a 	mov	fp,zero
    1ee0:	5ac00104 	addi	r11,r11,4
    1ee4:	dac02d15 	stw	r11,180(sp)
    1ee8:	003cb206 	br	11b4 <__alt_mem_Flash_flash_data+0xf40011b4>
    1eec:	010000b4 	movhi	r4,2
    1ef0:	2125a884 	addi	r4,r4,-26974
    1ef4:	d9002c15 	stw	r4,176(sp)
    1ef8:	dac02c17 	ldw	r11,176(sp)
    1efc:	1c87883a 	add	r3,r3,r18
    1f00:	10800044 	addi	r2,r2,1
    1f04:	42c00015 	stw	r11,0(r8)
    1f08:	44800115 	stw	r18,4(r8)
    1f0c:	d8c02015 	stw	r3,128(sp)
    1f10:	d8801f15 	stw	r2,124(sp)
    1f14:	010001c4 	movi	r4,7
    1f18:	20bee016 	blt	r4,r2,1a9c <__alt_mem_Flash_flash_data+0xf4001a9c>
    1f1c:	42000204 	addi	r8,r8,8
    1f20:	003ee506 	br	1ab8 <__alt_mem_Flash_flash_data+0xf4001ab8>
    1f24:	010000b4 	movhi	r4,2
    1f28:	2125a884 	addi	r4,r4,-26974
    1f2c:	d9002c15 	stw	r4,176(sp)
    1f30:	003bbe06 	br	e2c <__alt_mem_Flash_flash_data+0xf4000e2c>
    1f34:	b009883a 	mov	r4,r22
    1f38:	b80b883a 	mov	r5,r23
    1f3c:	d9801e04 	addi	r6,sp,120
    1f40:	0006ecc0 	call	6ecc <__sprint_r>
    1f44:	103ade1e 	bne	r2,zero,ac0 <__alt_mem_Flash_flash_data+0xf4000ac0>
    1f48:	d8c02017 	ldw	r3,128(sp)
    1f4c:	da000404 	addi	r8,sp,16
    1f50:	003d6b06 	br	1500 <__alt_mem_Flash_flash_data+0xf4001500>
    1f54:	d8801f17 	ldw	r2,124(sp)
    1f58:	030000b4 	movhi	r12,2
    1f5c:	01000044 	movi	r4,1
    1f60:	18c00044 	addi	r3,r3,1
    1f64:	10800044 	addi	r2,r2,1
    1f68:	6325a804 	addi	r12,r12,-26976
    1f6c:	41000115 	stw	r4,4(r8)
    1f70:	43000015 	stw	r12,0(r8)
    1f74:	d8c02015 	stw	r3,128(sp)
    1f78:	d8801f15 	stw	r2,124(sp)
    1f7c:	010001c4 	movi	r4,7
    1f80:	20804916 	blt	r4,r2,20a8 <___vfprintf_internal_r+0x19b8>
    1f84:	42000204 	addi	r8,r8,8
    1f88:	8000041e 	bne	r16,zero,1f9c <___vfprintf_internal_r+0x18ac>
    1f8c:	dac03317 	ldw	r11,204(sp)
    1f90:	5800021e 	bne	r11,zero,1f9c <___vfprintf_internal_r+0x18ac>
    1f94:	8880004c 	andi	r2,r17,1
    1f98:	103bbb26 	beq	r2,zero,e88 <__alt_mem_Flash_flash_data+0xf4000e88>
    1f9c:	db003817 	ldw	r12,224(sp)
    1fa0:	d8801f17 	ldw	r2,124(sp)
    1fa4:	dac03517 	ldw	r11,212(sp)
    1fa8:	1b07883a 	add	r3,r3,r12
    1fac:	10800044 	addi	r2,r2,1
    1fb0:	42c00015 	stw	r11,0(r8)
    1fb4:	43000115 	stw	r12,4(r8)
    1fb8:	d8c02015 	stw	r3,128(sp)
    1fbc:	d8801f15 	stw	r2,124(sp)
    1fc0:	010001c4 	movi	r4,7
    1fc4:	20812e16 	blt	r4,r2,2480 <___vfprintf_internal_r+0x1d90>
    1fc8:	42000204 	addi	r8,r8,8
    1fcc:	0421c83a 	sub	r16,zero,r16
    1fd0:	04005c0e 	bge	zero,r16,2144 <___vfprintf_internal_r+0x1a54>
    1fd4:	04800404 	movi	r18,16
    1fd8:	94009f0e 	bge	r18,r16,2258 <___vfprintf_internal_r+0x1b68>
    1fdc:	010000b4 	movhi	r4,2
    1fe0:	2125a884 	addi	r4,r4,-26974
    1fe4:	d9002c15 	stw	r4,176(sp)
    1fe8:	054001c4 	movi	r21,7
    1fec:	00000306 	br	1ffc <___vfprintf_internal_r+0x190c>
    1ff0:	42000204 	addi	r8,r8,8
    1ff4:	843ffc04 	addi	r16,r16,-16
    1ff8:	94009a0e 	bge	r18,r16,2264 <___vfprintf_internal_r+0x1b74>
    1ffc:	18c00404 	addi	r3,r3,16
    2000:	10800044 	addi	r2,r2,1
    2004:	45000015 	stw	r20,0(r8)
    2008:	44800115 	stw	r18,4(r8)
    200c:	d8c02015 	stw	r3,128(sp)
    2010:	d8801f15 	stw	r2,124(sp)
    2014:	a8bff60e 	bge	r21,r2,1ff0 <__alt_mem_Flash_flash_data+0xf4001ff0>
    2018:	b009883a 	mov	r4,r22
    201c:	b80b883a 	mov	r5,r23
    2020:	d9801e04 	addi	r6,sp,120
    2024:	0006ecc0 	call	6ecc <__sprint_r>
    2028:	103aa51e 	bne	r2,zero,ac0 <__alt_mem_Flash_flash_data+0xf4000ac0>
    202c:	d8c02017 	ldw	r3,128(sp)
    2030:	d8801f17 	ldw	r2,124(sp)
    2034:	da000404 	addi	r8,sp,16
    2038:	003fee06 	br	1ff4 <__alt_mem_Flash_flash_data+0xf4001ff4>
    203c:	008011c4 	movi	r2,71
    2040:	1400be16 	blt	r2,r16,233c <___vfprintf_internal_r+0x1c4c>
    2044:	030000b4 	movhi	r12,2
    2048:	63259a04 	addi	r12,r12,-27032
    204c:	db003115 	stw	r12,196(sp)
    2050:	00c000c4 	movi	r3,3
    2054:	00bfdfc4 	movi	r2,-129
    2058:	d8c02b15 	stw	r3,172(sp)
    205c:	88a2703a 	and	r17,r17,r2
    2060:	dd402783 	ldbu	r21,158(sp)
    2064:	dcc02d15 	stw	r19,180(sp)
    2068:	1825883a 	mov	r18,r3
    206c:	d8003215 	stw	zero,200(sp)
    2070:	d8003415 	stw	zero,208(sp)
    2074:	003af106 	br	c3c <__alt_mem_Flash_flash_data+0xf4000c3c>
    2078:	4825883a 	mov	r18,r9
    207c:	003c9306 	br	12cc <__alt_mem_Flash_flash_data+0xf40012cc>
    2080:	db002d17 	ldw	r12,180(sp)
    2084:	14c00017 	ldw	r19,0(r2)
    2088:	0039883a 	mov	fp,zero
    208c:	63000104 	addi	r12,r12,4
    2090:	db002d15 	stw	r12,180(sp)
    2094:	003c4706 	br	11b4 <__alt_mem_Flash_flash_data+0xf40011b4>
    2098:	008000b4 	movhi	r2,2
    209c:	10a59804 	addi	r2,r2,-27040
    20a0:	d8803115 	stw	r2,196(sp)
    20a4:	003bf106 	br	106c <__alt_mem_Flash_flash_data+0xf400106c>
    20a8:	b009883a 	mov	r4,r22
    20ac:	b80b883a 	mov	r5,r23
    20b0:	d9801e04 	addi	r6,sp,120
    20b4:	0006ecc0 	call	6ecc <__sprint_r>
    20b8:	103a811e 	bne	r2,zero,ac0 <__alt_mem_Flash_flash_data+0xf4000ac0>
    20bc:	dc002617 	ldw	r16,152(sp)
    20c0:	d8c02017 	ldw	r3,128(sp)
    20c4:	da000404 	addi	r8,sp,16
    20c8:	003faf06 	br	1f88 <__alt_mem_Flash_flash_data+0xf4001f88>
    20cc:	db002e17 	ldw	r12,184(sp)
    20d0:	1805883a 	mov	r2,r3
    20d4:	dac02d15 	stw	r11,180(sp)
    20d8:	0319c83a 	sub	r12,zero,r12
    20dc:	db002e15 	stw	r12,184(sp)
    20e0:	003a8206 	br	aec <__alt_mem_Flash_flash_data+0xf4000aec>
    20e4:	18800044 	addi	r2,r3,1
    20e8:	8c400814 	ori	r17,r17,32
    20ec:	1c000047 	ldb	r16,1(r3)
    20f0:	0039e406 	br	884 <__alt_mem_Flash_flash_data+0xf4000884>
    20f4:	b009883a 	mov	r4,r22
    20f8:	b80b883a 	mov	r5,r23
    20fc:	d9801e04 	addi	r6,sp,120
    2100:	0006ecc0 	call	6ecc <__sprint_r>
    2104:	103a6e1e 	bne	r2,zero,ac0 <__alt_mem_Flash_flash_data+0xf4000ac0>
    2108:	d8c02017 	ldw	r3,128(sp)
    210c:	da000404 	addi	r8,sp,16
    2110:	003d0c06 	br	1544 <__alt_mem_Flash_flash_data+0xf4001544>
    2114:	db002817 	ldw	r12,160(sp)
    2118:	d8c03117 	ldw	r3,196(sp)
    211c:	60e5c83a 	sub	r18,r12,r3
    2120:	003ac106 	br	c28 <__alt_mem_Flash_flash_data+0xf4000c28>
    2124:	b009883a 	mov	r4,r22
    2128:	b80b883a 	mov	r5,r23
    212c:	d9801e04 	addi	r6,sp,120
    2130:	0006ecc0 	call	6ecc <__sprint_r>
    2134:	103a621e 	bne	r2,zero,ac0 <__alt_mem_Flash_flash_data+0xf4000ac0>
    2138:	d8c02017 	ldw	r3,128(sp)
    213c:	d8801f17 	ldw	r2,124(sp)
    2140:	da000404 	addi	r8,sp,16
    2144:	db003317 	ldw	r12,204(sp)
    2148:	dac03117 	ldw	r11,196(sp)
    214c:	10800044 	addi	r2,r2,1
    2150:	1b07883a 	add	r3,r3,r12
    2154:	42c00015 	stw	r11,0(r8)
    2158:	43000115 	stw	r12,4(r8)
    215c:	d8c02015 	stw	r3,128(sp)
    2160:	d8801f15 	stw	r2,124(sp)
    2164:	010001c4 	movi	r4,7
    2168:	20bb460e 	bge	r4,r2,e84 <__alt_mem_Flash_flash_data+0xf4000e84>
    216c:	003d8506 	br	1784 <__alt_mem_Flash_flash_data+0xf4001784>
    2170:	da003f15 	stw	r8,252(sp)
    2174:	0006d380 	call	6d38 <strlen>
    2178:	1025883a 	mov	r18,r2
    217c:	da003f17 	ldw	r8,252(sp)
    2180:	903c540e 	bge	r18,zero,12d4 <__alt_mem_Flash_flash_data+0xf40012d4>
    2184:	0005883a 	mov	r2,zero
    2188:	003c5206 	br	12d4 <__alt_mem_Flash_flash_data+0xf40012d4>
    218c:	010000b4 	movhi	r4,2
    2190:	2125ac84 	addi	r4,r4,-26958
    2194:	d9003615 	stw	r4,216(sp)
    2198:	003adc06 	br	d0c <__alt_mem_Flash_flash_data+0xf4000d0c>
    219c:	d8802604 	addi	r2,sp,152
    21a0:	d8800115 	stw	r2,4(sp)
    21a4:	d9403717 	ldw	r5,220(sp)
    21a8:	d8802504 	addi	r2,sp,148
    21ac:	d8800215 	stw	r2,8(sp)
    21b0:	d8802104 	addi	r2,sp,132
    21b4:	da400015 	stw	r9,0(sp)
    21b8:	d8800315 	stw	r2,12(sp)
    21bc:	b009883a 	mov	r4,r22
    21c0:	900d883a 	mov	r6,r18
    21c4:	01c000c4 	movi	r7,3
    21c8:	da003f15 	stw	r8,252(sp)
    21cc:	da403e15 	stw	r9,248(sp)
    21d0:	0002a740 	call	2a74 <_dtoa_r>
    21d4:	da403e17 	ldw	r9,248(sp)
    21d8:	da003f17 	ldw	r8,252(sp)
    21dc:	d8803115 	stw	r2,196(sp)
    21e0:	4839883a 	mov	fp,r9
    21e4:	dac03117 	ldw	r11,196(sp)
    21e8:	00801184 	movi	r2,70
    21ec:	5f15883a 	add	r10,r11,fp
    21f0:	a8bef01e 	bne	r21,r2,1db4 <__alt_mem_Flash_flash_data+0xf4001db4>
    21f4:	59000007 	ldb	r4,0(r11)
    21f8:	00800c04 	movi	r2,48
    21fc:	2080d526 	beq	r4,r2,2554 <___vfprintf_internal_r+0x1e64>
    2200:	d8c02617 	ldw	r3,152(sp)
    2204:	50d5883a 	add	r10,r10,r3
    2208:	003eea06 	br	1db4 <__alt_mem_Flash_flash_data+0xf4001db4>
    220c:	0025883a 	mov	r18,zero
    2210:	003db306 	br	18e0 <__alt_mem_Flash_flash_data+0xf40018e0>
    2214:	b009883a 	mov	r4,r22
    2218:	b80b883a 	mov	r5,r23
    221c:	d9801e04 	addi	r6,sp,120
    2220:	0006ecc0 	call	6ecc <__sprint_r>
    2224:	103a261e 	bne	r2,zero,ac0 <__alt_mem_Flash_flash_data+0xf4000ac0>
    2228:	d8c02017 	ldw	r3,128(sp)
    222c:	da000404 	addi	r8,sp,16
    2230:	003daa06 	br	18dc <__alt_mem_Flash_flash_data+0xf40018dc>
    2234:	b009883a 	mov	r4,r22
    2238:	b80b883a 	mov	r5,r23
    223c:	d9801e04 	addi	r6,sp,120
    2240:	0006ecc0 	call	6ecc <__sprint_r>
    2244:	103a1e1e 	bne	r2,zero,ac0 <__alt_mem_Flash_flash_data+0xf4000ac0>
    2248:	d8802617 	ldw	r2,152(sp)
    224c:	d8c02017 	ldw	r3,128(sp)
    2250:	da000404 	addi	r8,sp,16
    2254:	003e2c06 	br	1b08 <__alt_mem_Flash_flash_data+0xf4001b08>
    2258:	030000b4 	movhi	r12,2
    225c:	6325a884 	addi	r12,r12,-26974
    2260:	db002c15 	stw	r12,176(sp)
    2264:	dac02c17 	ldw	r11,176(sp)
    2268:	1c07883a 	add	r3,r3,r16
    226c:	10800044 	addi	r2,r2,1
    2270:	42c00015 	stw	r11,0(r8)
    2274:	44000115 	stw	r16,4(r8)
    2278:	d8c02015 	stw	r3,128(sp)
    227c:	d8801f15 	stw	r2,124(sp)
    2280:	010001c4 	movi	r4,7
    2284:	20bfa716 	blt	r4,r2,2124 <__alt_mem_Flash_flash_data+0xf4002124>
    2288:	42000204 	addi	r8,r8,8
    228c:	003fad06 	br	2144 <__alt_mem_Flash_flash_data+0xf4002144>
    2290:	00800184 	movi	r2,6
    2294:	1240012e 	bgeu	r2,r9,229c <___vfprintf_internal_r+0x1bac>
    2298:	1013883a 	mov	r9,r2
    229c:	4825883a 	mov	r18,r9
    22a0:	4805883a 	mov	r2,r9
    22a4:	4800c216 	blt	r9,zero,25b0 <___vfprintf_internal_r+0x1ec0>
    22a8:	d8802b15 	stw	r2,172(sp)
    22ac:	008000b4 	movhi	r2,2
    22b0:	10a5a604 	addi	r2,r2,-26984
    22b4:	d8803115 	stw	r2,196(sp)
    22b8:	dcc02d15 	stw	r19,180(sp)
    22bc:	d8003215 	stw	zero,200(sp)
    22c0:	d8003415 	stw	zero,208(sp)
    22c4:	0005883a 	mov	r2,zero
    22c8:	003a6306 	br	c58 <__alt_mem_Flash_flash_data+0xf4000c58>
    22cc:	0021883a 	mov	r16,zero
    22d0:	003e1f06 	br	1b50 <__alt_mem_Flash_flash_data+0xf4001b50>
    22d4:	b009883a 	mov	r4,r22
    22d8:	b80b883a 	mov	r5,r23
    22dc:	d9801e04 	addi	r6,sp,120
    22e0:	0006ecc0 	call	6ecc <__sprint_r>
    22e4:	1039f61e 	bne	r2,zero,ac0 <__alt_mem_Flash_flash_data+0xf4000ac0>
    22e8:	d8802617 	ldw	r2,152(sp)
    22ec:	db003317 	ldw	r12,204(sp)
    22f0:	d8c02017 	ldw	r3,128(sp)
    22f4:	da000404 	addi	r8,sp,16
    22f8:	6085c83a 	sub	r2,r12,r2
    22fc:	003e1306 	br	1b4c <__alt_mem_Flash_flash_data+0xf4001b4c>
    2300:	030000b4 	movhi	r12,2
    2304:	6325ac84 	addi	r12,r12,-26958
    2308:	db003615 	stw	r12,216(sp)
    230c:	003b0206 	br	f18 <__alt_mem_Flash_flash_data+0xf4000f18>
    2310:	00c00b44 	movi	r3,45
    2314:	d8802b15 	stw	r2,172(sp)
    2318:	dc402d17 	ldw	r17,180(sp)
    231c:	d8c02785 	stb	r3,158(sp)
    2320:	dcc02d15 	stw	r19,180(sp)
    2324:	d8003215 	stw	zero,200(sp)
    2328:	00800b44 	movi	r2,45
    232c:	003a4706 	br	c4c <__alt_mem_Flash_flash_data+0xf4000c4c>
    2330:	05400b44 	movi	r21,45
    2334:	dd402785 	stb	r21,158(sp)
    2338:	003b4706 	br	1058 <__alt_mem_Flash_flash_data+0xf4001058>
    233c:	008000b4 	movhi	r2,2
    2340:	10a59b04 	addi	r2,r2,-27028
    2344:	d8803115 	stw	r2,196(sp)
    2348:	003f4106 	br	2050 <__alt_mem_Flash_flash_data+0xf4002050>
    234c:	d8c02617 	ldw	r3,152(sp)
    2350:	00bfff44 	movi	r2,-3
    2354:	18801116 	blt	r3,r2,239c <___vfprintf_internal_r+0x1cac>
    2358:	48c01016 	blt	r9,r3,239c <___vfprintf_internal_r+0x1cac>
    235c:	d8c03415 	stw	r3,208(sp)
    2360:	040019c4 	movi	r16,103
    2364:	003eb206 	br	1e30 <__alt_mem_Flash_flash_data+0xf4001e30>
    2368:	010000b4 	movhi	r4,2
    236c:	2125a884 	addi	r4,r4,-26974
    2370:	d9002c15 	stw	r4,176(sp)
    2374:	003cb106 	br	163c <__alt_mem_Flash_flash_data+0xf400163c>
    2378:	5005883a 	mov	r2,r10
    237c:	003ea106 	br	1e04 <__alt_mem_Flash_flash_data+0xf4001e04>
    2380:	da402b15 	stw	r9,172(sp)
    2384:	dd402783 	ldbu	r21,158(sp)
    2388:	4825883a 	mov	r18,r9
    238c:	dcc02d15 	stw	r19,180(sp)
    2390:	d8003215 	stw	zero,200(sp)
    2394:	d8003415 	stw	zero,208(sp)
    2398:	003a2806 	br	c3c <__alt_mem_Flash_flash_data+0xf4000c3c>
    239c:	843fff84 	addi	r16,r16,-2
    23a0:	1f3fffc4 	addi	fp,r3,-1
    23a4:	df002615 	stw	fp,152(sp)
    23a8:	dc0022c5 	stb	r16,139(sp)
    23ac:	e0009816 	blt	fp,zero,2610 <___vfprintf_internal_r+0x1f20>
    23b0:	00800ac4 	movi	r2,43
    23b4:	d8802305 	stb	r2,140(sp)
    23b8:	00800244 	movi	r2,9
    23bc:	1700750e 	bge	r2,fp,2594 <___vfprintf_internal_r+0x1ea4>
    23c0:	dd4022c4 	addi	r21,sp,139
    23c4:	dc002c15 	stw	r16,176(sp)
    23c8:	4025883a 	mov	r18,r8
    23cc:	a821883a 	mov	r16,r21
    23d0:	e009883a 	mov	r4,fp
    23d4:	01400284 	movi	r5,10
    23d8:	000a3200 	call	a320 <__modsi3>
    23dc:	10800c04 	addi	r2,r2,48
    23e0:	843fffc4 	addi	r16,r16,-1
    23e4:	e009883a 	mov	r4,fp
    23e8:	01400284 	movi	r5,10
    23ec:	80800005 	stb	r2,0(r16)
    23f0:	000a2cc0 	call	a2cc <__divsi3>
    23f4:	1039883a 	mov	fp,r2
    23f8:	00800244 	movi	r2,9
    23fc:	173ff416 	blt	r2,fp,23d0 <__alt_mem_Flash_flash_data+0xf40023d0>
    2400:	9011883a 	mov	r8,r18
    2404:	e0800c04 	addi	r2,fp,48
    2408:	8025883a 	mov	r18,r16
    240c:	913fffc4 	addi	r4,r18,-1
    2410:	90bfffc5 	stb	r2,-1(r18)
    2414:	dc002c17 	ldw	r16,176(sp)
    2418:	2540852e 	bgeu	r4,r21,2630 <___vfprintf_internal_r+0x1f40>
    241c:	d9402384 	addi	r5,sp,142
    2420:	2c8bc83a 	sub	r5,r5,r18
    2424:	d8c02344 	addi	r3,sp,141
    2428:	a94b883a 	add	r5,r21,r5
    242c:	00000106 	br	2434 <___vfprintf_internal_r+0x1d44>
    2430:	20800003 	ldbu	r2,0(r4)
    2434:	18800005 	stb	r2,0(r3)
    2438:	18c00044 	addi	r3,r3,1
    243c:	21000044 	addi	r4,r4,1
    2440:	197ffb1e 	bne	r3,r5,2430 <__alt_mem_Flash_flash_data+0xf4002430>
    2444:	d8802304 	addi	r2,sp,140
    2448:	1485c83a 	sub	r2,r2,r18
    244c:	d8c02344 	addi	r3,sp,141
    2450:	1885883a 	add	r2,r3,r2
    2454:	dac03317 	ldw	r11,204(sp)
    2458:	156bc83a 	sub	r21,r2,r21
    245c:	dd403a15 	stw	r21,232(sp)
    2460:	00800044 	movi	r2,1
    2464:	5d65883a 	add	r18,r11,r21
    2468:	12c0660e 	bge	r2,r11,2604 <___vfprintf_internal_r+0x1f14>
    246c:	94800044 	addi	r18,r18,1
    2470:	9005883a 	mov	r2,r18
    2474:	90006116 	blt	r18,zero,25fc <___vfprintf_internal_r+0x1f0c>
    2478:	d8003415 	stw	zero,208(sp)
    247c:	003e7406 	br	1e50 <__alt_mem_Flash_flash_data+0xf4001e50>
    2480:	b009883a 	mov	r4,r22
    2484:	b80b883a 	mov	r5,r23
    2488:	d9801e04 	addi	r6,sp,120
    248c:	0006ecc0 	call	6ecc <__sprint_r>
    2490:	10398b1e 	bne	r2,zero,ac0 <__alt_mem_Flash_flash_data+0xf4000ac0>
    2494:	dc002617 	ldw	r16,152(sp)
    2498:	d8c02017 	ldw	r3,128(sp)
    249c:	d8801f17 	ldw	r2,124(sp)
    24a0:	da000404 	addi	r8,sp,16
    24a4:	003ec906 	br	1fcc <__alt_mem_Flash_flash_data+0xf4001fcc>
    24a8:	483e1c1e 	bne	r9,zero,1d1c <__alt_mem_Flash_flash_data+0xf4001d1c>
    24ac:	9013883a 	mov	r9,r18
    24b0:	003e1a06 	br	1d1c <__alt_mem_Flash_flash_data+0xf4001d1c>
    24b4:	02400184 	movi	r9,6
    24b8:	003e1806 	br	1d1c <__alt_mem_Flash_flash_data+0xf4001d1c>
    24bc:	d8c03417 	ldw	r3,208(sp)
    24c0:	00c04b0e 	bge	zero,r3,25f0 <___vfprintf_internal_r+0x1f00>
    24c4:	04800044 	movi	r18,1
    24c8:	dac03317 	ldw	r11,204(sp)
    24cc:	92e5883a 	add	r18,r18,r11
    24d0:	9005883a 	mov	r2,r18
    24d4:	903e5e0e 	bge	r18,zero,1e50 <__alt_mem_Flash_flash_data+0xf4001e50>
    24d8:	0005883a 	mov	r2,zero
    24dc:	003e5c06 	br	1e50 <__alt_mem_Flash_flash_data+0xf4001e50>
    24e0:	00c00b44 	movi	r3,45
    24e4:	64a0003c 	xorhi	r18,r12,32768
    24e8:	d8c02b05 	stb	r3,172(sp)
    24ec:	003e1106 	br	1d34 <__alt_mem_Flash_flash_data+0xf4001d34>
    24f0:	4f000044 	addi	fp,r9,1
    24f4:	003e1606 	br	1d50 <__alt_mem_Flash_flash_data+0xf4001d50>
    24f8:	d8c02617 	ldw	r3,152(sp)
    24fc:	d8c03415 	stw	r3,208(sp)
    2500:	00c0350e 	bge	zero,r3,25d8 <___vfprintf_internal_r+0x1ee8>
    2504:	4800081e 	bne	r9,zero,2528 <___vfprintf_internal_r+0x1e38>
    2508:	8c40004c 	andi	r17,r17,1
    250c:	8800061e 	bne	r17,zero,2528 <___vfprintf_internal_r+0x1e38>
    2510:	1805883a 	mov	r2,r3
    2514:	183e4d0e 	bge	r3,zero,1e4c <__alt_mem_Flash_flash_data+0xf4001e4c>
    2518:	0005883a 	mov	r2,zero
    251c:	003e4b06 	br	1e4c <__alt_mem_Flash_flash_data+0xf4001e4c>
    2520:	d8802117 	ldw	r2,132(sp)
    2524:	003e3706 	br	1e04 <__alt_mem_Flash_flash_data+0xf4001e04>
    2528:	dac03417 	ldw	r11,208(sp)
    252c:	4a400044 	addi	r9,r9,1
    2530:	5a65883a 	add	r18,r11,r9
    2534:	9005883a 	mov	r2,r18
    2538:	903e450e 	bge	r18,zero,1e50 <__alt_mem_Flash_flash_data+0xf4001e50>
    253c:	003fe606 	br	24d8 <__alt_mem_Flash_flash_data+0xf40024d8>
    2540:	db003417 	ldw	r12,208(sp)
    2544:	64800044 	addi	r18,r12,1
    2548:	9005883a 	mov	r2,r18
    254c:	903e400e 	bge	r18,zero,1e50 <__alt_mem_Flash_flash_data+0xf4001e50>
    2550:	003fe106 	br	24d8 <__alt_mem_Flash_flash_data+0xf40024d8>
    2554:	d9003717 	ldw	r4,220(sp)
    2558:	900b883a 	mov	r5,r18
    255c:	000d883a 	mov	r6,zero
    2560:	000f883a 	mov	r7,zero
    2564:	da003f15 	stw	r8,252(sp)
    2568:	da403e15 	stw	r9,248(sp)
    256c:	da803d15 	stw	r10,244(sp)
    2570:	000b4f40 	call	b4f4 <__eqdf2>
    2574:	da003f17 	ldw	r8,252(sp)
    2578:	da403e17 	ldw	r9,248(sp)
    257c:	da803d17 	ldw	r10,244(sp)
    2580:	103f1f26 	beq	r2,zero,2200 <__alt_mem_Flash_flash_data+0xf4002200>
    2584:	00800044 	movi	r2,1
    2588:	1707c83a 	sub	r3,r2,fp
    258c:	d8c02615 	stw	r3,152(sp)
    2590:	003f1c06 	br	2204 <__alt_mem_Flash_flash_data+0xf4002204>
    2594:	00800c04 	movi	r2,48
    2598:	e0c00c04 	addi	r3,fp,48
    259c:	d8802345 	stb	r2,141(sp)
    25a0:	d8c02385 	stb	r3,142(sp)
    25a4:	d88023c4 	addi	r2,sp,143
    25a8:	dd4022c4 	addi	r21,sp,139
    25ac:	003fa906 	br	2454 <__alt_mem_Flash_flash_data+0xf4002454>
    25b0:	0005883a 	mov	r2,zero
    25b4:	003f3c06 	br	22a8 <__alt_mem_Flash_flash_data+0xf40022a8>
    25b8:	dac02d17 	ldw	r11,180(sp)
    25bc:	5a400017 	ldw	r9,0(r11)
    25c0:	5ac00104 	addi	r11,r11,4
    25c4:	dac02d15 	stw	r11,180(sp)
    25c8:	483ec80e 	bge	r9,zero,20ec <__alt_mem_Flash_flash_data+0xf40020ec>
    25cc:	027fffc4 	movi	r9,-1
    25d0:	1c000047 	ldb	r16,1(r3)
    25d4:	0038ab06 	br	884 <__alt_mem_Flash_flash_data+0xf4000884>
    25d8:	4800111e 	bne	r9,zero,2620 <___vfprintf_internal_r+0x1f30>
    25dc:	8c40004c 	andi	r17,r17,1
    25e0:	88000f1e 	bne	r17,zero,2620 <___vfprintf_internal_r+0x1f30>
    25e4:	00800044 	movi	r2,1
    25e8:	1025883a 	mov	r18,r2
    25ec:	003e1806 	br	1e50 <__alt_mem_Flash_flash_data+0xf4001e50>
    25f0:	04800084 	movi	r18,2
    25f4:	90e5c83a 	sub	r18,r18,r3
    25f8:	003fb306 	br	24c8 <__alt_mem_Flash_flash_data+0xf40024c8>
    25fc:	0005883a 	mov	r2,zero
    2600:	003f9d06 	br	2478 <__alt_mem_Flash_flash_data+0xf4002478>
    2604:	88a2703a 	and	r17,r17,r2
    2608:	883f9926 	beq	r17,zero,2470 <__alt_mem_Flash_flash_data+0xf4002470>
    260c:	003f9706 	br	246c <__alt_mem_Flash_flash_data+0xf400246c>
    2610:	00800b44 	movi	r2,45
    2614:	0739c83a 	sub	fp,zero,fp
    2618:	d8802305 	stb	r2,140(sp)
    261c:	003f6606 	br	23b8 <__alt_mem_Flash_flash_data+0xf40023b8>
    2620:	4c800084 	addi	r18,r9,2
    2624:	9005883a 	mov	r2,r18
    2628:	903e090e 	bge	r18,zero,1e50 <__alt_mem_Flash_flash_data+0xf4001e50>
    262c:	003faa06 	br	24d8 <__alt_mem_Flash_flash_data+0xf40024d8>
    2630:	d8802344 	addi	r2,sp,141
    2634:	003f8706 	br	2454 <__alt_mem_Flash_flash_data+0xf4002454>
    2638:	d8c02617 	ldw	r3,152(sp)
    263c:	003f5806 	br	23a0 <__alt_mem_Flash_flash_data+0xf40023a0>

00002640 <__vfprintf_internal>:
    2640:	2007883a 	mov	r3,r4
    2644:	010000b4 	movhi	r4,2
    2648:	212fda04 	addi	r4,r4,-16536
    264c:	21000017 	ldw	r4,0(r4)
    2650:	2805883a 	mov	r2,r5
    2654:	300f883a 	mov	r7,r6
    2658:	180b883a 	mov	r5,r3
    265c:	100d883a 	mov	r6,r2
    2660:	00006f01 	jmpi	6f0 <___vfprintf_internal_r>

00002664 <__sbprintf>:
    2664:	2880030b 	ldhu	r2,12(r5)
    2668:	2ac01917 	ldw	r11,100(r5)
    266c:	2a80038b 	ldhu	r10,14(r5)
    2670:	2a400717 	ldw	r9,28(r5)
    2674:	2a000917 	ldw	r8,36(r5)
    2678:	defee204 	addi	sp,sp,-1144
    267c:	00c10004 	movi	r3,1024
    2680:	dc011a15 	stw	r16,1128(sp)
    2684:	10bfff4c 	andi	r2,r2,65533
    2688:	2821883a 	mov	r16,r5
    268c:	d8cb883a 	add	r5,sp,r3
    2690:	dc811c15 	stw	r18,1136(sp)
    2694:	dc411b15 	stw	r17,1132(sp)
    2698:	dfc11d15 	stw	ra,1140(sp)
    269c:	2025883a 	mov	r18,r4
    26a0:	d881030d 	sth	r2,1036(sp)
    26a4:	dac11915 	stw	r11,1124(sp)
    26a8:	da81038d 	sth	r10,1038(sp)
    26ac:	da410715 	stw	r9,1052(sp)
    26b0:	da010915 	stw	r8,1060(sp)
    26b4:	dec10015 	stw	sp,1024(sp)
    26b8:	dec10415 	stw	sp,1040(sp)
    26bc:	d8c10215 	stw	r3,1032(sp)
    26c0:	d8c10515 	stw	r3,1044(sp)
    26c4:	d8010615 	stw	zero,1048(sp)
    26c8:	00006f00 	call	6f0 <___vfprintf_internal_r>
    26cc:	1023883a 	mov	r17,r2
    26d0:	10000416 	blt	r2,zero,26e4 <__sbprintf+0x80>
    26d4:	9009883a 	mov	r4,r18
    26d8:	d9410004 	addi	r5,sp,1024
    26dc:	00043a40 	call	43a4 <_fflush_r>
    26e0:	10000d1e 	bne	r2,zero,2718 <__sbprintf+0xb4>
    26e4:	d8c1030b 	ldhu	r3,1036(sp)
    26e8:	18c0100c 	andi	r3,r3,64
    26ec:	18000326 	beq	r3,zero,26fc <__sbprintf+0x98>
    26f0:	8080030b 	ldhu	r2,12(r16)
    26f4:	10801014 	ori	r2,r2,64
    26f8:	8080030d 	sth	r2,12(r16)
    26fc:	8805883a 	mov	r2,r17
    2700:	dfc11d17 	ldw	ra,1140(sp)
    2704:	dc811c17 	ldw	r18,1136(sp)
    2708:	dc411b17 	ldw	r17,1132(sp)
    270c:	dc011a17 	ldw	r16,1128(sp)
    2710:	dec11e04 	addi	sp,sp,1144
    2714:	f800283a 	ret
    2718:	047fffc4 	movi	r17,-1
    271c:	003ff106 	br	26e4 <__alt_mem_Flash_flash_data+0xf40026e4>

00002720 <__swsetup_r>:
    2720:	008000b4 	movhi	r2,2
    2724:	defffd04 	addi	sp,sp,-12
    2728:	10afda04 	addi	r2,r2,-16536
    272c:	dc400115 	stw	r17,4(sp)
    2730:	2023883a 	mov	r17,r4
    2734:	11000017 	ldw	r4,0(r2)
    2738:	dc000015 	stw	r16,0(sp)
    273c:	dfc00215 	stw	ra,8(sp)
    2740:	2821883a 	mov	r16,r5
    2744:	20000226 	beq	r4,zero,2750 <__swsetup_r+0x30>
    2748:	20c00e17 	ldw	r3,56(r4)
    274c:	18003126 	beq	r3,zero,2814 <__swsetup_r+0xf4>
    2750:	8080030b 	ldhu	r2,12(r16)
    2754:	10c0020c 	andi	r3,r2,8
    2758:	100d883a 	mov	r6,r2
    275c:	18000f26 	beq	r3,zero,279c <__swsetup_r+0x7c>
    2760:	80c00417 	ldw	r3,16(r16)
    2764:	18001526 	beq	r3,zero,27bc <__swsetup_r+0x9c>
    2768:	1100004c 	andi	r4,r2,1
    276c:	20001c1e 	bne	r4,zero,27e0 <__swsetup_r+0xc0>
    2770:	1080008c 	andi	r2,r2,2
    2774:	1000291e 	bne	r2,zero,281c <__swsetup_r+0xfc>
    2778:	80800517 	ldw	r2,20(r16)
    277c:	80800215 	stw	r2,8(r16)
    2780:	18001c26 	beq	r3,zero,27f4 <__swsetup_r+0xd4>
    2784:	0005883a 	mov	r2,zero
    2788:	dfc00217 	ldw	ra,8(sp)
    278c:	dc400117 	ldw	r17,4(sp)
    2790:	dc000017 	ldw	r16,0(sp)
    2794:	dec00304 	addi	sp,sp,12
    2798:	f800283a 	ret
    279c:	3080040c 	andi	r2,r6,16
    27a0:	10002e26 	beq	r2,zero,285c <__swsetup_r+0x13c>
    27a4:	3080010c 	andi	r2,r6,4
    27a8:	10001e1e 	bne	r2,zero,2824 <__swsetup_r+0x104>
    27ac:	80c00417 	ldw	r3,16(r16)
    27b0:	30800214 	ori	r2,r6,8
    27b4:	8080030d 	sth	r2,12(r16)
    27b8:	183feb1e 	bne	r3,zero,2768 <__alt_mem_Flash_flash_data+0xf4002768>
    27bc:	1140a00c 	andi	r5,r2,640
    27c0:	01008004 	movi	r4,512
    27c4:	293fe826 	beq	r5,r4,2768 <__alt_mem_Flash_flash_data+0xf4002768>
    27c8:	8809883a 	mov	r4,r17
    27cc:	800b883a 	mov	r5,r16
    27d0:	0004e4c0 	call	4e4c <__smakebuf_r>
    27d4:	8080030b 	ldhu	r2,12(r16)
    27d8:	80c00417 	ldw	r3,16(r16)
    27dc:	003fe206 	br	2768 <__alt_mem_Flash_flash_data+0xf4002768>
    27e0:	80800517 	ldw	r2,20(r16)
    27e4:	80000215 	stw	zero,8(r16)
    27e8:	0085c83a 	sub	r2,zero,r2
    27ec:	80800615 	stw	r2,24(r16)
    27f0:	183fe41e 	bne	r3,zero,2784 <__alt_mem_Flash_flash_data+0xf4002784>
    27f4:	80c0030b 	ldhu	r3,12(r16)
    27f8:	0005883a 	mov	r2,zero
    27fc:	1900200c 	andi	r4,r3,128
    2800:	203fe126 	beq	r4,zero,2788 <__alt_mem_Flash_flash_data+0xf4002788>
    2804:	18c01014 	ori	r3,r3,64
    2808:	80c0030d 	sth	r3,12(r16)
    280c:	00bfffc4 	movi	r2,-1
    2810:	003fdd06 	br	2788 <__alt_mem_Flash_flash_data+0xf4002788>
    2814:	00047800 	call	4780 <__sinit>
    2818:	003fcd06 	br	2750 <__alt_mem_Flash_flash_data+0xf4002750>
    281c:	0005883a 	mov	r2,zero
    2820:	003fd606 	br	277c <__alt_mem_Flash_flash_data+0xf400277c>
    2824:	81400c17 	ldw	r5,48(r16)
    2828:	28000626 	beq	r5,zero,2844 <__swsetup_r+0x124>
    282c:	80801004 	addi	r2,r16,64
    2830:	28800326 	beq	r5,r2,2840 <__swsetup_r+0x120>
    2834:	8809883a 	mov	r4,r17
    2838:	00048f40 	call	48f4 <_free_r>
    283c:	8180030b 	ldhu	r6,12(r16)
    2840:	80000c15 	stw	zero,48(r16)
    2844:	80c00417 	ldw	r3,16(r16)
    2848:	00bff6c4 	movi	r2,-37
    284c:	118c703a 	and	r6,r2,r6
    2850:	80000115 	stw	zero,4(r16)
    2854:	80c00015 	stw	r3,0(r16)
    2858:	003fd506 	br	27b0 <__alt_mem_Flash_flash_data+0xf40027b0>
    285c:	00800244 	movi	r2,9
    2860:	88800015 	stw	r2,0(r17)
    2864:	30801014 	ori	r2,r6,64
    2868:	8080030d 	sth	r2,12(r16)
    286c:	00bfffc4 	movi	r2,-1
    2870:	003fc506 	br	2788 <__alt_mem_Flash_flash_data+0xf4002788>

00002874 <quorem>:
    2874:	defff704 	addi	sp,sp,-36
    2878:	dc800215 	stw	r18,8(sp)
    287c:	20800417 	ldw	r2,16(r4)
    2880:	2c800417 	ldw	r18,16(r5)
    2884:	dfc00815 	stw	ra,32(sp)
    2888:	ddc00715 	stw	r23,28(sp)
    288c:	dd800615 	stw	r22,24(sp)
    2890:	dd400515 	stw	r21,20(sp)
    2894:	dd000415 	stw	r20,16(sp)
    2898:	dcc00315 	stw	r19,12(sp)
    289c:	dc400115 	stw	r17,4(sp)
    28a0:	dc000015 	stw	r16,0(sp)
    28a4:	14807116 	blt	r2,r18,2a6c <quorem+0x1f8>
    28a8:	94bfffc4 	addi	r18,r18,-1
    28ac:	94ad883a 	add	r22,r18,r18
    28b0:	b5ad883a 	add	r22,r22,r22
    28b4:	2c400504 	addi	r17,r5,20
    28b8:	8da9883a 	add	r20,r17,r22
    28bc:	25400504 	addi	r21,r4,20
    28c0:	282f883a 	mov	r23,r5
    28c4:	adad883a 	add	r22,r21,r22
    28c8:	a1400017 	ldw	r5,0(r20)
    28cc:	2021883a 	mov	r16,r4
    28d0:	b1000017 	ldw	r4,0(r22)
    28d4:	29400044 	addi	r5,r5,1
    28d8:	000a37c0 	call	a37c <__udivsi3>
    28dc:	1027883a 	mov	r19,r2
    28e0:	10002c26 	beq	r2,zero,2994 <quorem+0x120>
    28e4:	a813883a 	mov	r9,r21
    28e8:	8811883a 	mov	r8,r17
    28ec:	0009883a 	mov	r4,zero
    28f0:	000d883a 	mov	r6,zero
    28f4:	41c00017 	ldw	r7,0(r8)
    28f8:	49400017 	ldw	r5,0(r9)
    28fc:	42000104 	addi	r8,r8,4
    2900:	38bfffcc 	andi	r2,r7,65535
    2904:	14c5383a 	mul	r2,r2,r19
    2908:	380ed43a 	srli	r7,r7,16
    290c:	28ffffcc 	andi	r3,r5,65535
    2910:	2085883a 	add	r2,r4,r2
    2914:	1008d43a 	srli	r4,r2,16
    2918:	3ccf383a 	mul	r7,r7,r19
    291c:	198d883a 	add	r6,r3,r6
    2920:	10ffffcc 	andi	r3,r2,65535
    2924:	30c7c83a 	sub	r3,r6,r3
    2928:	280ad43a 	srli	r5,r5,16
    292c:	21c9883a 	add	r4,r4,r7
    2930:	180dd43a 	srai	r6,r3,16
    2934:	20bfffcc 	andi	r2,r4,65535
    2938:	288bc83a 	sub	r5,r5,r2
    293c:	298b883a 	add	r5,r5,r6
    2940:	280e943a 	slli	r7,r5,16
    2944:	18ffffcc 	andi	r3,r3,65535
    2948:	2008d43a 	srli	r4,r4,16
    294c:	38ceb03a 	or	r7,r7,r3
    2950:	49c00015 	stw	r7,0(r9)
    2954:	280dd43a 	srai	r6,r5,16
    2958:	4a400104 	addi	r9,r9,4
    295c:	a23fe52e 	bgeu	r20,r8,28f4 <__alt_mem_Flash_flash_data+0xf40028f4>
    2960:	b0800017 	ldw	r2,0(r22)
    2964:	10000b1e 	bne	r2,zero,2994 <quorem+0x120>
    2968:	b0bfff04 	addi	r2,r22,-4
    296c:	a880082e 	bgeu	r21,r2,2990 <quorem+0x11c>
    2970:	b0ffff17 	ldw	r3,-4(r22)
    2974:	18000326 	beq	r3,zero,2984 <quorem+0x110>
    2978:	00000506 	br	2990 <quorem+0x11c>
    297c:	10c00017 	ldw	r3,0(r2)
    2980:	1800031e 	bne	r3,zero,2990 <quorem+0x11c>
    2984:	10bfff04 	addi	r2,r2,-4
    2988:	94bfffc4 	addi	r18,r18,-1
    298c:	a8bffb36 	bltu	r21,r2,297c <__alt_mem_Flash_flash_data+0xf400297c>
    2990:	84800415 	stw	r18,16(r16)
    2994:	8009883a 	mov	r4,r16
    2998:	b80b883a 	mov	r5,r23
    299c:	00063c40 	call	63c4 <__mcmp>
    29a0:	10002616 	blt	r2,zero,2a3c <quorem+0x1c8>
    29a4:	9cc00044 	addi	r19,r19,1
    29a8:	a80d883a 	mov	r6,r21
    29ac:	000b883a 	mov	r5,zero
    29b0:	31000017 	ldw	r4,0(r6)
    29b4:	88800017 	ldw	r2,0(r17)
    29b8:	31800104 	addi	r6,r6,4
    29bc:	20ffffcc 	andi	r3,r4,65535
    29c0:	194b883a 	add	r5,r3,r5
    29c4:	10ffffcc 	andi	r3,r2,65535
    29c8:	28c7c83a 	sub	r3,r5,r3
    29cc:	1004d43a 	srli	r2,r2,16
    29d0:	2008d43a 	srli	r4,r4,16
    29d4:	180bd43a 	srai	r5,r3,16
    29d8:	18ffffcc 	andi	r3,r3,65535
    29dc:	2089c83a 	sub	r4,r4,r2
    29e0:	2149883a 	add	r4,r4,r5
    29e4:	2004943a 	slli	r2,r4,16
    29e8:	8c400104 	addi	r17,r17,4
    29ec:	200bd43a 	srai	r5,r4,16
    29f0:	10c6b03a 	or	r3,r2,r3
    29f4:	30ffff15 	stw	r3,-4(r6)
    29f8:	a47fed2e 	bgeu	r20,r17,29b0 <__alt_mem_Flash_flash_data+0xf40029b0>
    29fc:	9485883a 	add	r2,r18,r18
    2a00:	1085883a 	add	r2,r2,r2
    2a04:	a887883a 	add	r3,r21,r2
    2a08:	18800017 	ldw	r2,0(r3)
    2a0c:	10000b1e 	bne	r2,zero,2a3c <quorem+0x1c8>
    2a10:	18bfff04 	addi	r2,r3,-4
    2a14:	a880082e 	bgeu	r21,r2,2a38 <quorem+0x1c4>
    2a18:	18ffff17 	ldw	r3,-4(r3)
    2a1c:	18000326 	beq	r3,zero,2a2c <quorem+0x1b8>
    2a20:	00000506 	br	2a38 <quorem+0x1c4>
    2a24:	10c00017 	ldw	r3,0(r2)
    2a28:	1800031e 	bne	r3,zero,2a38 <quorem+0x1c4>
    2a2c:	10bfff04 	addi	r2,r2,-4
    2a30:	94bfffc4 	addi	r18,r18,-1
    2a34:	a8bffb36 	bltu	r21,r2,2a24 <__alt_mem_Flash_flash_data+0xf4002a24>
    2a38:	84800415 	stw	r18,16(r16)
    2a3c:	9805883a 	mov	r2,r19
    2a40:	dfc00817 	ldw	ra,32(sp)
    2a44:	ddc00717 	ldw	r23,28(sp)
    2a48:	dd800617 	ldw	r22,24(sp)
    2a4c:	dd400517 	ldw	r21,20(sp)
    2a50:	dd000417 	ldw	r20,16(sp)
    2a54:	dcc00317 	ldw	r19,12(sp)
    2a58:	dc800217 	ldw	r18,8(sp)
    2a5c:	dc400117 	ldw	r17,4(sp)
    2a60:	dc000017 	ldw	r16,0(sp)
    2a64:	dec00904 	addi	sp,sp,36
    2a68:	f800283a 	ret
    2a6c:	0005883a 	mov	r2,zero
    2a70:	003ff306 	br	2a40 <__alt_mem_Flash_flash_data+0xf4002a40>

00002a74 <_dtoa_r>:
    2a74:	20801017 	ldw	r2,64(r4)
    2a78:	deffde04 	addi	sp,sp,-136
    2a7c:	dd401d15 	stw	r21,116(sp)
    2a80:	dcc01b15 	stw	r19,108(sp)
    2a84:	dc801a15 	stw	r18,104(sp)
    2a88:	dc401915 	stw	r17,100(sp)
    2a8c:	dc001815 	stw	r16,96(sp)
    2a90:	dfc02115 	stw	ra,132(sp)
    2a94:	df002015 	stw	fp,128(sp)
    2a98:	ddc01f15 	stw	r23,124(sp)
    2a9c:	dd801e15 	stw	r22,120(sp)
    2aa0:	dd001c15 	stw	r20,112(sp)
    2aa4:	d9c00315 	stw	r7,12(sp)
    2aa8:	2021883a 	mov	r16,r4
    2aac:	302b883a 	mov	r21,r6
    2ab0:	2825883a 	mov	r18,r5
    2ab4:	dc402417 	ldw	r17,144(sp)
    2ab8:	3027883a 	mov	r19,r6
    2abc:	10000826 	beq	r2,zero,2ae0 <_dtoa_r+0x6c>
    2ac0:	21801117 	ldw	r6,68(r4)
    2ac4:	00c00044 	movi	r3,1
    2ac8:	100b883a 	mov	r5,r2
    2acc:	1986983a 	sll	r3,r3,r6
    2ad0:	11800115 	stw	r6,4(r2)
    2ad4:	10c00215 	stw	r3,8(r2)
    2ad8:	0005b980 	call	5b98 <_Bfree>
    2adc:	80001015 	stw	zero,64(r16)
    2ae0:	a8002d16 	blt	r21,zero,2b98 <_dtoa_r+0x124>
    2ae4:	88000015 	stw	zero,0(r17)
    2ae8:	a8dffc2c 	andhi	r3,r21,32752
    2aec:	009ffc34 	movhi	r2,32752
    2af0:	18801b26 	beq	r3,r2,2b60 <_dtoa_r+0xec>
    2af4:	9009883a 	mov	r4,r18
    2af8:	980b883a 	mov	r5,r19
    2afc:	000d883a 	mov	r6,zero
    2b00:	000f883a 	mov	r7,zero
    2b04:	000b4f40 	call	b4f4 <__eqdf2>
    2b08:	10002a1e 	bne	r2,zero,2bb4 <_dtoa_r+0x140>
    2b0c:	d8c02317 	ldw	r3,140(sp)
    2b10:	d9002517 	ldw	r4,148(sp)
    2b14:	00800044 	movi	r2,1
    2b18:	18800015 	stw	r2,0(r3)
    2b1c:	2001a226 	beq	r4,zero,31a8 <_dtoa_r+0x734>
    2b20:	008000b4 	movhi	r2,2
    2b24:	10a5a844 	addi	r2,r2,-26975
    2b28:	20800015 	stw	r2,0(r4)
    2b2c:	10bfffc4 	addi	r2,r2,-1
    2b30:	dfc02117 	ldw	ra,132(sp)
    2b34:	df002017 	ldw	fp,128(sp)
    2b38:	ddc01f17 	ldw	r23,124(sp)
    2b3c:	dd801e17 	ldw	r22,120(sp)
    2b40:	dd401d17 	ldw	r21,116(sp)
    2b44:	dd001c17 	ldw	r20,112(sp)
    2b48:	dcc01b17 	ldw	r19,108(sp)
    2b4c:	dc801a17 	ldw	r18,104(sp)
    2b50:	dc401917 	ldw	r17,100(sp)
    2b54:	dc001817 	ldw	r16,96(sp)
    2b58:	dec02204 	addi	sp,sp,136
    2b5c:	f800283a 	ret
    2b60:	d8c02317 	ldw	r3,140(sp)
    2b64:	0089c3c4 	movi	r2,9999
    2b68:	18800015 	stw	r2,0(r3)
    2b6c:	90017c26 	beq	r18,zero,3160 <_dtoa_r+0x6ec>
    2b70:	008000b4 	movhi	r2,2
    2b74:	10a5b404 	addi	r2,r2,-26928
    2b78:	d9002517 	ldw	r4,148(sp)
    2b7c:	203fec26 	beq	r4,zero,2b30 <__alt_mem_Flash_flash_data+0xf4002b30>
    2b80:	10c000c7 	ldb	r3,3(r2)
    2b84:	18017d1e 	bne	r3,zero,317c <_dtoa_r+0x708>
    2b88:	10c000c4 	addi	r3,r2,3
    2b8c:	d9802517 	ldw	r6,148(sp)
    2b90:	30c00015 	stw	r3,0(r6)
    2b94:	003fe606 	br	2b30 <__alt_mem_Flash_flash_data+0xf4002b30>
    2b98:	04e00034 	movhi	r19,32768
    2b9c:	9cffffc4 	addi	r19,r19,-1
    2ba0:	00800044 	movi	r2,1
    2ba4:	ace6703a 	and	r19,r21,r19
    2ba8:	88800015 	stw	r2,0(r17)
    2bac:	982b883a 	mov	r21,r19
    2bb0:	003fcd06 	br	2ae8 <__alt_mem_Flash_flash_data+0xf4002ae8>
    2bb4:	d8800204 	addi	r2,sp,8
    2bb8:	a822d53a 	srli	r17,r21,20
    2bbc:	d8800015 	stw	r2,0(sp)
    2bc0:	8009883a 	mov	r4,r16
    2bc4:	900b883a 	mov	r5,r18
    2bc8:	980d883a 	mov	r6,r19
    2bcc:	d9c00104 	addi	r7,sp,4
    2bd0:	00067380 	call	6738 <__d2b>
    2bd4:	1039883a 	mov	fp,r2
    2bd8:	88016a1e 	bne	r17,zero,3184 <_dtoa_r+0x710>
    2bdc:	dd000217 	ldw	r20,8(sp)
    2be0:	dc400117 	ldw	r17,4(sp)
    2be4:	00befbc4 	movi	r2,-1041
    2be8:	a463883a 	add	r17,r20,r17
    2bec:	8882ea16 	blt	r17,r2,3798 <_dtoa_r+0xd24>
    2bf0:	00bf0384 	movi	r2,-1010
    2bf4:	1445c83a 	sub	r2,r2,r17
    2bf8:	89010484 	addi	r4,r17,1042
    2bfc:	a8aa983a 	sll	r21,r21,r2
    2c00:	9108d83a 	srl	r4,r18,r4
    2c04:	a908b03a 	or	r4,r21,r4
    2c08:	000c8840 	call	c884 <__floatunsidf>
    2c0c:	017f8434 	movhi	r5,65040
    2c10:	01800044 	movi	r6,1
    2c14:	1009883a 	mov	r4,r2
    2c18:	194b883a 	add	r5,r3,r5
    2c1c:	8c7fffc4 	addi	r17,r17,-1
    2c20:	d9800f15 	stw	r6,60(sp)
    2c24:	000d883a 	mov	r6,zero
    2c28:	01cffe34 	movhi	r7,16376
    2c2c:	000be5c0 	call	be5c <__subdf3>
    2c30:	0198dbf4 	movhi	r6,25455
    2c34:	01cff4f4 	movhi	r7,16339
    2c38:	1009883a 	mov	r4,r2
    2c3c:	180b883a 	mov	r5,r3
    2c40:	3190d844 	addi	r6,r6,17249
    2c44:	39e1e9c4 	addi	r7,r7,-30809
    2c48:	000b7380 	call	b738 <__muldf3>
    2c4c:	01a2d874 	movhi	r6,35681
    2c50:	01cff1f4 	movhi	r7,16327
    2c54:	180b883a 	mov	r5,r3
    2c58:	31b22cc4 	addi	r6,r6,-14157
    2c5c:	39e28a04 	addi	r7,r7,-30168
    2c60:	1009883a 	mov	r4,r2
    2c64:	000a38c0 	call	a38c <__adddf3>
    2c68:	8809883a 	mov	r4,r17
    2c6c:	102d883a 	mov	r22,r2
    2c70:	182b883a 	mov	r21,r3
    2c74:	000c7b40 	call	c7b4 <__floatsidf>
    2c78:	019427f4 	movhi	r6,20639
    2c7c:	01cff4f4 	movhi	r7,16339
    2c80:	1009883a 	mov	r4,r2
    2c84:	180b883a 	mov	r5,r3
    2c88:	319e7ec4 	addi	r6,r6,31227
    2c8c:	39d104c4 	addi	r7,r7,17427
    2c90:	000b7380 	call	b738 <__muldf3>
    2c94:	b009883a 	mov	r4,r22
    2c98:	a80b883a 	mov	r5,r21
    2c9c:	100d883a 	mov	r6,r2
    2ca0:	180f883a 	mov	r7,r3
    2ca4:	000a38c0 	call	a38c <__adddf3>
    2ca8:	1009883a 	mov	r4,r2
    2cac:	180b883a 	mov	r5,r3
    2cb0:	102d883a 	mov	r22,r2
    2cb4:	182b883a 	mov	r21,r3
    2cb8:	000c72c0 	call	c72c <__fixdfsi>
    2cbc:	b009883a 	mov	r4,r22
    2cc0:	a80b883a 	mov	r5,r21
    2cc4:	000d883a 	mov	r6,zero
    2cc8:	000f883a 	mov	r7,zero
    2ccc:	d8800515 	stw	r2,20(sp)
    2cd0:	000b6580 	call	b658 <__ledf2>
    2cd4:	10023116 	blt	r2,zero,359c <_dtoa_r+0xb28>
    2cd8:	d8c00517 	ldw	r3,20(sp)
    2cdc:	00800584 	movi	r2,22
    2ce0:	10c21f36 	bltu	r2,r3,3560 <_dtoa_r+0xaec>
    2ce4:	180490fa 	slli	r2,r3,3
    2ce8:	00c000b4 	movhi	r3,2
    2cec:	18e5d004 	addi	r3,r3,-26816
    2cf0:	1885883a 	add	r2,r3,r2
    2cf4:	11000017 	ldw	r4,0(r2)
    2cf8:	11400117 	ldw	r5,4(r2)
    2cfc:	900d883a 	mov	r6,r18
    2d00:	980f883a 	mov	r7,r19
    2d04:	000b5780 	call	b578 <__gedf2>
    2d08:	0082a70e 	bge	zero,r2,37a8 <_dtoa_r+0xd34>
    2d0c:	d9000517 	ldw	r4,20(sp)
    2d10:	d8000d15 	stw	zero,52(sp)
    2d14:	213fffc4 	addi	r4,r4,-1
    2d18:	d9000515 	stw	r4,20(sp)
    2d1c:	a463c83a 	sub	r17,r20,r17
    2d20:	8dbfffc4 	addi	r22,r17,-1
    2d24:	b0021916 	blt	r22,zero,358c <_dtoa_r+0xb18>
    2d28:	d8000815 	stw	zero,32(sp)
    2d2c:	d8800517 	ldw	r2,20(sp)
    2d30:	10020e16 	blt	r2,zero,356c <_dtoa_r+0xaf8>
    2d34:	b0ad883a 	add	r22,r22,r2
    2d38:	d8800a15 	stw	r2,40(sp)
    2d3c:	d8000915 	stw	zero,36(sp)
    2d40:	d8c00317 	ldw	r3,12(sp)
    2d44:	00800244 	movi	r2,9
    2d48:	10c11a36 	bltu	r2,r3,31b4 <_dtoa_r+0x740>
    2d4c:	00800144 	movi	r2,5
    2d50:	10c4fc0e 	bge	r2,r3,4144 <_dtoa_r+0x16d0>
    2d54:	18ffff04 	addi	r3,r3,-4
    2d58:	d8c00315 	stw	r3,12(sp)
    2d5c:	0029883a 	mov	r20,zero
    2d60:	d9800317 	ldw	r6,12(sp)
    2d64:	008000c4 	movi	r2,3
    2d68:	3083bd26 	beq	r6,r2,3c60 <_dtoa_r+0x11ec>
    2d6c:	1183670e 	bge	r2,r6,3b0c <_dtoa_r+0x1098>
    2d70:	d8c00317 	ldw	r3,12(sp)
    2d74:	00800104 	movi	r2,4
    2d78:	1882e726 	beq	r3,r2,3918 <_dtoa_r+0xea4>
    2d7c:	00800144 	movi	r2,5
    2d80:	1884f21e 	bne	r3,r2,414c <_dtoa_r+0x16d8>
    2d84:	00800044 	movi	r2,1
    2d88:	d8800b15 	stw	r2,44(sp)
    2d8c:	d8c02217 	ldw	r3,136(sp)
    2d90:	d9000517 	ldw	r4,20(sp)
    2d94:	1907883a 	add	r3,r3,r4
    2d98:	19800044 	addi	r6,r3,1
    2d9c:	d8c00c15 	stw	r3,48(sp)
    2da0:	d9800615 	stw	r6,24(sp)
    2da4:	0183c30e 	bge	zero,r6,3cb4 <_dtoa_r+0x1240>
    2da8:	d9800617 	ldw	r6,24(sp)
    2dac:	3023883a 	mov	r17,r6
    2db0:	80001115 	stw	zero,68(r16)
    2db4:	008005c4 	movi	r2,23
    2db8:	1184f62e 	bgeu	r2,r6,4194 <_dtoa_r+0x1720>
    2dbc:	00c00044 	movi	r3,1
    2dc0:	00800104 	movi	r2,4
    2dc4:	1085883a 	add	r2,r2,r2
    2dc8:	11000504 	addi	r4,r2,20
    2dcc:	180b883a 	mov	r5,r3
    2dd0:	18c00044 	addi	r3,r3,1
    2dd4:	313ffb2e 	bgeu	r6,r4,2dc4 <__alt_mem_Flash_flash_data+0xf4002dc4>
    2dd8:	81401115 	stw	r5,68(r16)
    2ddc:	8009883a 	mov	r4,r16
    2de0:	0005af00 	call	5af0 <_Balloc>
    2de4:	d8800715 	stw	r2,28(sp)
    2de8:	80801015 	stw	r2,64(r16)
    2dec:	00800384 	movi	r2,14
    2df0:	1440fd36 	bltu	r2,r17,31e8 <_dtoa_r+0x774>
    2df4:	a000fc26 	beq	r20,zero,31e8 <_dtoa_r+0x774>
    2df8:	d8800517 	ldw	r2,20(sp)
    2dfc:	0083b90e 	bge	zero,r2,3ce4 <_dtoa_r+0x1270>
    2e00:	d8c00517 	ldw	r3,20(sp)
    2e04:	108003cc 	andi	r2,r2,15
    2e08:	100490fa 	slli	r2,r2,3
    2e0c:	182fd13a 	srai	r23,r3,4
    2e10:	00c000b4 	movhi	r3,2
    2e14:	18e5d004 	addi	r3,r3,-26816
    2e18:	1885883a 	add	r2,r3,r2
    2e1c:	b8c0040c 	andi	r3,r23,16
    2e20:	12c00017 	ldw	r11,0(r2)
    2e24:	12800117 	ldw	r10,4(r2)
    2e28:	18039726 	beq	r3,zero,3c88 <_dtoa_r+0x1214>
    2e2c:	008000b4 	movhi	r2,2
    2e30:	10a5c604 	addi	r2,r2,-26856
    2e34:	11800817 	ldw	r6,32(r2)
    2e38:	11c00917 	ldw	r7,36(r2)
    2e3c:	9009883a 	mov	r4,r18
    2e40:	980b883a 	mov	r5,r19
    2e44:	da801615 	stw	r10,88(sp)
    2e48:	dac01515 	stw	r11,84(sp)
    2e4c:	000ac280 	call	ac28 <__divdf3>
    2e50:	da801617 	ldw	r10,88(sp)
    2e54:	dac01517 	ldw	r11,84(sp)
    2e58:	bdc003cc 	andi	r23,r23,15
    2e5c:	044000c4 	movi	r17,3
    2e60:	d8800e15 	stw	r2,56(sp)
    2e64:	182b883a 	mov	r21,r3
    2e68:	b8001126 	beq	r23,zero,2eb0 <_dtoa_r+0x43c>
    2e6c:	050000b4 	movhi	r20,2
    2e70:	a525c604 	addi	r20,r20,-26856
    2e74:	5805883a 	mov	r2,r11
    2e78:	5007883a 	mov	r3,r10
    2e7c:	b980004c 	andi	r6,r23,1
    2e80:	1009883a 	mov	r4,r2
    2e84:	b82fd07a 	srai	r23,r23,1
    2e88:	180b883a 	mov	r5,r3
    2e8c:	30000426 	beq	r6,zero,2ea0 <_dtoa_r+0x42c>
    2e90:	a1800017 	ldw	r6,0(r20)
    2e94:	a1c00117 	ldw	r7,4(r20)
    2e98:	8c400044 	addi	r17,r17,1
    2e9c:	000b7380 	call	b738 <__muldf3>
    2ea0:	a5000204 	addi	r20,r20,8
    2ea4:	b83ff51e 	bne	r23,zero,2e7c <__alt_mem_Flash_flash_data+0xf4002e7c>
    2ea8:	1017883a 	mov	r11,r2
    2eac:	1815883a 	mov	r10,r3
    2eb0:	d9000e17 	ldw	r4,56(sp)
    2eb4:	a80b883a 	mov	r5,r21
    2eb8:	580d883a 	mov	r6,r11
    2ebc:	500f883a 	mov	r7,r10
    2ec0:	000ac280 	call	ac28 <__divdf3>
    2ec4:	1029883a 	mov	r20,r2
    2ec8:	182b883a 	mov	r21,r3
    2ecc:	d9800d17 	ldw	r6,52(sp)
    2ed0:	30000626 	beq	r6,zero,2eec <_dtoa_r+0x478>
    2ed4:	a009883a 	mov	r4,r20
    2ed8:	a80b883a 	mov	r5,r21
    2edc:	000d883a 	mov	r6,zero
    2ee0:	01cffc34 	movhi	r7,16368
    2ee4:	000b6580 	call	b658 <__ledf2>
    2ee8:	10043216 	blt	r2,zero,3fb4 <_dtoa_r+0x1540>
    2eec:	8809883a 	mov	r4,r17
    2ef0:	000c7b40 	call	c7b4 <__floatsidf>
    2ef4:	1009883a 	mov	r4,r2
    2ef8:	180b883a 	mov	r5,r3
    2efc:	a00d883a 	mov	r6,r20
    2f00:	a80f883a 	mov	r7,r21
    2f04:	000b7380 	call	b738 <__muldf3>
    2f08:	000d883a 	mov	r6,zero
    2f0c:	1009883a 	mov	r4,r2
    2f10:	180b883a 	mov	r5,r3
    2f14:	01d00734 	movhi	r7,16412
    2f18:	000a38c0 	call	a38c <__adddf3>
    2f1c:	1023883a 	mov	r17,r2
    2f20:	d9800617 	ldw	r6,24(sp)
    2f24:	00bf3034 	movhi	r2,64704
    2f28:	1885883a 	add	r2,r3,r2
    2f2c:	d8800e15 	stw	r2,56(sp)
    2f30:	30032e26 	beq	r6,zero,3bec <_dtoa_r+0x1178>
    2f34:	d8c00517 	ldw	r3,20(sp)
    2f38:	da800617 	ldw	r10,24(sp)
    2f3c:	d8c01215 	stw	r3,72(sp)
    2f40:	d9000b17 	ldw	r4,44(sp)
    2f44:	2003b026 	beq	r4,zero,3e08 <_dtoa_r+0x1394>
    2f48:	50bfffc4 	addi	r2,r10,-1
    2f4c:	100490fa 	slli	r2,r2,3
    2f50:	00c000b4 	movhi	r3,2
    2f54:	18e5d004 	addi	r3,r3,-26816
    2f58:	1885883a 	add	r2,r3,r2
    2f5c:	11800017 	ldw	r6,0(r2)
    2f60:	11c00117 	ldw	r7,4(r2)
    2f64:	d8800717 	ldw	r2,28(sp)
    2f68:	0009883a 	mov	r4,zero
    2f6c:	014ff834 	movhi	r5,16352
    2f70:	da801615 	stw	r10,88(sp)
    2f74:	15c00044 	addi	r23,r2,1
    2f78:	000ac280 	call	ac28 <__divdf3>
    2f7c:	d9c00e17 	ldw	r7,56(sp)
    2f80:	880d883a 	mov	r6,r17
    2f84:	1009883a 	mov	r4,r2
    2f88:	180b883a 	mov	r5,r3
    2f8c:	000be5c0 	call	be5c <__subdf3>
    2f90:	a80b883a 	mov	r5,r21
    2f94:	a009883a 	mov	r4,r20
    2f98:	d8c01015 	stw	r3,64(sp)
    2f9c:	d8800e15 	stw	r2,56(sp)
    2fa0:	000c72c0 	call	c72c <__fixdfsi>
    2fa4:	1009883a 	mov	r4,r2
    2fa8:	d8801715 	stw	r2,92(sp)
    2fac:	000c7b40 	call	c7b4 <__floatsidf>
    2fb0:	a009883a 	mov	r4,r20
    2fb4:	a80b883a 	mov	r5,r21
    2fb8:	100d883a 	mov	r6,r2
    2fbc:	180f883a 	mov	r7,r3
    2fc0:	000be5c0 	call	be5c <__subdf3>
    2fc4:	da001717 	ldw	r8,92(sp)
    2fc8:	1829883a 	mov	r20,r3
    2fcc:	d8c00717 	ldw	r3,28(sp)
    2fd0:	d9000e17 	ldw	r4,56(sp)
    2fd4:	d9401017 	ldw	r5,64(sp)
    2fd8:	42000c04 	addi	r8,r8,48
    2fdc:	1023883a 	mov	r17,r2
    2fe0:	1a000005 	stb	r8,0(r3)
    2fe4:	880d883a 	mov	r6,r17
    2fe8:	a00f883a 	mov	r7,r20
    2fec:	402b883a 	mov	r21,r8
    2ff0:	000b5780 	call	b578 <__gedf2>
    2ff4:	00844516 	blt	zero,r2,410c <_dtoa_r+0x1698>
    2ff8:	0009883a 	mov	r4,zero
    2ffc:	014ffc34 	movhi	r5,16368
    3000:	880d883a 	mov	r6,r17
    3004:	a00f883a 	mov	r7,r20
    3008:	000be5c0 	call	be5c <__subdf3>
    300c:	d9000e17 	ldw	r4,56(sp)
    3010:	d9401017 	ldw	r5,64(sp)
    3014:	100d883a 	mov	r6,r2
    3018:	180f883a 	mov	r7,r3
    301c:	000b5780 	call	b578 <__gedf2>
    3020:	da801617 	ldw	r10,88(sp)
    3024:	00843616 	blt	zero,r2,4100 <_dtoa_r+0x168c>
    3028:	00800044 	movi	r2,1
    302c:	12806e0e 	bge	r2,r10,31e8 <_dtoa_r+0x774>
    3030:	d9000717 	ldw	r4,28(sp)
    3034:	dd801315 	stw	r22,76(sp)
    3038:	dc001115 	stw	r16,68(sp)
    303c:	2295883a 	add	r10,r4,r10
    3040:	dcc01415 	stw	r19,80(sp)
    3044:	502d883a 	mov	r22,r10
    3048:	dcc01017 	ldw	r19,64(sp)
    304c:	b821883a 	mov	r16,r23
    3050:	dc801015 	stw	r18,64(sp)
    3054:	dc800e17 	ldw	r18,56(sp)
    3058:	00000906 	br	3080 <_dtoa_r+0x60c>
    305c:	000be5c0 	call	be5c <__subdf3>
    3060:	1009883a 	mov	r4,r2
    3064:	180b883a 	mov	r5,r3
    3068:	900d883a 	mov	r6,r18
    306c:	980f883a 	mov	r7,r19
    3070:	000b6580 	call	b658 <__ledf2>
    3074:	10040e16 	blt	r2,zero,40b0 <_dtoa_r+0x163c>
    3078:	b821883a 	mov	r16,r23
    307c:	bd841026 	beq	r23,r22,40c0 <_dtoa_r+0x164c>
    3080:	9009883a 	mov	r4,r18
    3084:	980b883a 	mov	r5,r19
    3088:	000d883a 	mov	r6,zero
    308c:	01d00934 	movhi	r7,16420
    3090:	000b7380 	call	b738 <__muldf3>
    3094:	000d883a 	mov	r6,zero
    3098:	01d00934 	movhi	r7,16420
    309c:	8809883a 	mov	r4,r17
    30a0:	a00b883a 	mov	r5,r20
    30a4:	1025883a 	mov	r18,r2
    30a8:	1827883a 	mov	r19,r3
    30ac:	000b7380 	call	b738 <__muldf3>
    30b0:	180b883a 	mov	r5,r3
    30b4:	1009883a 	mov	r4,r2
    30b8:	1823883a 	mov	r17,r3
    30bc:	1029883a 	mov	r20,r2
    30c0:	000c72c0 	call	c72c <__fixdfsi>
    30c4:	1009883a 	mov	r4,r2
    30c8:	102b883a 	mov	r21,r2
    30cc:	000c7b40 	call	c7b4 <__floatsidf>
    30d0:	a009883a 	mov	r4,r20
    30d4:	880b883a 	mov	r5,r17
    30d8:	100d883a 	mov	r6,r2
    30dc:	180f883a 	mov	r7,r3
    30e0:	000be5c0 	call	be5c <__subdf3>
    30e4:	ad400c04 	addi	r21,r21,48
    30e8:	1009883a 	mov	r4,r2
    30ec:	180b883a 	mov	r5,r3
    30f0:	900d883a 	mov	r6,r18
    30f4:	980f883a 	mov	r7,r19
    30f8:	85400005 	stb	r21,0(r16)
    30fc:	1023883a 	mov	r17,r2
    3100:	1829883a 	mov	r20,r3
    3104:	000b6580 	call	b658 <__ledf2>
    3108:	bdc00044 	addi	r23,r23,1
    310c:	0009883a 	mov	r4,zero
    3110:	014ffc34 	movhi	r5,16368
    3114:	880d883a 	mov	r6,r17
    3118:	a00f883a 	mov	r7,r20
    311c:	103fcf0e 	bge	r2,zero,305c <__alt_mem_Flash_flash_data+0xf400305c>
    3120:	d9801217 	ldw	r6,72(sp)
    3124:	dc001117 	ldw	r16,68(sp)
    3128:	d9800515 	stw	r6,20(sp)
    312c:	8009883a 	mov	r4,r16
    3130:	e00b883a 	mov	r5,fp
    3134:	0005b980 	call	5b98 <_Bfree>
    3138:	d8c00517 	ldw	r3,20(sp)
    313c:	d9002317 	ldw	r4,140(sp)
    3140:	d9802517 	ldw	r6,148(sp)
    3144:	b8000005 	stb	zero,0(r23)
    3148:	18800044 	addi	r2,r3,1
    314c:	20800015 	stw	r2,0(r4)
    3150:	30027226 	beq	r6,zero,3b1c <_dtoa_r+0x10a8>
    3154:	35c00015 	stw	r23,0(r6)
    3158:	d8800717 	ldw	r2,28(sp)
    315c:	003e7406 	br	2b30 <__alt_mem_Flash_flash_data+0xf4002b30>
    3160:	00800434 	movhi	r2,16
    3164:	10bfffc4 	addi	r2,r2,-1
    3168:	a8aa703a 	and	r21,r21,r2
    316c:	a83e801e 	bne	r21,zero,2b70 <__alt_mem_Flash_flash_data+0xf4002b70>
    3170:	008000b4 	movhi	r2,2
    3174:	10a5b104 	addi	r2,r2,-26940
    3178:	003e7f06 	br	2b78 <__alt_mem_Flash_flash_data+0xf4002b78>
    317c:	10c00204 	addi	r3,r2,8
    3180:	003e8206 	br	2b8c <__alt_mem_Flash_flash_data+0xf4002b8c>
    3184:	01400434 	movhi	r5,16
    3188:	297fffc4 	addi	r5,r5,-1
    318c:	994a703a 	and	r5,r19,r5
    3190:	9009883a 	mov	r4,r18
    3194:	8c7f0044 	addi	r17,r17,-1023
    3198:	294ffc34 	orhi	r5,r5,16368
    319c:	dd000217 	ldw	r20,8(sp)
    31a0:	d8000f15 	stw	zero,60(sp)
    31a4:	003e9f06 	br	2c24 <__alt_mem_Flash_flash_data+0xf4002c24>
    31a8:	008000b4 	movhi	r2,2
    31ac:	10a5a804 	addi	r2,r2,-26976
    31b0:	003e5f06 	br	2b30 <__alt_mem_Flash_flash_data+0xf4002b30>
    31b4:	80001115 	stw	zero,68(r16)
    31b8:	8009883a 	mov	r4,r16
    31bc:	000b883a 	mov	r5,zero
    31c0:	0005af00 	call	5af0 <_Balloc>
    31c4:	01bfffc4 	movi	r6,-1
    31c8:	d8800715 	stw	r2,28(sp)
    31cc:	80801015 	stw	r2,64(r16)
    31d0:	00800044 	movi	r2,1
    31d4:	d9800c15 	stw	r6,48(sp)
    31d8:	d8800b15 	stw	r2,44(sp)
    31dc:	d9800615 	stw	r6,24(sp)
    31e0:	d8002215 	stw	zero,136(sp)
    31e4:	d8000315 	stw	zero,12(sp)
    31e8:	d8800117 	ldw	r2,4(sp)
    31ec:	10008e16 	blt	r2,zero,3428 <_dtoa_r+0x9b4>
    31f0:	d9000517 	ldw	r4,20(sp)
    31f4:	00c00384 	movi	r3,14
    31f8:	19008b16 	blt	r3,r4,3428 <_dtoa_r+0x9b4>
    31fc:	200490fa 	slli	r2,r4,3
    3200:	00c000b4 	movhi	r3,2
    3204:	d9802217 	ldw	r6,136(sp)
    3208:	18e5d004 	addi	r3,r3,-26816
    320c:	1885883a 	add	r2,r3,r2
    3210:	14400017 	ldw	r17,0(r2)
    3214:	15000117 	ldw	r20,4(r2)
    3218:	3001c716 	blt	r6,zero,3938 <_dtoa_r+0xec4>
    321c:	880d883a 	mov	r6,r17
    3220:	a00f883a 	mov	r7,r20
    3224:	9009883a 	mov	r4,r18
    3228:	980b883a 	mov	r5,r19
    322c:	000ac280 	call	ac28 <__divdf3>
    3230:	180b883a 	mov	r5,r3
    3234:	1009883a 	mov	r4,r2
    3238:	000c72c0 	call	c72c <__fixdfsi>
    323c:	1009883a 	mov	r4,r2
    3240:	102d883a 	mov	r22,r2
    3244:	000c7b40 	call	c7b4 <__floatsidf>
    3248:	1009883a 	mov	r4,r2
    324c:	180b883a 	mov	r5,r3
    3250:	880d883a 	mov	r6,r17
    3254:	a00f883a 	mov	r7,r20
    3258:	000b7380 	call	b738 <__muldf3>
    325c:	9009883a 	mov	r4,r18
    3260:	980b883a 	mov	r5,r19
    3264:	100d883a 	mov	r6,r2
    3268:	180f883a 	mov	r7,r3
    326c:	000be5c0 	call	be5c <__subdf3>
    3270:	d9000717 	ldw	r4,28(sp)
    3274:	d9800617 	ldw	r6,24(sp)
    3278:	180b883a 	mov	r5,r3
    327c:	b0c00c04 	addi	r3,r22,48
    3280:	20c00005 	stb	r3,0(r4)
    3284:	25c00044 	addi	r23,r4,1
    3288:	01000044 	movi	r4,1
    328c:	1011883a 	mov	r8,r2
    3290:	2807883a 	mov	r3,r5
    3294:	31003d26 	beq	r6,r4,338c <_dtoa_r+0x918>
    3298:	000d883a 	mov	r6,zero
    329c:	01d00934 	movhi	r7,16420
    32a0:	1009883a 	mov	r4,r2
    32a4:	000b7380 	call	b738 <__muldf3>
    32a8:	1009883a 	mov	r4,r2
    32ac:	180b883a 	mov	r5,r3
    32b0:	000d883a 	mov	r6,zero
    32b4:	000f883a 	mov	r7,zero
    32b8:	1027883a 	mov	r19,r2
    32bc:	182b883a 	mov	r21,r3
    32c0:	000b4f40 	call	b4f4 <__eqdf2>
    32c4:	103f9926 	beq	r2,zero,312c <__alt_mem_Flash_flash_data+0xf400312c>
    32c8:	d8c00617 	ldw	r3,24(sp)
    32cc:	d9000717 	ldw	r4,28(sp)
    32d0:	b825883a 	mov	r18,r23
    32d4:	18bfffc4 	addi	r2,r3,-1
    32d8:	20ad883a 	add	r22,r4,r2
    32dc:	dc000315 	stw	r16,12(sp)
    32e0:	00000a06 	br	330c <_dtoa_r+0x898>
    32e4:	000b7380 	call	b738 <__muldf3>
    32e8:	1009883a 	mov	r4,r2
    32ec:	180b883a 	mov	r5,r3
    32f0:	000d883a 	mov	r6,zero
    32f4:	000f883a 	mov	r7,zero
    32f8:	1027883a 	mov	r19,r2
    32fc:	182b883a 	mov	r21,r3
    3300:	b825883a 	mov	r18,r23
    3304:	000b4f40 	call	b4f4 <__eqdf2>
    3308:	10022626 	beq	r2,zero,3ba4 <_dtoa_r+0x1130>
    330c:	880d883a 	mov	r6,r17
    3310:	a00f883a 	mov	r7,r20
    3314:	9809883a 	mov	r4,r19
    3318:	a80b883a 	mov	r5,r21
    331c:	000ac280 	call	ac28 <__divdf3>
    3320:	180b883a 	mov	r5,r3
    3324:	1009883a 	mov	r4,r2
    3328:	000c72c0 	call	c72c <__fixdfsi>
    332c:	1009883a 	mov	r4,r2
    3330:	1021883a 	mov	r16,r2
    3334:	000c7b40 	call	c7b4 <__floatsidf>
    3338:	1009883a 	mov	r4,r2
    333c:	180b883a 	mov	r5,r3
    3340:	880d883a 	mov	r6,r17
    3344:	a00f883a 	mov	r7,r20
    3348:	000b7380 	call	b738 <__muldf3>
    334c:	9809883a 	mov	r4,r19
    3350:	a80b883a 	mov	r5,r21
    3354:	100d883a 	mov	r6,r2
    3358:	180f883a 	mov	r7,r3
    335c:	000be5c0 	call	be5c <__subdf3>
    3360:	82000c04 	addi	r8,r16,48
    3364:	92000005 	stb	r8,0(r18)
    3368:	1009883a 	mov	r4,r2
    336c:	180b883a 	mov	r5,r3
    3370:	000d883a 	mov	r6,zero
    3374:	01d00934 	movhi	r7,16420
    3378:	1011883a 	mov	r8,r2
    337c:	bdc00044 	addi	r23,r23,1
    3380:	95bfd81e 	bne	r18,r22,32e4 <__alt_mem_Flash_flash_data+0xf40032e4>
    3384:	802d883a 	mov	r22,r16
    3388:	dc000317 	ldw	r16,12(sp)
    338c:	4009883a 	mov	r4,r8
    3390:	180b883a 	mov	r5,r3
    3394:	400d883a 	mov	r6,r8
    3398:	180f883a 	mov	r7,r3
    339c:	000a38c0 	call	a38c <__adddf3>
    33a0:	8809883a 	mov	r4,r17
    33a4:	a00b883a 	mov	r5,r20
    33a8:	100d883a 	mov	r6,r2
    33ac:	180f883a 	mov	r7,r3
    33b0:	1027883a 	mov	r19,r2
    33b4:	1825883a 	mov	r18,r3
    33b8:	000b6580 	call	b658 <__ledf2>
    33bc:	10000816 	blt	r2,zero,33e0 <_dtoa_r+0x96c>
    33c0:	8809883a 	mov	r4,r17
    33c4:	a00b883a 	mov	r5,r20
    33c8:	980d883a 	mov	r6,r19
    33cc:	900f883a 	mov	r7,r18
    33d0:	000b4f40 	call	b4f4 <__eqdf2>
    33d4:	103f551e 	bne	r2,zero,312c <__alt_mem_Flash_flash_data+0xf400312c>
    33d8:	b580004c 	andi	r22,r22,1
    33dc:	b03f5326 	beq	r22,zero,312c <__alt_mem_Flash_flash_data+0xf400312c>
    33e0:	bd7fffc3 	ldbu	r21,-1(r23)
    33e4:	b8bfffc4 	addi	r2,r23,-1
    33e8:	1007883a 	mov	r3,r2
    33ec:	01400e44 	movi	r5,57
    33f0:	d9800717 	ldw	r6,28(sp)
    33f4:	00000506 	br	340c <_dtoa_r+0x998>
    33f8:	18ffffc4 	addi	r3,r3,-1
    33fc:	30825e26 	beq	r6,r2,3d78 <_dtoa_r+0x1304>
    3400:	1d400003 	ldbu	r21,0(r3)
    3404:	102f883a 	mov	r23,r2
    3408:	10bfffc4 	addi	r2,r2,-1
    340c:	a9003fcc 	andi	r4,r21,255
    3410:	2100201c 	xori	r4,r4,128
    3414:	213fe004 	addi	r4,r4,-128
    3418:	217ff726 	beq	r4,r5,33f8 <__alt_mem_Flash_flash_data+0xf40033f8>
    341c:	aa000044 	addi	r8,r21,1
    3420:	12000005 	stb	r8,0(r2)
    3424:	003f4106 	br	312c <__alt_mem_Flash_flash_data+0xf400312c>
    3428:	d8c00b17 	ldw	r3,44(sp)
    342c:	18006726 	beq	r3,zero,35cc <_dtoa_r+0xb58>
    3430:	d9000317 	ldw	r4,12(sp)
    3434:	00c00044 	movi	r3,1
    3438:	19016a0e 	bge	r3,r4,39e4 <_dtoa_r+0xf70>
    343c:	d8800617 	ldw	r2,24(sp)
    3440:	d8c00917 	ldw	r3,36(sp)
    3444:	157fffc4 	addi	r21,r2,-1
    3448:	1d420716 	blt	r3,r21,3c68 <_dtoa_r+0x11f4>
    344c:	1d6bc83a 	sub	r21,r3,r21
    3450:	d8800617 	ldw	r2,24(sp)
    3454:	1002c716 	blt	r2,zero,3f74 <_dtoa_r+0x1500>
    3458:	dd000817 	ldw	r20,32(sp)
    345c:	d8800617 	ldw	r2,24(sp)
    3460:	d9800817 	ldw	r6,32(sp)
    3464:	8009883a 	mov	r4,r16
    3468:	01400044 	movi	r5,1
    346c:	308d883a 	add	r6,r6,r2
    3470:	d9800815 	stw	r6,32(sp)
    3474:	b0ad883a 	add	r22,r22,r2
    3478:	0005efc0 	call	5efc <__i2b>
    347c:	1023883a 	mov	r17,r2
    3480:	a0000826 	beq	r20,zero,34a4 <_dtoa_r+0xa30>
    3484:	0580070e 	bge	zero,r22,34a4 <_dtoa_r+0xa30>
    3488:	b005883a 	mov	r2,r22
    348c:	a5812016 	blt	r20,r22,3910 <_dtoa_r+0xe9c>
    3490:	d8c00817 	ldw	r3,32(sp)
    3494:	a0a9c83a 	sub	r20,r20,r2
    3498:	b0adc83a 	sub	r22,r22,r2
    349c:	1887c83a 	sub	r3,r3,r2
    34a0:	d8c00815 	stw	r3,32(sp)
    34a4:	d9000917 	ldw	r4,36(sp)
    34a8:	0100140e 	bge	zero,r4,34fc <_dtoa_r+0xa88>
    34ac:	d9800b17 	ldw	r6,44(sp)
    34b0:	3001e526 	beq	r6,zero,3c48 <_dtoa_r+0x11d4>
    34b4:	05400e0e 	bge	zero,r21,34f0 <_dtoa_r+0xa7c>
    34b8:	880b883a 	mov	r5,r17
    34bc:	8009883a 	mov	r4,r16
    34c0:	a80d883a 	mov	r6,r21
    34c4:	00061340 	call	6134 <__pow5mult>
    34c8:	e00d883a 	mov	r6,fp
    34cc:	8009883a 	mov	r4,r16
    34d0:	100b883a 	mov	r5,r2
    34d4:	1023883a 	mov	r17,r2
    34d8:	0005f380 	call	5f38 <__multiply>
    34dc:	102f883a 	mov	r23,r2
    34e0:	e00b883a 	mov	r5,fp
    34e4:	8009883a 	mov	r4,r16
    34e8:	0005b980 	call	5b98 <_Bfree>
    34ec:	b839883a 	mov	fp,r23
    34f0:	d8800917 	ldw	r2,36(sp)
    34f4:	154dc83a 	sub	r6,r2,r21
    34f8:	3001281e 	bne	r6,zero,399c <_dtoa_r+0xf28>
    34fc:	05c00044 	movi	r23,1
    3500:	8009883a 	mov	r4,r16
    3504:	b80b883a 	mov	r5,r23
    3508:	0005efc0 	call	5efc <__i2b>
    350c:	d8c00a17 	ldw	r3,40(sp)
    3510:	102b883a 	mov	r21,r2
    3514:	00c0310e 	bge	zero,r3,35dc <_dtoa_r+0xb68>
    3518:	8009883a 	mov	r4,r16
    351c:	100b883a 	mov	r5,r2
    3520:	180d883a 	mov	r6,r3
    3524:	00061340 	call	6134 <__pow5mult>
    3528:	d9000317 	ldw	r4,12(sp)
    352c:	102b883a 	mov	r21,r2
    3530:	b9011f0e 	bge	r23,r4,39b0 <_dtoa_r+0xf3c>
    3534:	0027883a 	mov	r19,zero
    3538:	a8800417 	ldw	r2,16(r21)
    353c:	10800104 	addi	r2,r2,4
    3540:	1085883a 	add	r2,r2,r2
    3544:	1085883a 	add	r2,r2,r2
    3548:	a885883a 	add	r2,r21,r2
    354c:	11000017 	ldw	r4,0(r2)
    3550:	0005de40 	call	5de4 <__hi0bits>
    3554:	00c00804 	movi	r3,32
    3558:	1885c83a 	sub	r2,r3,r2
    355c:	00002506 	br	35f4 <_dtoa_r+0xb80>
    3560:	01800044 	movi	r6,1
    3564:	d9800d15 	stw	r6,52(sp)
    3568:	003dec06 	br	2d1c <__alt_mem_Flash_flash_data+0xf4002d1c>
    356c:	d8c00817 	ldw	r3,32(sp)
    3570:	d9000517 	ldw	r4,20(sp)
    3574:	d8000a15 	stw	zero,40(sp)
    3578:	1907c83a 	sub	r3,r3,r4
    357c:	010dc83a 	sub	r6,zero,r4
    3580:	d8c00815 	stw	r3,32(sp)
    3584:	d9800915 	stw	r6,36(sp)
    3588:	003ded06 	br	2d40 <__alt_mem_Flash_flash_data+0xf4002d40>
    358c:	05adc83a 	sub	r22,zero,r22
    3590:	dd800815 	stw	r22,32(sp)
    3594:	002d883a 	mov	r22,zero
    3598:	003de406 	br	2d2c <__alt_mem_Flash_flash_data+0xf4002d2c>
    359c:	d9000517 	ldw	r4,20(sp)
    35a0:	000c7b40 	call	c7b4 <__floatsidf>
    35a4:	1009883a 	mov	r4,r2
    35a8:	180b883a 	mov	r5,r3
    35ac:	b00d883a 	mov	r6,r22
    35b0:	a80f883a 	mov	r7,r21
    35b4:	000b4f40 	call	b4f4 <__eqdf2>
    35b8:	103dc726 	beq	r2,zero,2cd8 <__alt_mem_Flash_flash_data+0xf4002cd8>
    35bc:	d8800517 	ldw	r2,20(sp)
    35c0:	10bfffc4 	addi	r2,r2,-1
    35c4:	d8800515 	stw	r2,20(sp)
    35c8:	003dc306 	br	2cd8 <__alt_mem_Flash_flash_data+0xf4002cd8>
    35cc:	dd400917 	ldw	r21,36(sp)
    35d0:	dd000817 	ldw	r20,32(sp)
    35d4:	0023883a 	mov	r17,zero
    35d8:	003fa906 	br	3480 <__alt_mem_Flash_flash_data+0xf4003480>
    35dc:	d9800317 	ldw	r6,12(sp)
    35e0:	b981670e 	bge	r23,r6,3b80 <_dtoa_r+0x110c>
    35e4:	0027883a 	mov	r19,zero
    35e8:	d8c00a17 	ldw	r3,40(sp)
    35ec:	183fd21e 	bne	r3,zero,3538 <__alt_mem_Flash_flash_data+0xf4003538>
    35f0:	00800044 	movi	r2,1
    35f4:	1585883a 	add	r2,r2,r22
    35f8:	108007cc 	andi	r2,r2,31
    35fc:	10005f26 	beq	r2,zero,377c <_dtoa_r+0xd08>
    3600:	00c00804 	movi	r3,32
    3604:	1887c83a 	sub	r3,r3,r2
    3608:	01000104 	movi	r4,4
    360c:	20c2dd0e 	bge	r4,r3,4184 <_dtoa_r+0x1710>
    3610:	d9000817 	ldw	r4,32(sp)
    3614:	00c00704 	movi	r3,28
    3618:	1885c83a 	sub	r2,r3,r2
    361c:	2089883a 	add	r4,r4,r2
    3620:	d9000815 	stw	r4,32(sp)
    3624:	a0a9883a 	add	r20,r20,r2
    3628:	b0ad883a 	add	r22,r22,r2
    362c:	d8800817 	ldw	r2,32(sp)
    3630:	0080050e 	bge	zero,r2,3648 <_dtoa_r+0xbd4>
    3634:	e00b883a 	mov	r5,fp
    3638:	8009883a 	mov	r4,r16
    363c:	100d883a 	mov	r6,r2
    3640:	00062740 	call	6274 <__lshift>
    3644:	1039883a 	mov	fp,r2
    3648:	0580050e 	bge	zero,r22,3660 <_dtoa_r+0xbec>
    364c:	a80b883a 	mov	r5,r21
    3650:	8009883a 	mov	r4,r16
    3654:	b00d883a 	mov	r6,r22
    3658:	00062740 	call	6274 <__lshift>
    365c:	102b883a 	mov	r21,r2
    3660:	d8c00d17 	ldw	r3,52(sp)
    3664:	1801161e 	bne	r3,zero,3ac0 <_dtoa_r+0x104c>
    3668:	d8c00617 	ldw	r3,24(sp)
    366c:	00c12d0e 	bge	zero,r3,3b24 <_dtoa_r+0x10b0>
    3670:	d8c00b17 	ldw	r3,44(sp)
    3674:	1800571e 	bne	r3,zero,37d4 <_dtoa_r+0xd60>
    3678:	dc800717 	ldw	r18,28(sp)
    367c:	dcc00617 	ldw	r19,24(sp)
    3680:	9029883a 	mov	r20,r18
    3684:	00000206 	br	3690 <_dtoa_r+0xc1c>
    3688:	0005bc00 	call	5bc0 <__multadd>
    368c:	1039883a 	mov	fp,r2
    3690:	e009883a 	mov	r4,fp
    3694:	a80b883a 	mov	r5,r21
    3698:	00028740 	call	2874 <quorem>
    369c:	10800c04 	addi	r2,r2,48
    36a0:	90800005 	stb	r2,0(r18)
    36a4:	94800044 	addi	r18,r18,1
    36a8:	9507c83a 	sub	r3,r18,r20
    36ac:	8009883a 	mov	r4,r16
    36b0:	e00b883a 	mov	r5,fp
    36b4:	01800284 	movi	r6,10
    36b8:	000f883a 	mov	r7,zero
    36bc:	1cfff216 	blt	r3,r19,3688 <__alt_mem_Flash_flash_data+0xf4003688>
    36c0:	1011883a 	mov	r8,r2
    36c4:	d8800617 	ldw	r2,24(sp)
    36c8:	00822e0e 	bge	zero,r2,3f84 <_dtoa_r+0x1510>
    36cc:	d9000717 	ldw	r4,28(sp)
    36d0:	0025883a 	mov	r18,zero
    36d4:	20af883a 	add	r23,r4,r2
    36d8:	e00b883a 	mov	r5,fp
    36dc:	01800044 	movi	r6,1
    36e0:	8009883a 	mov	r4,r16
    36e4:	da001715 	stw	r8,92(sp)
    36e8:	00062740 	call	6274 <__lshift>
    36ec:	1009883a 	mov	r4,r2
    36f0:	a80b883a 	mov	r5,r21
    36f4:	1039883a 	mov	fp,r2
    36f8:	00063c40 	call	63c4 <__mcmp>
    36fc:	da001717 	ldw	r8,92(sp)
    3700:	00816e0e 	bge	zero,r2,3cbc <_dtoa_r+0x1248>
    3704:	b93fffc3 	ldbu	r4,-1(r23)
    3708:	b8bfffc4 	addi	r2,r23,-1
    370c:	1007883a 	mov	r3,r2
    3710:	01800e44 	movi	r6,57
    3714:	d9c00717 	ldw	r7,28(sp)
    3718:	00000506 	br	3730 <_dtoa_r+0xcbc>
    371c:	18ffffc4 	addi	r3,r3,-1
    3720:	38811926 	beq	r7,r2,3b88 <_dtoa_r+0x1114>
    3724:	19000003 	ldbu	r4,0(r3)
    3728:	102f883a 	mov	r23,r2
    372c:	10bfffc4 	addi	r2,r2,-1
    3730:	21403fcc 	andi	r5,r4,255
    3734:	2940201c 	xori	r5,r5,128
    3738:	297fe004 	addi	r5,r5,-128
    373c:	29bff726 	beq	r5,r6,371c <__alt_mem_Flash_flash_data+0xf400371c>
    3740:	21000044 	addi	r4,r4,1
    3744:	11000005 	stb	r4,0(r2)
    3748:	8009883a 	mov	r4,r16
    374c:	a80b883a 	mov	r5,r21
    3750:	0005b980 	call	5b98 <_Bfree>
    3754:	883e7526 	beq	r17,zero,312c <__alt_mem_Flash_flash_data+0xf400312c>
    3758:	90000426 	beq	r18,zero,376c <_dtoa_r+0xcf8>
    375c:	94400326 	beq	r18,r17,376c <_dtoa_r+0xcf8>
    3760:	8009883a 	mov	r4,r16
    3764:	900b883a 	mov	r5,r18
    3768:	0005b980 	call	5b98 <_Bfree>
    376c:	8009883a 	mov	r4,r16
    3770:	880b883a 	mov	r5,r17
    3774:	0005b980 	call	5b98 <_Bfree>
    3778:	003e6c06 	br	312c <__alt_mem_Flash_flash_data+0xf400312c>
    377c:	00800704 	movi	r2,28
    3780:	d9800817 	ldw	r6,32(sp)
    3784:	a0a9883a 	add	r20,r20,r2
    3788:	b0ad883a 	add	r22,r22,r2
    378c:	308d883a 	add	r6,r6,r2
    3790:	d9800815 	stw	r6,32(sp)
    3794:	003fa506 	br	362c <__alt_mem_Flash_flash_data+0xf400362c>
    3798:	013efb84 	movi	r4,-1042
    379c:	246bc83a 	sub	r21,r4,r17
    37a0:	9548983a 	sll	r4,r18,r21
    37a4:	003d1806 	br	2c08 <__alt_mem_Flash_flash_data+0xf4002c08>
    37a8:	d8000d15 	stw	zero,52(sp)
    37ac:	003d5b06 	br	2d1c <__alt_mem_Flash_flash_data+0xf4002d1c>
    37b0:	880b883a 	mov	r5,r17
    37b4:	8009883a 	mov	r4,r16
    37b8:	01800284 	movi	r6,10
    37bc:	000f883a 	mov	r7,zero
    37c0:	0005bc00 	call	5bc0 <__multadd>
    37c4:	1023883a 	mov	r17,r2
    37c8:	d8800c17 	ldw	r2,48(sp)
    37cc:	0082550e 	bge	zero,r2,4124 <_dtoa_r+0x16b0>
    37d0:	d8800615 	stw	r2,24(sp)
    37d4:	0500050e 	bge	zero,r20,37ec <_dtoa_r+0xd78>
    37d8:	880b883a 	mov	r5,r17
    37dc:	8009883a 	mov	r4,r16
    37e0:	a00d883a 	mov	r6,r20
    37e4:	00062740 	call	6274 <__lshift>
    37e8:	1023883a 	mov	r17,r2
    37ec:	98016a1e 	bne	r19,zero,3d98 <_dtoa_r+0x1324>
    37f0:	8829883a 	mov	r20,r17
    37f4:	d9000617 	ldw	r4,24(sp)
    37f8:	dcc00717 	ldw	r19,28(sp)
    37fc:	9480004c 	andi	r18,r18,1
    3800:	20bfffc4 	addi	r2,r4,-1
    3804:	9885883a 	add	r2,r19,r2
    3808:	d8800415 	stw	r2,16(sp)
    380c:	dc800615 	stw	r18,24(sp)
    3810:	e009883a 	mov	r4,fp
    3814:	a80b883a 	mov	r5,r21
    3818:	00028740 	call	2874 <quorem>
    381c:	e009883a 	mov	r4,fp
    3820:	880b883a 	mov	r5,r17
    3824:	102f883a 	mov	r23,r2
    3828:	00063c40 	call	63c4 <__mcmp>
    382c:	8009883a 	mov	r4,r16
    3830:	a80b883a 	mov	r5,r21
    3834:	a00d883a 	mov	r6,r20
    3838:	102d883a 	mov	r22,r2
    383c:	00064240 	call	6424 <__mdiff>
    3840:	1007883a 	mov	r3,r2
    3844:	10800317 	ldw	r2,12(r2)
    3848:	bc800c04 	addi	r18,r23,48
    384c:	1000971e 	bne	r2,zero,3aac <_dtoa_r+0x1038>
    3850:	180b883a 	mov	r5,r3
    3854:	e009883a 	mov	r4,fp
    3858:	d8c01515 	stw	r3,84(sp)
    385c:	00063c40 	call	63c4 <__mcmp>
    3860:	d8c01517 	ldw	r3,84(sp)
    3864:	8009883a 	mov	r4,r16
    3868:	d8801515 	stw	r2,84(sp)
    386c:	180b883a 	mov	r5,r3
    3870:	0005b980 	call	5b98 <_Bfree>
    3874:	d8801517 	ldw	r2,84(sp)
    3878:	1000041e 	bne	r2,zero,388c <_dtoa_r+0xe18>
    387c:	d9800317 	ldw	r6,12(sp)
    3880:	3000021e 	bne	r6,zero,388c <_dtoa_r+0xe18>
    3884:	d8c00617 	ldw	r3,24(sp)
    3888:	18007626 	beq	r3,zero,3a64 <_dtoa_r+0xff0>
    388c:	b0005b16 	blt	r22,zero,39fc <_dtoa_r+0xf88>
    3890:	b000041e 	bne	r22,zero,38a4 <_dtoa_r+0xe30>
    3894:	d9000317 	ldw	r4,12(sp)
    3898:	2000021e 	bne	r4,zero,38a4 <_dtoa_r+0xe30>
    389c:	d8c00617 	ldw	r3,24(sp)
    38a0:	18005626 	beq	r3,zero,39fc <_dtoa_r+0xf88>
    38a4:	00814d16 	blt	zero,r2,3ddc <_dtoa_r+0x1368>
    38a8:	d8c00417 	ldw	r3,16(sp)
    38ac:	9d800044 	addi	r22,r19,1
    38b0:	9c800005 	stb	r18,0(r19)
    38b4:	b02f883a 	mov	r23,r22
    38b8:	98c14c26 	beq	r19,r3,3dec <_dtoa_r+0x1378>
    38bc:	e00b883a 	mov	r5,fp
    38c0:	8009883a 	mov	r4,r16
    38c4:	01800284 	movi	r6,10
    38c8:	000f883a 	mov	r7,zero
    38cc:	0005bc00 	call	5bc0 <__multadd>
    38d0:	1039883a 	mov	fp,r2
    38d4:	8d006d26 	beq	r17,r20,3a8c <_dtoa_r+0x1018>
    38d8:	880b883a 	mov	r5,r17
    38dc:	01800284 	movi	r6,10
    38e0:	000f883a 	mov	r7,zero
    38e4:	8009883a 	mov	r4,r16
    38e8:	0005bc00 	call	5bc0 <__multadd>
    38ec:	a00b883a 	mov	r5,r20
    38f0:	8009883a 	mov	r4,r16
    38f4:	01800284 	movi	r6,10
    38f8:	000f883a 	mov	r7,zero
    38fc:	1023883a 	mov	r17,r2
    3900:	0005bc00 	call	5bc0 <__multadd>
    3904:	1029883a 	mov	r20,r2
    3908:	b027883a 	mov	r19,r22
    390c:	003fc006 	br	3810 <__alt_mem_Flash_flash_data+0xf4003810>
    3910:	a005883a 	mov	r2,r20
    3914:	003ede06 	br	3490 <__alt_mem_Flash_flash_data+0xf4003490>
    3918:	01000044 	movi	r4,1
    391c:	d9000b15 	stw	r4,44(sp)
    3920:	d9802217 	ldw	r6,136(sp)
    3924:	0180dc0e 	bge	zero,r6,3c98 <_dtoa_r+0x1224>
    3928:	3023883a 	mov	r17,r6
    392c:	d9800c15 	stw	r6,48(sp)
    3930:	d9800615 	stw	r6,24(sp)
    3934:	003d1e06 	br	2db0 <__alt_mem_Flash_flash_data+0xf4002db0>
    3938:	d8800617 	ldw	r2,24(sp)
    393c:	00be3716 	blt	zero,r2,321c <__alt_mem_Flash_flash_data+0xf400321c>
    3940:	1000be1e 	bne	r2,zero,3c3c <_dtoa_r+0x11c8>
    3944:	8809883a 	mov	r4,r17
    3948:	a00b883a 	mov	r5,r20
    394c:	000d883a 	mov	r6,zero
    3950:	01d00534 	movhi	r7,16404
    3954:	000b7380 	call	b738 <__muldf3>
    3958:	1009883a 	mov	r4,r2
    395c:	180b883a 	mov	r5,r3
    3960:	900d883a 	mov	r6,r18
    3964:	980f883a 	mov	r7,r19
    3968:	000b5780 	call	b578 <__gedf2>
    396c:	002b883a 	mov	r21,zero
    3970:	0023883a 	mov	r17,zero
    3974:	10007a16 	blt	r2,zero,3b60 <_dtoa_r+0x10ec>
    3978:	d9002217 	ldw	r4,136(sp)
    397c:	ddc00717 	ldw	r23,28(sp)
    3980:	0108303a 	nor	r4,zero,r4
    3984:	d9000515 	stw	r4,20(sp)
    3988:	8009883a 	mov	r4,r16
    398c:	a80b883a 	mov	r5,r21
    3990:	0005b980 	call	5b98 <_Bfree>
    3994:	883f751e 	bne	r17,zero,376c <__alt_mem_Flash_flash_data+0xf400376c>
    3998:	003de406 	br	312c <__alt_mem_Flash_flash_data+0xf400312c>
    399c:	e00b883a 	mov	r5,fp
    39a0:	8009883a 	mov	r4,r16
    39a4:	00061340 	call	6134 <__pow5mult>
    39a8:	1039883a 	mov	fp,r2
    39ac:	003ed306 	br	34fc <__alt_mem_Flash_flash_data+0xf40034fc>
    39b0:	903ee01e 	bne	r18,zero,3534 <__alt_mem_Flash_flash_data+0xf4003534>
    39b4:	00800434 	movhi	r2,16
    39b8:	10bfffc4 	addi	r2,r2,-1
    39bc:	9884703a 	and	r2,r19,r2
    39c0:	103f081e 	bne	r2,zero,35e4 <__alt_mem_Flash_flash_data+0xf40035e4>
    39c4:	9cdffc2c 	andhi	r19,r19,32752
    39c8:	983f0626 	beq	r19,zero,35e4 <__alt_mem_Flash_flash_data+0xf40035e4>
    39cc:	d8800817 	ldw	r2,32(sp)
    39d0:	b5800044 	addi	r22,r22,1
    39d4:	04c00044 	movi	r19,1
    39d8:	10800044 	addi	r2,r2,1
    39dc:	d8800815 	stw	r2,32(sp)
    39e0:	003f0106 	br	35e8 <__alt_mem_Flash_flash_data+0xf40035e8>
    39e4:	d9800f17 	ldw	r6,60(sp)
    39e8:	30016826 	beq	r6,zero,3f8c <_dtoa_r+0x1518>
    39ec:	10810cc4 	addi	r2,r2,1075
    39f0:	dd400917 	ldw	r21,36(sp)
    39f4:	dd000817 	ldw	r20,32(sp)
    39f8:	003e9906 	br	3460 <__alt_mem_Flash_flash_data+0xf4003460>
    39fc:	9011883a 	mov	r8,r18
    3a00:	4007883a 	mov	r3,r8
    3a04:	e02d883a 	mov	r22,fp
    3a08:	0080100e 	bge	zero,r2,3a4c <_dtoa_r+0xfd8>
    3a0c:	01800044 	movi	r6,1
    3a10:	8009883a 	mov	r4,r16
    3a14:	e00b883a 	mov	r5,fp
    3a18:	da001515 	stw	r8,84(sp)
    3a1c:	da001715 	stw	r8,92(sp)
    3a20:	00062740 	call	6274 <__lshift>
    3a24:	1009883a 	mov	r4,r2
    3a28:	a80b883a 	mov	r5,r21
    3a2c:	102d883a 	mov	r22,r2
    3a30:	00063c40 	call	63c4 <__mcmp>
    3a34:	d8c01517 	ldw	r3,84(sp)
    3a38:	da001717 	ldw	r8,92(sp)
    3a3c:	0081a50e 	bge	zero,r2,40d4 <_dtoa_r+0x1660>
    3a40:	00800e44 	movi	r2,57
    3a44:	40817b26 	beq	r8,r2,4034 <_dtoa_r+0x15c0>
    3a48:	40c00044 	addi	r3,r8,1
    3a4c:	8825883a 	mov	r18,r17
    3a50:	9dc00044 	addi	r23,r19,1
    3a54:	98c00005 	stb	r3,0(r19)
    3a58:	a023883a 	mov	r17,r20
    3a5c:	b039883a 	mov	fp,r22
    3a60:	003f3906 	br	3748 <__alt_mem_Flash_flash_data+0xf4003748>
    3a64:	00800e44 	movi	r2,57
    3a68:	9011883a 	mov	r8,r18
    3a6c:	90817226 	beq	r18,r2,4038 <_dtoa_r+0x15c4>
    3a70:	0580010e 	bge	zero,r22,3a78 <_dtoa_r+0x1004>
    3a74:	ba000c44 	addi	r8,r23,49
    3a78:	8825883a 	mov	r18,r17
    3a7c:	9dc00044 	addi	r23,r19,1
    3a80:	9a000005 	stb	r8,0(r19)
    3a84:	a023883a 	mov	r17,r20
    3a88:	003f2f06 	br	3748 <__alt_mem_Flash_flash_data+0xf4003748>
    3a8c:	880b883a 	mov	r5,r17
    3a90:	8009883a 	mov	r4,r16
    3a94:	01800284 	movi	r6,10
    3a98:	000f883a 	mov	r7,zero
    3a9c:	0005bc00 	call	5bc0 <__multadd>
    3aa0:	1023883a 	mov	r17,r2
    3aa4:	1029883a 	mov	r20,r2
    3aa8:	003f9706 	br	3908 <__alt_mem_Flash_flash_data+0xf4003908>
    3aac:	8009883a 	mov	r4,r16
    3ab0:	180b883a 	mov	r5,r3
    3ab4:	0005b980 	call	5b98 <_Bfree>
    3ab8:	00800044 	movi	r2,1
    3abc:	003f7306 	br	388c <__alt_mem_Flash_flash_data+0xf400388c>
    3ac0:	e009883a 	mov	r4,fp
    3ac4:	a80b883a 	mov	r5,r21
    3ac8:	00063c40 	call	63c4 <__mcmp>
    3acc:	103ee60e 	bge	r2,zero,3668 <__alt_mem_Flash_flash_data+0xf4003668>
    3ad0:	8009883a 	mov	r4,r16
    3ad4:	e00b883a 	mov	r5,fp
    3ad8:	01800284 	movi	r6,10
    3adc:	000f883a 	mov	r7,zero
    3ae0:	0005bc00 	call	5bc0 <__multadd>
    3ae4:	d9000517 	ldw	r4,20(sp)
    3ae8:	d9800b17 	ldw	r6,44(sp)
    3aec:	1039883a 	mov	fp,r2
    3af0:	213fffc4 	addi	r4,r4,-1
    3af4:	d9000515 	stw	r4,20(sp)
    3af8:	303f2d1e 	bne	r6,zero,37b0 <__alt_mem_Flash_flash_data+0xf40037b0>
    3afc:	d9000c17 	ldw	r4,48(sp)
    3b00:	0101780e 	bge	zero,r4,40e4 <_dtoa_r+0x1670>
    3b04:	d9000615 	stw	r4,24(sp)
    3b08:	003edb06 	br	3678 <__alt_mem_Flash_flash_data+0xf4003678>
    3b0c:	00800084 	movi	r2,2
    3b10:	30818e1e 	bne	r6,r2,414c <_dtoa_r+0x16d8>
    3b14:	d8000b15 	stw	zero,44(sp)
    3b18:	003f8106 	br	3920 <__alt_mem_Flash_flash_data+0xf4003920>
    3b1c:	d8800717 	ldw	r2,28(sp)
    3b20:	003c0306 	br	2b30 <__alt_mem_Flash_flash_data+0xf4002b30>
    3b24:	d9000317 	ldw	r4,12(sp)
    3b28:	00800084 	movi	r2,2
    3b2c:	113ed00e 	bge	r2,r4,3670 <__alt_mem_Flash_flash_data+0xf4003670>
    3b30:	d8c00617 	ldw	r3,24(sp)
    3b34:	183f901e 	bne	r3,zero,3978 <__alt_mem_Flash_flash_data+0xf4003978>
    3b38:	a80b883a 	mov	r5,r21
    3b3c:	8009883a 	mov	r4,r16
    3b40:	01800144 	movi	r6,5
    3b44:	000f883a 	mov	r7,zero
    3b48:	0005bc00 	call	5bc0 <__multadd>
    3b4c:	e009883a 	mov	r4,fp
    3b50:	100b883a 	mov	r5,r2
    3b54:	102b883a 	mov	r21,r2
    3b58:	00063c40 	call	63c4 <__mcmp>
    3b5c:	00bf860e 	bge	zero,r2,3978 <__alt_mem_Flash_flash_data+0xf4003978>
    3b60:	d9800717 	ldw	r6,28(sp)
    3b64:	00800c44 	movi	r2,49
    3b68:	30800005 	stb	r2,0(r6)
    3b6c:	d8800517 	ldw	r2,20(sp)
    3b70:	35c00044 	addi	r23,r6,1
    3b74:	10800044 	addi	r2,r2,1
    3b78:	d8800515 	stw	r2,20(sp)
    3b7c:	003f8206 	br	3988 <__alt_mem_Flash_flash_data+0xf4003988>
    3b80:	903e981e 	bne	r18,zero,35e4 <__alt_mem_Flash_flash_data+0xf40035e4>
    3b84:	003f8b06 	br	39b4 <__alt_mem_Flash_flash_data+0xf40039b4>
    3b88:	d9800517 	ldw	r6,20(sp)
    3b8c:	d8c00717 	ldw	r3,28(sp)
    3b90:	00800c44 	movi	r2,49
    3b94:	31800044 	addi	r6,r6,1
    3b98:	d9800515 	stw	r6,20(sp)
    3b9c:	18800005 	stb	r2,0(r3)
    3ba0:	003ee906 	br	3748 <__alt_mem_Flash_flash_data+0xf4003748>
    3ba4:	dc000317 	ldw	r16,12(sp)
    3ba8:	003d6006 	br	312c <__alt_mem_Flash_flash_data+0xf400312c>
    3bac:	8809883a 	mov	r4,r17
    3bb0:	000c7b40 	call	c7b4 <__floatsidf>
    3bb4:	a009883a 	mov	r4,r20
    3bb8:	a80b883a 	mov	r5,r21
    3bbc:	100d883a 	mov	r6,r2
    3bc0:	180f883a 	mov	r7,r3
    3bc4:	000b7380 	call	b738 <__muldf3>
    3bc8:	1009883a 	mov	r4,r2
    3bcc:	180b883a 	mov	r5,r3
    3bd0:	000d883a 	mov	r6,zero
    3bd4:	01d00734 	movhi	r7,16412
    3bd8:	000a38c0 	call	a38c <__adddf3>
    3bdc:	1023883a 	mov	r17,r2
    3be0:	00bf3034 	movhi	r2,64704
    3be4:	1885883a 	add	r2,r3,r2
    3be8:	d8800e15 	stw	r2,56(sp)
    3bec:	a009883a 	mov	r4,r20
    3bf0:	a80b883a 	mov	r5,r21
    3bf4:	000d883a 	mov	r6,zero
    3bf8:	01d00534 	movhi	r7,16404
    3bfc:	000be5c0 	call	be5c <__subdf3>
    3c00:	d9c00e17 	ldw	r7,56(sp)
    3c04:	1009883a 	mov	r4,r2
    3c08:	180b883a 	mov	r5,r3
    3c0c:	880d883a 	mov	r6,r17
    3c10:	102b883a 	mov	r21,r2
    3c14:	1829883a 	mov	r20,r3
    3c18:	000b5780 	call	b578 <__gedf2>
    3c1c:	00807716 	blt	zero,r2,3dfc <_dtoa_r+0x1388>
    3c20:	d8800e17 	ldw	r2,56(sp)
    3c24:	a809883a 	mov	r4,r21
    3c28:	a00b883a 	mov	r5,r20
    3c2c:	11e0003c 	xorhi	r7,r2,32768
    3c30:	880d883a 	mov	r6,r17
    3c34:	000b6580 	call	b658 <__ledf2>
    3c38:	103d6b0e 	bge	r2,zero,31e8 <__alt_mem_Flash_flash_data+0xf40031e8>
    3c3c:	002b883a 	mov	r21,zero
    3c40:	0023883a 	mov	r17,zero
    3c44:	003f4c06 	br	3978 <__alt_mem_Flash_flash_data+0xf4003978>
    3c48:	d9800917 	ldw	r6,36(sp)
    3c4c:	e00b883a 	mov	r5,fp
    3c50:	8009883a 	mov	r4,r16
    3c54:	00061340 	call	6134 <__pow5mult>
    3c58:	1039883a 	mov	fp,r2
    3c5c:	003e2706 	br	34fc <__alt_mem_Flash_flash_data+0xf40034fc>
    3c60:	d8000b15 	stw	zero,44(sp)
    3c64:	003c4906 	br	2d8c <__alt_mem_Flash_flash_data+0xf4002d8c>
    3c68:	d9000917 	ldw	r4,36(sp)
    3c6c:	d9800a17 	ldw	r6,40(sp)
    3c70:	dd400915 	stw	r21,36(sp)
    3c74:	a905c83a 	sub	r2,r21,r4
    3c78:	308d883a 	add	r6,r6,r2
    3c7c:	d9800a15 	stw	r6,40(sp)
    3c80:	002b883a 	mov	r21,zero
    3c84:	003df206 	br	3450 <__alt_mem_Flash_flash_data+0xf4003450>
    3c88:	dc800e15 	stw	r18,56(sp)
    3c8c:	982b883a 	mov	r21,r19
    3c90:	04400084 	movi	r17,2
    3c94:	003c7406 	br	2e68 <__alt_mem_Flash_flash_data+0xf4002e68>
    3c98:	04400044 	movi	r17,1
    3c9c:	dc400c15 	stw	r17,48(sp)
    3ca0:	dc400615 	stw	r17,24(sp)
    3ca4:	dc402215 	stw	r17,136(sp)
    3ca8:	80001115 	stw	zero,68(r16)
    3cac:	000b883a 	mov	r5,zero
    3cb0:	003c4a06 	br	2ddc <__alt_mem_Flash_flash_data+0xf4002ddc>
    3cb4:	3023883a 	mov	r17,r6
    3cb8:	003ffb06 	br	3ca8 <__alt_mem_Flash_flash_data+0xf4003ca8>
    3cbc:	1000021e 	bne	r2,zero,3cc8 <_dtoa_r+0x1254>
    3cc0:	4200004c 	andi	r8,r8,1
    3cc4:	403e8f1e 	bne	r8,zero,3704 <__alt_mem_Flash_flash_data+0xf4003704>
    3cc8:	01000c04 	movi	r4,48
    3ccc:	00000106 	br	3cd4 <_dtoa_r+0x1260>
    3cd0:	102f883a 	mov	r23,r2
    3cd4:	b8bfffc4 	addi	r2,r23,-1
    3cd8:	10c00007 	ldb	r3,0(r2)
    3cdc:	193ffc26 	beq	r3,r4,3cd0 <__alt_mem_Flash_flash_data+0xf4003cd0>
    3ce0:	003e9906 	br	3748 <__alt_mem_Flash_flash_data+0xf4003748>
    3ce4:	d9000517 	ldw	r4,20(sp)
    3ce8:	012fc83a 	sub	r23,zero,r4
    3cec:	b800ad26 	beq	r23,zero,3fa4 <_dtoa_r+0x1530>
    3cf0:	b88003cc 	andi	r2,r23,15
    3cf4:	100490fa 	slli	r2,r2,3
    3cf8:	00c000b4 	movhi	r3,2
    3cfc:	18e5d004 	addi	r3,r3,-26816
    3d00:	1885883a 	add	r2,r3,r2
    3d04:	11800017 	ldw	r6,0(r2)
    3d08:	11c00117 	ldw	r7,4(r2)
    3d0c:	b82fd13a 	srai	r23,r23,4
    3d10:	9009883a 	mov	r4,r18
    3d14:	980b883a 	mov	r5,r19
    3d18:	000b7380 	call	b738 <__muldf3>
    3d1c:	1029883a 	mov	r20,r2
    3d20:	182b883a 	mov	r21,r3
    3d24:	b800f426 	beq	r23,zero,40f8 <_dtoa_r+0x1684>
    3d28:	020000b4 	movhi	r8,2
    3d2c:	4225c604 	addi	r8,r8,-26856
    3d30:	8029883a 	mov	r20,r16
    3d34:	04400084 	movi	r17,2
    3d38:	4021883a 	mov	r16,r8
    3d3c:	b980004c 	andi	r6,r23,1
    3d40:	1009883a 	mov	r4,r2
    3d44:	b82fd07a 	srai	r23,r23,1
    3d48:	180b883a 	mov	r5,r3
    3d4c:	30000426 	beq	r6,zero,3d60 <_dtoa_r+0x12ec>
    3d50:	81800017 	ldw	r6,0(r16)
    3d54:	81c00117 	ldw	r7,4(r16)
    3d58:	8c400044 	addi	r17,r17,1
    3d5c:	000b7380 	call	b738 <__muldf3>
    3d60:	84000204 	addi	r16,r16,8
    3d64:	b83ff51e 	bne	r23,zero,3d3c <__alt_mem_Flash_flash_data+0xf4003d3c>
    3d68:	a021883a 	mov	r16,r20
    3d6c:	182b883a 	mov	r21,r3
    3d70:	1029883a 	mov	r20,r2
    3d74:	003c5506 	br	2ecc <__alt_mem_Flash_flash_data+0xf4002ecc>
    3d78:	d9800517 	ldw	r6,20(sp)
    3d7c:	d9000717 	ldw	r4,28(sp)
    3d80:	00c00c04 	movi	r3,48
    3d84:	31800044 	addi	r6,r6,1
    3d88:	d9800515 	stw	r6,20(sp)
    3d8c:	20c00005 	stb	r3,0(r4)
    3d90:	02000c44 	movi	r8,49
    3d94:	003da206 	br	3420 <__alt_mem_Flash_flash_data+0xf4003420>
    3d98:	89400117 	ldw	r5,4(r17)
    3d9c:	8009883a 	mov	r4,r16
    3da0:	0005af00 	call	5af0 <_Balloc>
    3da4:	89800417 	ldw	r6,16(r17)
    3da8:	11000304 	addi	r4,r2,12
    3dac:	89400304 	addi	r5,r17,12
    3db0:	31800084 	addi	r6,r6,2
    3db4:	318d883a 	add	r6,r6,r6
    3db8:	318d883a 	add	r6,r6,r6
    3dbc:	1027883a 	mov	r19,r2
    3dc0:	00058940 	call	5894 <memcpy>
    3dc4:	8009883a 	mov	r4,r16
    3dc8:	980b883a 	mov	r5,r19
    3dcc:	01800044 	movi	r6,1
    3dd0:	00062740 	call	6274 <__lshift>
    3dd4:	1029883a 	mov	r20,r2
    3dd8:	003e8606 	br	37f4 <__alt_mem_Flash_flash_data+0xf40037f4>
    3ddc:	00800e44 	movi	r2,57
    3de0:	90809526 	beq	r18,r2,4038 <_dtoa_r+0x15c4>
    3de4:	92000044 	addi	r8,r18,1
    3de8:	003f2306 	br	3a78 <__alt_mem_Flash_flash_data+0xf4003a78>
    3dec:	9011883a 	mov	r8,r18
    3df0:	8825883a 	mov	r18,r17
    3df4:	a023883a 	mov	r17,r20
    3df8:	003e3706 	br	36d8 <__alt_mem_Flash_flash_data+0xf40036d8>
    3dfc:	002b883a 	mov	r21,zero
    3e00:	0023883a 	mov	r17,zero
    3e04:	003f5606 	br	3b60 <__alt_mem_Flash_flash_data+0xf4003b60>
    3e08:	51bfffc4 	addi	r6,r10,-1
    3e0c:	300490fa 	slli	r2,r6,3
    3e10:	00c000b4 	movhi	r3,2
    3e14:	18e5d004 	addi	r3,r3,-26816
    3e18:	1885883a 	add	r2,r3,r2
    3e1c:	d9c00e17 	ldw	r7,56(sp)
    3e20:	11000017 	ldw	r4,0(r2)
    3e24:	11400117 	ldw	r5,4(r2)
    3e28:	d8800717 	ldw	r2,28(sp)
    3e2c:	d9801015 	stw	r6,64(sp)
    3e30:	880d883a 	mov	r6,r17
    3e34:	da801615 	stw	r10,88(sp)
    3e38:	15c00044 	addi	r23,r2,1
    3e3c:	000b7380 	call	b738 <__muldf3>
    3e40:	a80b883a 	mov	r5,r21
    3e44:	a009883a 	mov	r4,r20
    3e48:	d8c01115 	stw	r3,68(sp)
    3e4c:	d8800e15 	stw	r2,56(sp)
    3e50:	000c72c0 	call	c72c <__fixdfsi>
    3e54:	1009883a 	mov	r4,r2
    3e58:	1023883a 	mov	r17,r2
    3e5c:	000c7b40 	call	c7b4 <__floatsidf>
    3e60:	a009883a 	mov	r4,r20
    3e64:	a80b883a 	mov	r5,r21
    3e68:	100d883a 	mov	r6,r2
    3e6c:	180f883a 	mov	r7,r3
    3e70:	000be5c0 	call	be5c <__subdf3>
    3e74:	1813883a 	mov	r9,r3
    3e78:	d8c00717 	ldw	r3,28(sp)
    3e7c:	8c400c04 	addi	r17,r17,48
    3e80:	1011883a 	mov	r8,r2
    3e84:	1c400005 	stb	r17,0(r3)
    3e88:	da801617 	ldw	r10,88(sp)
    3e8c:	00800044 	movi	r2,1
    3e90:	50802326 	beq	r10,r2,3f20 <_dtoa_r+0x14ac>
    3e94:	d8800717 	ldw	r2,28(sp)
    3e98:	b82b883a 	mov	r21,r23
    3e9c:	dc001315 	stw	r16,76(sp)
    3ea0:	12a9883a 	add	r20,r2,r10
    3ea4:	4807883a 	mov	r3,r9
    3ea8:	4005883a 	mov	r2,r8
    3eac:	dc801415 	stw	r18,80(sp)
    3eb0:	000d883a 	mov	r6,zero
    3eb4:	01d00934 	movhi	r7,16420
    3eb8:	1009883a 	mov	r4,r2
    3ebc:	180b883a 	mov	r5,r3
    3ec0:	000b7380 	call	b738 <__muldf3>
    3ec4:	180b883a 	mov	r5,r3
    3ec8:	1009883a 	mov	r4,r2
    3ecc:	1821883a 	mov	r16,r3
    3ed0:	1025883a 	mov	r18,r2
    3ed4:	000c72c0 	call	c72c <__fixdfsi>
    3ed8:	1009883a 	mov	r4,r2
    3edc:	1023883a 	mov	r17,r2
    3ee0:	000c7b40 	call	c7b4 <__floatsidf>
    3ee4:	9009883a 	mov	r4,r18
    3ee8:	800b883a 	mov	r5,r16
    3eec:	100d883a 	mov	r6,r2
    3ef0:	180f883a 	mov	r7,r3
    3ef4:	8c400c04 	addi	r17,r17,48
    3ef8:	000be5c0 	call	be5c <__subdf3>
    3efc:	ad400044 	addi	r21,r21,1
    3f00:	ac7fffc5 	stb	r17,-1(r21)
    3f04:	ad3fea1e 	bne	r21,r20,3eb0 <__alt_mem_Flash_flash_data+0xf4003eb0>
    3f08:	1813883a 	mov	r9,r3
    3f0c:	d8c01017 	ldw	r3,64(sp)
    3f10:	dc001317 	ldw	r16,76(sp)
    3f14:	dc801417 	ldw	r18,80(sp)
    3f18:	1011883a 	mov	r8,r2
    3f1c:	b8ef883a 	add	r23,r23,r3
    3f20:	d9000e17 	ldw	r4,56(sp)
    3f24:	d9401117 	ldw	r5,68(sp)
    3f28:	000d883a 	mov	r6,zero
    3f2c:	01cff834 	movhi	r7,16352
    3f30:	da001715 	stw	r8,92(sp)
    3f34:	da401515 	stw	r9,84(sp)
    3f38:	000a38c0 	call	a38c <__adddf3>
    3f3c:	da001717 	ldw	r8,92(sp)
    3f40:	da401517 	ldw	r9,84(sp)
    3f44:	1009883a 	mov	r4,r2
    3f48:	400d883a 	mov	r6,r8
    3f4c:	480f883a 	mov	r7,r9
    3f50:	180b883a 	mov	r5,r3
    3f54:	000b6580 	call	b658 <__ledf2>
    3f58:	da001717 	ldw	r8,92(sp)
    3f5c:	da401517 	ldw	r9,84(sp)
    3f60:	10003b0e 	bge	r2,zero,4050 <_dtoa_r+0x15dc>
    3f64:	d9001217 	ldw	r4,72(sp)
    3f68:	bd7fffc3 	ldbu	r21,-1(r23)
    3f6c:	d9000515 	stw	r4,20(sp)
    3f70:	003d1c06 	br	33e4 <__alt_mem_Flash_flash_data+0xf40033e4>
    3f74:	d8c00817 	ldw	r3,32(sp)
    3f78:	18a9c83a 	sub	r20,r3,r2
    3f7c:	0005883a 	mov	r2,zero
    3f80:	003d3706 	br	3460 <__alt_mem_Flash_flash_data+0xf4003460>
    3f84:	00800044 	movi	r2,1
    3f88:	003dd006 	br	36cc <__alt_mem_Flash_flash_data+0xf40036cc>
    3f8c:	d8c00217 	ldw	r3,8(sp)
    3f90:	00800d84 	movi	r2,54
    3f94:	dd400917 	ldw	r21,36(sp)
    3f98:	10c5c83a 	sub	r2,r2,r3
    3f9c:	dd000817 	ldw	r20,32(sp)
    3fa0:	003d2f06 	br	3460 <__alt_mem_Flash_flash_data+0xf4003460>
    3fa4:	9029883a 	mov	r20,r18
    3fa8:	982b883a 	mov	r21,r19
    3fac:	04400084 	movi	r17,2
    3fb0:	003bc606 	br	2ecc <__alt_mem_Flash_flash_data+0xf4002ecc>
    3fb4:	d8800617 	ldw	r2,24(sp)
    3fb8:	103efc26 	beq	r2,zero,3bac <__alt_mem_Flash_flash_data+0xf4003bac>
    3fbc:	d8c00c17 	ldw	r3,48(sp)
    3fc0:	00fc890e 	bge	zero,r3,31e8 <__alt_mem_Flash_flash_data+0xf40031e8>
    3fc4:	a80b883a 	mov	r5,r21
    3fc8:	a009883a 	mov	r4,r20
    3fcc:	000d883a 	mov	r6,zero
    3fd0:	01d00934 	movhi	r7,16420
    3fd4:	000b7380 	call	b738 <__muldf3>
    3fd8:	89000044 	addi	r4,r17,1
    3fdc:	1029883a 	mov	r20,r2
    3fe0:	182b883a 	mov	r21,r3
    3fe4:	000c7b40 	call	c7b4 <__floatsidf>
    3fe8:	a009883a 	mov	r4,r20
    3fec:	a80b883a 	mov	r5,r21
    3ff0:	100d883a 	mov	r6,r2
    3ff4:	180f883a 	mov	r7,r3
    3ff8:	000b7380 	call	b738 <__muldf3>
    3ffc:	1009883a 	mov	r4,r2
    4000:	180b883a 	mov	r5,r3
    4004:	000d883a 	mov	r6,zero
    4008:	01d00734 	movhi	r7,16412
    400c:	000a38c0 	call	a38c <__adddf3>
    4010:	d9000517 	ldw	r4,20(sp)
    4014:	1023883a 	mov	r17,r2
    4018:	00bf3034 	movhi	r2,64704
    401c:	213fffc4 	addi	r4,r4,-1
    4020:	1885883a 	add	r2,r3,r2
    4024:	d9001215 	stw	r4,72(sp)
    4028:	d8800e15 	stw	r2,56(sp)
    402c:	da800c17 	ldw	r10,48(sp)
    4030:	003bc306 	br	2f40 <__alt_mem_Flash_flash_data+0xf4002f40>
    4034:	b039883a 	mov	fp,r22
    4038:	01000e44 	movi	r4,57
    403c:	8825883a 	mov	r18,r17
    4040:	9dc00044 	addi	r23,r19,1
    4044:	99000005 	stb	r4,0(r19)
    4048:	a023883a 	mov	r17,r20
    404c:	003dae06 	br	3708 <__alt_mem_Flash_flash_data+0xf4003708>
    4050:	d9800e17 	ldw	r6,56(sp)
    4054:	d9c01117 	ldw	r7,68(sp)
    4058:	0009883a 	mov	r4,zero
    405c:	014ff834 	movhi	r5,16352
    4060:	da001715 	stw	r8,92(sp)
    4064:	da401515 	stw	r9,84(sp)
    4068:	000be5c0 	call	be5c <__subdf3>
    406c:	da001717 	ldw	r8,92(sp)
    4070:	da401517 	ldw	r9,84(sp)
    4074:	1009883a 	mov	r4,r2
    4078:	180b883a 	mov	r5,r3
    407c:	400d883a 	mov	r6,r8
    4080:	480f883a 	mov	r7,r9
    4084:	000b5780 	call	b578 <__gedf2>
    4088:	00bc570e 	bge	zero,r2,31e8 <__alt_mem_Flash_flash_data+0xf40031e8>
    408c:	01000c04 	movi	r4,48
    4090:	00000106 	br	4098 <_dtoa_r+0x1624>
    4094:	102f883a 	mov	r23,r2
    4098:	b8bfffc4 	addi	r2,r23,-1
    409c:	10c00007 	ldb	r3,0(r2)
    40a0:	193ffc26 	beq	r3,r4,4094 <__alt_mem_Flash_flash_data+0xf4004094>
    40a4:	d9801217 	ldw	r6,72(sp)
    40a8:	d9800515 	stw	r6,20(sp)
    40ac:	003c1f06 	br	312c <__alt_mem_Flash_flash_data+0xf400312c>
    40b0:	d8801217 	ldw	r2,72(sp)
    40b4:	dc001117 	ldw	r16,68(sp)
    40b8:	d8800515 	stw	r2,20(sp)
    40bc:	003cc906 	br	33e4 <__alt_mem_Flash_flash_data+0xf40033e4>
    40c0:	dd801317 	ldw	r22,76(sp)
    40c4:	dc001117 	ldw	r16,68(sp)
    40c8:	dcc01417 	ldw	r19,80(sp)
    40cc:	dc801017 	ldw	r18,64(sp)
    40d0:	003c4506 	br	31e8 <__alt_mem_Flash_flash_data+0xf40031e8>
    40d4:	103e5d1e 	bne	r2,zero,3a4c <__alt_mem_Flash_flash_data+0xf4003a4c>
    40d8:	4080004c 	andi	r2,r8,1
    40dc:	103e5b26 	beq	r2,zero,3a4c <__alt_mem_Flash_flash_data+0xf4003a4c>
    40e0:	003e5706 	br	3a40 <__alt_mem_Flash_flash_data+0xf4003a40>
    40e4:	d8c00317 	ldw	r3,12(sp)
    40e8:	00800084 	movi	r2,2
    40ec:	10c00a16 	blt	r2,r3,4118 <_dtoa_r+0x16a4>
    40f0:	d9000c17 	ldw	r4,48(sp)
    40f4:	003e8306 	br	3b04 <__alt_mem_Flash_flash_data+0xf4003b04>
    40f8:	04400084 	movi	r17,2
    40fc:	003b7306 	br	2ecc <__alt_mem_Flash_flash_data+0xf4002ecc>
    4100:	d9801217 	ldw	r6,72(sp)
    4104:	d9800515 	stw	r6,20(sp)
    4108:	003cb606 	br	33e4 <__alt_mem_Flash_flash_data+0xf40033e4>
    410c:	d9001217 	ldw	r4,72(sp)
    4110:	d9000515 	stw	r4,20(sp)
    4114:	003c0506 	br	312c <__alt_mem_Flash_flash_data+0xf400312c>
    4118:	d9800c17 	ldw	r6,48(sp)
    411c:	d9800615 	stw	r6,24(sp)
    4120:	003e8306 	br	3b30 <__alt_mem_Flash_flash_data+0xf4003b30>
    4124:	d9800317 	ldw	r6,12(sp)
    4128:	00800084 	movi	r2,2
    412c:	11800216 	blt	r2,r6,4138 <_dtoa_r+0x16c4>
    4130:	d8800c17 	ldw	r2,48(sp)
    4134:	003da606 	br	37d0 <__alt_mem_Flash_flash_data+0xf40037d0>
    4138:	d8800c17 	ldw	r2,48(sp)
    413c:	d8800615 	stw	r2,24(sp)
    4140:	003e7b06 	br	3b30 <__alt_mem_Flash_flash_data+0xf4003b30>
    4144:	05000044 	movi	r20,1
    4148:	003b0506 	br	2d60 <__alt_mem_Flash_flash_data+0xf4002d60>
    414c:	8009883a 	mov	r4,r16
    4150:	80001115 	stw	zero,68(r16)
    4154:	000b883a 	mov	r5,zero
    4158:	0005af00 	call	5af0 <_Balloc>
    415c:	d8800715 	stw	r2,28(sp)
    4160:	d8c00717 	ldw	r3,28(sp)
    4164:	00bfffc4 	movi	r2,-1
    4168:	01000044 	movi	r4,1
    416c:	d8800c15 	stw	r2,48(sp)
    4170:	80c01015 	stw	r3,64(r16)
    4174:	d9000b15 	stw	r4,44(sp)
    4178:	d8800615 	stw	r2,24(sp)
    417c:	d8002215 	stw	zero,136(sp)
    4180:	003c1906 	br	31e8 <__alt_mem_Flash_flash_data+0xf40031e8>
    4184:	193d2926 	beq	r3,r4,362c <__alt_mem_Flash_flash_data+0xf400362c>
    4188:	00c00f04 	movi	r3,60
    418c:	1885c83a 	sub	r2,r3,r2
    4190:	003d7b06 	br	3780 <__alt_mem_Flash_flash_data+0xf4003780>
    4194:	000b883a 	mov	r5,zero
    4198:	003b1006 	br	2ddc <__alt_mem_Flash_flash_data+0xf4002ddc>

0000419c <__sflush_r>:
    419c:	2880030b 	ldhu	r2,12(r5)
    41a0:	defffb04 	addi	sp,sp,-20
    41a4:	dcc00315 	stw	r19,12(sp)
    41a8:	dc400115 	stw	r17,4(sp)
    41ac:	dfc00415 	stw	ra,16(sp)
    41b0:	dc800215 	stw	r18,8(sp)
    41b4:	dc000015 	stw	r16,0(sp)
    41b8:	10c0020c 	andi	r3,r2,8
    41bc:	2823883a 	mov	r17,r5
    41c0:	2027883a 	mov	r19,r4
    41c4:	1800311e 	bne	r3,zero,428c <__sflush_r+0xf0>
    41c8:	28c00117 	ldw	r3,4(r5)
    41cc:	10820014 	ori	r2,r2,2048
    41d0:	2880030d 	sth	r2,12(r5)
    41d4:	00c04b0e 	bge	zero,r3,4304 <__sflush_r+0x168>
    41d8:	8a000a17 	ldw	r8,40(r17)
    41dc:	40002326 	beq	r8,zero,426c <__sflush_r+0xd0>
    41e0:	9c000017 	ldw	r16,0(r19)
    41e4:	10c4000c 	andi	r3,r2,4096
    41e8:	98000015 	stw	zero,0(r19)
    41ec:	18004826 	beq	r3,zero,4310 <__sflush_r+0x174>
    41f0:	89801417 	ldw	r6,80(r17)
    41f4:	10c0010c 	andi	r3,r2,4
    41f8:	18000626 	beq	r3,zero,4214 <__sflush_r+0x78>
    41fc:	88c00117 	ldw	r3,4(r17)
    4200:	88800c17 	ldw	r2,48(r17)
    4204:	30cdc83a 	sub	r6,r6,r3
    4208:	10000226 	beq	r2,zero,4214 <__sflush_r+0x78>
    420c:	88800f17 	ldw	r2,60(r17)
    4210:	308dc83a 	sub	r6,r6,r2
    4214:	89400717 	ldw	r5,28(r17)
    4218:	9809883a 	mov	r4,r19
    421c:	000f883a 	mov	r7,zero
    4220:	403ee83a 	callr	r8
    4224:	00ffffc4 	movi	r3,-1
    4228:	10c04426 	beq	r2,r3,433c <__sflush_r+0x1a0>
    422c:	88c0030b 	ldhu	r3,12(r17)
    4230:	89000417 	ldw	r4,16(r17)
    4234:	88000115 	stw	zero,4(r17)
    4238:	197dffcc 	andi	r5,r3,63487
    423c:	8940030d 	sth	r5,12(r17)
    4240:	89000015 	stw	r4,0(r17)
    4244:	18c4000c 	andi	r3,r3,4096
    4248:	18002c1e 	bne	r3,zero,42fc <__sflush_r+0x160>
    424c:	89400c17 	ldw	r5,48(r17)
    4250:	9c000015 	stw	r16,0(r19)
    4254:	28000526 	beq	r5,zero,426c <__sflush_r+0xd0>
    4258:	88801004 	addi	r2,r17,64
    425c:	28800226 	beq	r5,r2,4268 <__sflush_r+0xcc>
    4260:	9809883a 	mov	r4,r19
    4264:	00048f40 	call	48f4 <_free_r>
    4268:	88000c15 	stw	zero,48(r17)
    426c:	0005883a 	mov	r2,zero
    4270:	dfc00417 	ldw	ra,16(sp)
    4274:	dcc00317 	ldw	r19,12(sp)
    4278:	dc800217 	ldw	r18,8(sp)
    427c:	dc400117 	ldw	r17,4(sp)
    4280:	dc000017 	ldw	r16,0(sp)
    4284:	dec00504 	addi	sp,sp,20
    4288:	f800283a 	ret
    428c:	2c800417 	ldw	r18,16(r5)
    4290:	903ff626 	beq	r18,zero,426c <__alt_mem_Flash_flash_data+0xf400426c>
    4294:	2c000017 	ldw	r16,0(r5)
    4298:	108000cc 	andi	r2,r2,3
    429c:	2c800015 	stw	r18,0(r5)
    42a0:	84a1c83a 	sub	r16,r16,r18
    42a4:	1000131e 	bne	r2,zero,42f4 <__sflush_r+0x158>
    42a8:	28800517 	ldw	r2,20(r5)
    42ac:	88800215 	stw	r2,8(r17)
    42b0:	04000316 	blt	zero,r16,42c0 <__sflush_r+0x124>
    42b4:	003fed06 	br	426c <__alt_mem_Flash_flash_data+0xf400426c>
    42b8:	90a5883a 	add	r18,r18,r2
    42bc:	043feb0e 	bge	zero,r16,426c <__alt_mem_Flash_flash_data+0xf400426c>
    42c0:	88800917 	ldw	r2,36(r17)
    42c4:	89400717 	ldw	r5,28(r17)
    42c8:	800f883a 	mov	r7,r16
    42cc:	900d883a 	mov	r6,r18
    42d0:	9809883a 	mov	r4,r19
    42d4:	103ee83a 	callr	r2
    42d8:	80a1c83a 	sub	r16,r16,r2
    42dc:	00bff616 	blt	zero,r2,42b8 <__alt_mem_Flash_flash_data+0xf40042b8>
    42e0:	88c0030b 	ldhu	r3,12(r17)
    42e4:	00bfffc4 	movi	r2,-1
    42e8:	18c01014 	ori	r3,r3,64
    42ec:	88c0030d 	sth	r3,12(r17)
    42f0:	003fdf06 	br	4270 <__alt_mem_Flash_flash_data+0xf4004270>
    42f4:	0005883a 	mov	r2,zero
    42f8:	003fec06 	br	42ac <__alt_mem_Flash_flash_data+0xf40042ac>
    42fc:	88801415 	stw	r2,80(r17)
    4300:	003fd206 	br	424c <__alt_mem_Flash_flash_data+0xf400424c>
    4304:	28c00f17 	ldw	r3,60(r5)
    4308:	00ffb316 	blt	zero,r3,41d8 <__alt_mem_Flash_flash_data+0xf40041d8>
    430c:	003fd706 	br	426c <__alt_mem_Flash_flash_data+0xf400426c>
    4310:	89400717 	ldw	r5,28(r17)
    4314:	000d883a 	mov	r6,zero
    4318:	9809883a 	mov	r4,r19
    431c:	01c00044 	movi	r7,1
    4320:	403ee83a 	callr	r8
    4324:	100d883a 	mov	r6,r2
    4328:	00bfffc4 	movi	r2,-1
    432c:	30801426 	beq	r6,r2,4380 <__sflush_r+0x1e4>
    4330:	8880030b 	ldhu	r2,12(r17)
    4334:	8a000a17 	ldw	r8,40(r17)
    4338:	003fae06 	br	41f4 <__alt_mem_Flash_flash_data+0xf40041f4>
    433c:	98c00017 	ldw	r3,0(r19)
    4340:	183fba26 	beq	r3,zero,422c <__alt_mem_Flash_flash_data+0xf400422c>
    4344:	01000744 	movi	r4,29
    4348:	19000626 	beq	r3,r4,4364 <__sflush_r+0x1c8>
    434c:	01000584 	movi	r4,22
    4350:	19000426 	beq	r3,r4,4364 <__sflush_r+0x1c8>
    4354:	88c0030b 	ldhu	r3,12(r17)
    4358:	18c01014 	ori	r3,r3,64
    435c:	88c0030d 	sth	r3,12(r17)
    4360:	003fc306 	br	4270 <__alt_mem_Flash_flash_data+0xf4004270>
    4364:	8880030b 	ldhu	r2,12(r17)
    4368:	88c00417 	ldw	r3,16(r17)
    436c:	88000115 	stw	zero,4(r17)
    4370:	10bdffcc 	andi	r2,r2,63487
    4374:	8880030d 	sth	r2,12(r17)
    4378:	88c00015 	stw	r3,0(r17)
    437c:	003fb306 	br	424c <__alt_mem_Flash_flash_data+0xf400424c>
    4380:	98800017 	ldw	r2,0(r19)
    4384:	103fea26 	beq	r2,zero,4330 <__alt_mem_Flash_flash_data+0xf4004330>
    4388:	00c00744 	movi	r3,29
    438c:	10c00226 	beq	r2,r3,4398 <__sflush_r+0x1fc>
    4390:	00c00584 	movi	r3,22
    4394:	10ffd21e 	bne	r2,r3,42e0 <__alt_mem_Flash_flash_data+0xf40042e0>
    4398:	9c000015 	stw	r16,0(r19)
    439c:	0005883a 	mov	r2,zero
    43a0:	003fb306 	br	4270 <__alt_mem_Flash_flash_data+0xf4004270>

000043a4 <_fflush_r>:
    43a4:	defffd04 	addi	sp,sp,-12
    43a8:	dc000115 	stw	r16,4(sp)
    43ac:	dfc00215 	stw	ra,8(sp)
    43b0:	2021883a 	mov	r16,r4
    43b4:	20000226 	beq	r4,zero,43c0 <_fflush_r+0x1c>
    43b8:	20800e17 	ldw	r2,56(r4)
    43bc:	10000c26 	beq	r2,zero,43f0 <_fflush_r+0x4c>
    43c0:	2880030f 	ldh	r2,12(r5)
    43c4:	1000051e 	bne	r2,zero,43dc <_fflush_r+0x38>
    43c8:	0005883a 	mov	r2,zero
    43cc:	dfc00217 	ldw	ra,8(sp)
    43d0:	dc000117 	ldw	r16,4(sp)
    43d4:	dec00304 	addi	sp,sp,12
    43d8:	f800283a 	ret
    43dc:	8009883a 	mov	r4,r16
    43e0:	dfc00217 	ldw	ra,8(sp)
    43e4:	dc000117 	ldw	r16,4(sp)
    43e8:	dec00304 	addi	sp,sp,12
    43ec:	000419c1 	jmpi	419c <__sflush_r>
    43f0:	d9400015 	stw	r5,0(sp)
    43f4:	00047800 	call	4780 <__sinit>
    43f8:	d9400017 	ldw	r5,0(sp)
    43fc:	003ff006 	br	43c0 <__alt_mem_Flash_flash_data+0xf40043c0>

00004400 <fflush>:
    4400:	20000526 	beq	r4,zero,4418 <fflush+0x18>
    4404:	008000b4 	movhi	r2,2
    4408:	10afda04 	addi	r2,r2,-16536
    440c:	200b883a 	mov	r5,r4
    4410:	11000017 	ldw	r4,0(r2)
    4414:	00043a41 	jmpi	43a4 <_fflush_r>
    4418:	008000b4 	movhi	r2,2
    441c:	10afd904 	addi	r2,r2,-16540
    4420:	11000017 	ldw	r4,0(r2)
    4424:	01400034 	movhi	r5,0
    4428:	2950e904 	addi	r5,r5,17316
    442c:	0004ca81 	jmpi	4ca8 <_fwalk_reent>

00004430 <__fp_lock>:
    4430:	0005883a 	mov	r2,zero
    4434:	f800283a 	ret

00004438 <__fp_unlock>:
    4438:	0005883a 	mov	r2,zero
    443c:	f800283a 	ret

00004440 <_cleanup_r>:
    4440:	01400074 	movhi	r5,1
    4444:	29610204 	addi	r5,r5,-31736
    4448:	0004ca81 	jmpi	4ca8 <_fwalk_reent>

0000444c <__sinit.part.1>:
    444c:	defff704 	addi	sp,sp,-36
    4450:	00c00034 	movhi	r3,0
    4454:	dfc00815 	stw	ra,32(sp)
    4458:	ddc00715 	stw	r23,28(sp)
    445c:	dd800615 	stw	r22,24(sp)
    4460:	dd400515 	stw	r21,20(sp)
    4464:	dd000415 	stw	r20,16(sp)
    4468:	dcc00315 	stw	r19,12(sp)
    446c:	dc800215 	stw	r18,8(sp)
    4470:	dc400115 	stw	r17,4(sp)
    4474:	dc000015 	stw	r16,0(sp)
    4478:	18d11004 	addi	r3,r3,17472
    447c:	24000117 	ldw	r16,4(r4)
    4480:	20c00f15 	stw	r3,60(r4)
    4484:	2080bb04 	addi	r2,r4,748
    4488:	00c000c4 	movi	r3,3
    448c:	20c0b915 	stw	r3,740(r4)
    4490:	2080ba15 	stw	r2,744(r4)
    4494:	2000b815 	stw	zero,736(r4)
    4498:	05c00204 	movi	r23,8
    449c:	00800104 	movi	r2,4
    44a0:	2025883a 	mov	r18,r4
    44a4:	b80d883a 	mov	r6,r23
    44a8:	81001704 	addi	r4,r16,92
    44ac:	000b883a 	mov	r5,zero
    44b0:	80000015 	stw	zero,0(r16)
    44b4:	80000115 	stw	zero,4(r16)
    44b8:	80000215 	stw	zero,8(r16)
    44bc:	8080030d 	sth	r2,12(r16)
    44c0:	80001915 	stw	zero,100(r16)
    44c4:	8000038d 	sth	zero,14(r16)
    44c8:	80000415 	stw	zero,16(r16)
    44cc:	80000515 	stw	zero,20(r16)
    44d0:	80000615 	stw	zero,24(r16)
    44d4:	00059cc0 	call	59cc <memset>
    44d8:	05800034 	movhi	r22,0
    44dc:	94400217 	ldw	r17,8(r18)
    44e0:	05400034 	movhi	r21,0
    44e4:	05000034 	movhi	r20,0
    44e8:	04c00034 	movhi	r19,0
    44ec:	b59ad604 	addi	r22,r22,27480
    44f0:	ad5aed04 	addi	r21,r21,27572
    44f4:	a51b0c04 	addi	r20,r20,27696
    44f8:	9cdb2304 	addi	r19,r19,27788
    44fc:	85800815 	stw	r22,32(r16)
    4500:	85400915 	stw	r21,36(r16)
    4504:	85000a15 	stw	r20,40(r16)
    4508:	84c00b15 	stw	r19,44(r16)
    450c:	84000715 	stw	r16,28(r16)
    4510:	00800284 	movi	r2,10
    4514:	8880030d 	sth	r2,12(r17)
    4518:	00800044 	movi	r2,1
    451c:	89001704 	addi	r4,r17,92
    4520:	b80d883a 	mov	r6,r23
    4524:	000b883a 	mov	r5,zero
    4528:	88000015 	stw	zero,0(r17)
    452c:	88000115 	stw	zero,4(r17)
    4530:	88000215 	stw	zero,8(r17)
    4534:	88001915 	stw	zero,100(r17)
    4538:	8880038d 	sth	r2,14(r17)
    453c:	88000415 	stw	zero,16(r17)
    4540:	88000515 	stw	zero,20(r17)
    4544:	88000615 	stw	zero,24(r17)
    4548:	00059cc0 	call	59cc <memset>
    454c:	94000317 	ldw	r16,12(r18)
    4550:	00800484 	movi	r2,18
    4554:	8c400715 	stw	r17,28(r17)
    4558:	8d800815 	stw	r22,32(r17)
    455c:	8d400915 	stw	r21,36(r17)
    4560:	8d000a15 	stw	r20,40(r17)
    4564:	8cc00b15 	stw	r19,44(r17)
    4568:	8080030d 	sth	r2,12(r16)
    456c:	00800084 	movi	r2,2
    4570:	80000015 	stw	zero,0(r16)
    4574:	80000115 	stw	zero,4(r16)
    4578:	80000215 	stw	zero,8(r16)
    457c:	80001915 	stw	zero,100(r16)
    4580:	8080038d 	sth	r2,14(r16)
    4584:	80000415 	stw	zero,16(r16)
    4588:	80000515 	stw	zero,20(r16)
    458c:	80000615 	stw	zero,24(r16)
    4590:	81001704 	addi	r4,r16,92
    4594:	000b883a 	mov	r5,zero
    4598:	b80d883a 	mov	r6,r23
    459c:	00059cc0 	call	59cc <memset>
    45a0:	00800044 	movi	r2,1
    45a4:	84000715 	stw	r16,28(r16)
    45a8:	85800815 	stw	r22,32(r16)
    45ac:	85400915 	stw	r21,36(r16)
    45b0:	85000a15 	stw	r20,40(r16)
    45b4:	84c00b15 	stw	r19,44(r16)
    45b8:	90800e15 	stw	r2,56(r18)
    45bc:	dfc00817 	ldw	ra,32(sp)
    45c0:	ddc00717 	ldw	r23,28(sp)
    45c4:	dd800617 	ldw	r22,24(sp)
    45c8:	dd400517 	ldw	r21,20(sp)
    45cc:	dd000417 	ldw	r20,16(sp)
    45d0:	dcc00317 	ldw	r19,12(sp)
    45d4:	dc800217 	ldw	r18,8(sp)
    45d8:	dc400117 	ldw	r17,4(sp)
    45dc:	dc000017 	ldw	r16,0(sp)
    45e0:	dec00904 	addi	sp,sp,36
    45e4:	f800283a 	ret

000045e8 <__sfmoreglue>:
    45e8:	defffc04 	addi	sp,sp,-16
    45ec:	dc400115 	stw	r17,4(sp)
    45f0:	2c7fffc4 	addi	r17,r5,-1
    45f4:	8c401a24 	muli	r17,r17,104
    45f8:	dc800215 	stw	r18,8(sp)
    45fc:	2825883a 	mov	r18,r5
    4600:	89401d04 	addi	r5,r17,116
    4604:	dc000015 	stw	r16,0(sp)
    4608:	dfc00315 	stw	ra,12(sp)
    460c:	00050040 	call	5004 <_malloc_r>
    4610:	1021883a 	mov	r16,r2
    4614:	10000726 	beq	r2,zero,4634 <__sfmoreglue+0x4c>
    4618:	11000304 	addi	r4,r2,12
    461c:	10000015 	stw	zero,0(r2)
    4620:	14800115 	stw	r18,4(r2)
    4624:	11000215 	stw	r4,8(r2)
    4628:	000b883a 	mov	r5,zero
    462c:	89801a04 	addi	r6,r17,104
    4630:	00059cc0 	call	59cc <memset>
    4634:	8005883a 	mov	r2,r16
    4638:	dfc00317 	ldw	ra,12(sp)
    463c:	dc800217 	ldw	r18,8(sp)
    4640:	dc400117 	ldw	r17,4(sp)
    4644:	dc000017 	ldw	r16,0(sp)
    4648:	dec00404 	addi	sp,sp,16
    464c:	f800283a 	ret

00004650 <__sfp>:
    4650:	008000b4 	movhi	r2,2
    4654:	defffb04 	addi	sp,sp,-20
    4658:	10afd904 	addi	r2,r2,-16540
    465c:	dc800215 	stw	r18,8(sp)
    4660:	14800017 	ldw	r18,0(r2)
    4664:	dcc00315 	stw	r19,12(sp)
    4668:	dfc00415 	stw	ra,16(sp)
    466c:	90800e17 	ldw	r2,56(r18)
    4670:	dc400115 	stw	r17,4(sp)
    4674:	dc000015 	stw	r16,0(sp)
    4678:	2027883a 	mov	r19,r4
    467c:	1000021e 	bne	r2,zero,4688 <__sfp+0x38>
    4680:	9009883a 	mov	r4,r18
    4684:	000444c0 	call	444c <__sinit.part.1>
    4688:	9480b804 	addi	r18,r18,736
    468c:	047fffc4 	movi	r17,-1
    4690:	91400117 	ldw	r5,4(r18)
    4694:	94000217 	ldw	r16,8(r18)
    4698:	297fffc4 	addi	r5,r5,-1
    469c:	28000a16 	blt	r5,zero,46c8 <__sfp+0x78>
    46a0:	8080030f 	ldh	r2,12(r16)
    46a4:	10000c26 	beq	r2,zero,46d8 <__sfp+0x88>
    46a8:	80c01d04 	addi	r3,r16,116
    46ac:	00000206 	br	46b8 <__sfp+0x68>
    46b0:	18bfe60f 	ldh	r2,-104(r3)
    46b4:	10000826 	beq	r2,zero,46d8 <__sfp+0x88>
    46b8:	297fffc4 	addi	r5,r5,-1
    46bc:	1c3ffd04 	addi	r16,r3,-12
    46c0:	18c01a04 	addi	r3,r3,104
    46c4:	2c7ffa1e 	bne	r5,r17,46b0 <__alt_mem_Flash_flash_data+0xf40046b0>
    46c8:	90800017 	ldw	r2,0(r18)
    46cc:	10001d26 	beq	r2,zero,4744 <__sfp+0xf4>
    46d0:	1025883a 	mov	r18,r2
    46d4:	003fee06 	br	4690 <__alt_mem_Flash_flash_data+0xf4004690>
    46d8:	00bfffc4 	movi	r2,-1
    46dc:	8080038d 	sth	r2,14(r16)
    46e0:	00800044 	movi	r2,1
    46e4:	8080030d 	sth	r2,12(r16)
    46e8:	80001915 	stw	zero,100(r16)
    46ec:	80000015 	stw	zero,0(r16)
    46f0:	80000215 	stw	zero,8(r16)
    46f4:	80000115 	stw	zero,4(r16)
    46f8:	80000415 	stw	zero,16(r16)
    46fc:	80000515 	stw	zero,20(r16)
    4700:	80000615 	stw	zero,24(r16)
    4704:	81001704 	addi	r4,r16,92
    4708:	000b883a 	mov	r5,zero
    470c:	01800204 	movi	r6,8
    4710:	00059cc0 	call	59cc <memset>
    4714:	8005883a 	mov	r2,r16
    4718:	80000c15 	stw	zero,48(r16)
    471c:	80000d15 	stw	zero,52(r16)
    4720:	80001115 	stw	zero,68(r16)
    4724:	80001215 	stw	zero,72(r16)
    4728:	dfc00417 	ldw	ra,16(sp)
    472c:	dcc00317 	ldw	r19,12(sp)
    4730:	dc800217 	ldw	r18,8(sp)
    4734:	dc400117 	ldw	r17,4(sp)
    4738:	dc000017 	ldw	r16,0(sp)
    473c:	dec00504 	addi	sp,sp,20
    4740:	f800283a 	ret
    4744:	9809883a 	mov	r4,r19
    4748:	01400104 	movi	r5,4
    474c:	00045e80 	call	45e8 <__sfmoreglue>
    4750:	90800015 	stw	r2,0(r18)
    4754:	103fde1e 	bne	r2,zero,46d0 <__alt_mem_Flash_flash_data+0xf40046d0>
    4758:	00800304 	movi	r2,12
    475c:	98800015 	stw	r2,0(r19)
    4760:	0005883a 	mov	r2,zero
    4764:	003ff006 	br	4728 <__alt_mem_Flash_flash_data+0xf4004728>

00004768 <_cleanup>:
    4768:	008000b4 	movhi	r2,2
    476c:	10afd904 	addi	r2,r2,-16540
    4770:	11000017 	ldw	r4,0(r2)
    4774:	01400074 	movhi	r5,1
    4778:	29610204 	addi	r5,r5,-31736
    477c:	0004ca81 	jmpi	4ca8 <_fwalk_reent>

00004780 <__sinit>:
    4780:	20800e17 	ldw	r2,56(r4)
    4784:	10000126 	beq	r2,zero,478c <__sinit+0xc>
    4788:	f800283a 	ret
    478c:	000444c1 	jmpi	444c <__sinit.part.1>

00004790 <__sfp_lock_acquire>:
    4790:	f800283a 	ret

00004794 <__sfp_lock_release>:
    4794:	f800283a 	ret

00004798 <__sinit_lock_acquire>:
    4798:	f800283a 	ret

0000479c <__sinit_lock_release>:
    479c:	f800283a 	ret

000047a0 <__fp_lock_all>:
    47a0:	008000b4 	movhi	r2,2
    47a4:	10afda04 	addi	r2,r2,-16536
    47a8:	11000017 	ldw	r4,0(r2)
    47ac:	01400034 	movhi	r5,0
    47b0:	29510c04 	addi	r5,r5,17456
    47b4:	0004be41 	jmpi	4be4 <_fwalk>

000047b8 <__fp_unlock_all>:
    47b8:	008000b4 	movhi	r2,2
    47bc:	10afda04 	addi	r2,r2,-16536
    47c0:	11000017 	ldw	r4,0(r2)
    47c4:	01400034 	movhi	r5,0
    47c8:	29510e04 	addi	r5,r5,17464
    47cc:	0004be41 	jmpi	4be4 <_fwalk>

000047d0 <_malloc_trim_r>:
    47d0:	defffb04 	addi	sp,sp,-20
    47d4:	dcc00315 	stw	r19,12(sp)
    47d8:	04c000b4 	movhi	r19,2
    47dc:	dc800215 	stw	r18,8(sp)
    47e0:	dc400115 	stw	r17,4(sp)
    47e4:	dc000015 	stw	r16,0(sp)
    47e8:	dfc00415 	stw	ra,16(sp)
    47ec:	2821883a 	mov	r16,r5
    47f0:	9ce8bb04 	addi	r19,r19,-23828
    47f4:	2025883a 	mov	r18,r4
    47f8:	000d4680 	call	d468 <__malloc_lock>
    47fc:	98800217 	ldw	r2,8(r19)
    4800:	14400117 	ldw	r17,4(r2)
    4804:	00bfff04 	movi	r2,-4
    4808:	88a2703a 	and	r17,r17,r2
    480c:	8c21c83a 	sub	r16,r17,r16
    4810:	8403fbc4 	addi	r16,r16,4079
    4814:	8020d33a 	srli	r16,r16,12
    4818:	0083ffc4 	movi	r2,4095
    481c:	843fffc4 	addi	r16,r16,-1
    4820:	8020933a 	slli	r16,r16,12
    4824:	1400060e 	bge	r2,r16,4840 <_malloc_trim_r+0x70>
    4828:	9009883a 	mov	r4,r18
    482c:	000b883a 	mov	r5,zero
    4830:	0006b040 	call	6b04 <_sbrk_r>
    4834:	98c00217 	ldw	r3,8(r19)
    4838:	1c47883a 	add	r3,r3,r17
    483c:	10c00a26 	beq	r2,r3,4868 <_malloc_trim_r+0x98>
    4840:	9009883a 	mov	r4,r18
    4844:	000d5880 	call	d588 <__malloc_unlock>
    4848:	0005883a 	mov	r2,zero
    484c:	dfc00417 	ldw	ra,16(sp)
    4850:	dcc00317 	ldw	r19,12(sp)
    4854:	dc800217 	ldw	r18,8(sp)
    4858:	dc400117 	ldw	r17,4(sp)
    485c:	dc000017 	ldw	r16,0(sp)
    4860:	dec00504 	addi	sp,sp,20
    4864:	f800283a 	ret
    4868:	9009883a 	mov	r4,r18
    486c:	040bc83a 	sub	r5,zero,r16
    4870:	0006b040 	call	6b04 <_sbrk_r>
    4874:	00ffffc4 	movi	r3,-1
    4878:	10c00d26 	beq	r2,r3,48b0 <_malloc_trim_r+0xe0>
    487c:	00c000b4 	movhi	r3,2
    4880:	18f8aa04 	addi	r3,r3,-7512
    4884:	18800017 	ldw	r2,0(r3)
    4888:	99000217 	ldw	r4,8(r19)
    488c:	8c23c83a 	sub	r17,r17,r16
    4890:	8c400054 	ori	r17,r17,1
    4894:	1421c83a 	sub	r16,r2,r16
    4898:	24400115 	stw	r17,4(r4)
    489c:	9009883a 	mov	r4,r18
    48a0:	1c000015 	stw	r16,0(r3)
    48a4:	000d5880 	call	d588 <__malloc_unlock>
    48a8:	00800044 	movi	r2,1
    48ac:	003fe706 	br	484c <__alt_mem_Flash_flash_data+0xf400484c>
    48b0:	9009883a 	mov	r4,r18
    48b4:	000b883a 	mov	r5,zero
    48b8:	0006b040 	call	6b04 <_sbrk_r>
    48bc:	99000217 	ldw	r4,8(r19)
    48c0:	014003c4 	movi	r5,15
    48c4:	1107c83a 	sub	r3,r2,r4
    48c8:	28ffdd0e 	bge	r5,r3,4840 <__alt_mem_Flash_flash_data+0xf4004840>
    48cc:	014000b4 	movhi	r5,2
    48d0:	296fdc04 	addi	r5,r5,-16528
    48d4:	29400017 	ldw	r5,0(r5)
    48d8:	18c00054 	ori	r3,r3,1
    48dc:	20c00115 	stw	r3,4(r4)
    48e0:	00c000b4 	movhi	r3,2
    48e4:	1145c83a 	sub	r2,r2,r5
    48e8:	18f8aa04 	addi	r3,r3,-7512
    48ec:	18800015 	stw	r2,0(r3)
    48f0:	003fd306 	br	4840 <__alt_mem_Flash_flash_data+0xf4004840>

000048f4 <_free_r>:
    48f4:	28004c26 	beq	r5,zero,4a28 <_free_r+0x134>
    48f8:	defffd04 	addi	sp,sp,-12
    48fc:	dc400115 	stw	r17,4(sp)
    4900:	dc000015 	stw	r16,0(sp)
    4904:	2023883a 	mov	r17,r4
    4908:	2821883a 	mov	r16,r5
    490c:	dfc00215 	stw	ra,8(sp)
    4910:	000d4680 	call	d468 <__malloc_lock>
    4914:	813fff17 	ldw	r4,-4(r16)
    4918:	00bfff84 	movi	r2,-2
    491c:	024000b4 	movhi	r9,2
    4920:	81bffe04 	addi	r6,r16,-8
    4924:	2084703a 	and	r2,r4,r2
    4928:	4a68bb04 	addi	r9,r9,-23828
    492c:	308b883a 	add	r5,r6,r2
    4930:	2a000117 	ldw	r8,4(r5)
    4934:	49c00217 	ldw	r7,8(r9)
    4938:	00ffff04 	movi	r3,-4
    493c:	40c6703a 	and	r3,r8,r3
    4940:	39405326 	beq	r7,r5,4a90 <_free_r+0x19c>
    4944:	28c00115 	stw	r3,4(r5)
    4948:	2100004c 	andi	r4,r4,1
    494c:	2000091e 	bne	r4,zero,4974 <_free_r+0x80>
    4950:	81fffe17 	ldw	r7,-8(r16)
    4954:	4a000204 	addi	r8,r9,8
    4958:	31cdc83a 	sub	r6,r6,r7
    495c:	31000217 	ldw	r4,8(r6)
    4960:	11c5883a 	add	r2,r2,r7
    4964:	22006126 	beq	r4,r8,4aec <_free_r+0x1f8>
    4968:	31c00317 	ldw	r7,12(r6)
    496c:	21c00315 	stw	r7,12(r4)
    4970:	39000215 	stw	r4,8(r7)
    4974:	28c9883a 	add	r4,r5,r3
    4978:	21c00117 	ldw	r7,4(r4)
    497c:	39c0004c 	andi	r7,r7,1
    4980:	38000d1e 	bne	r7,zero,49b8 <_free_r+0xc4>
    4984:	29000217 	ldw	r4,8(r5)
    4988:	10c5883a 	add	r2,r2,r3
    498c:	00c000b4 	movhi	r3,2
    4990:	18e8bd04 	addi	r3,r3,-23820
    4994:	20c07526 	beq	r4,r3,4b6c <_free_r+0x278>
    4998:	29c00317 	ldw	r7,12(r5)
    499c:	11400054 	ori	r5,r2,1
    49a0:	3087883a 	add	r3,r6,r2
    49a4:	21c00315 	stw	r7,12(r4)
    49a8:	39000215 	stw	r4,8(r7)
    49ac:	31400115 	stw	r5,4(r6)
    49b0:	18800015 	stw	r2,0(r3)
    49b4:	00000406 	br	49c8 <_free_r+0xd4>
    49b8:	10c00054 	ori	r3,r2,1
    49bc:	30c00115 	stw	r3,4(r6)
    49c0:	3087883a 	add	r3,r6,r2
    49c4:	18800015 	stw	r2,0(r3)
    49c8:	00c07fc4 	movi	r3,511
    49cc:	18801736 	bltu	r3,r2,4a2c <_free_r+0x138>
    49d0:	1004d0fa 	srli	r2,r2,3
    49d4:	01400044 	movi	r5,1
    49d8:	49000117 	ldw	r4,4(r9)
    49dc:	1087883a 	add	r3,r2,r2
    49e0:	18c7883a 	add	r3,r3,r3
    49e4:	1005d0ba 	srai	r2,r2,2
    49e8:	18c7883a 	add	r3,r3,r3
    49ec:	1a47883a 	add	r3,r3,r9
    49f0:	19c00217 	ldw	r7,8(r3)
    49f4:	2884983a 	sll	r2,r5,r2
    49f8:	30c00315 	stw	r3,12(r6)
    49fc:	31c00215 	stw	r7,8(r6)
    4a00:	1104b03a 	or	r2,r2,r4
    4a04:	19800215 	stw	r6,8(r3)
    4a08:	48800115 	stw	r2,4(r9)
    4a0c:	39800315 	stw	r6,12(r7)
    4a10:	8809883a 	mov	r4,r17
    4a14:	dfc00217 	ldw	ra,8(sp)
    4a18:	dc400117 	ldw	r17,4(sp)
    4a1c:	dc000017 	ldw	r16,0(sp)
    4a20:	dec00304 	addi	sp,sp,12
    4a24:	000d5881 	jmpi	d588 <__malloc_unlock>
    4a28:	f800283a 	ret
    4a2c:	1006d27a 	srli	r3,r2,9
    4a30:	01000104 	movi	r4,4
    4a34:	20c04036 	bltu	r4,r3,4b38 <_free_r+0x244>
    4a38:	1006d1ba 	srli	r3,r2,6
    4a3c:	19400e04 	addi	r5,r3,56
    4a40:	2947883a 	add	r3,r5,r5
    4a44:	18c7883a 	add	r3,r3,r3
    4a48:	18c7883a 	add	r3,r3,r3
    4a4c:	1a49883a 	add	r4,r3,r9
    4a50:	20c00217 	ldw	r3,8(r4)
    4a54:	01c000b4 	movhi	r7,2
    4a58:	39e8bb04 	addi	r7,r7,-23828
    4a5c:	19003b26 	beq	r3,r4,4b4c <_free_r+0x258>
    4a60:	01ffff04 	movi	r7,-4
    4a64:	19400117 	ldw	r5,4(r3)
    4a68:	29ca703a 	and	r5,r5,r7
    4a6c:	1140022e 	bgeu	r2,r5,4a78 <_free_r+0x184>
    4a70:	18c00217 	ldw	r3,8(r3)
    4a74:	20fffb1e 	bne	r4,r3,4a64 <__alt_mem_Flash_flash_data+0xf4004a64>
    4a78:	18800317 	ldw	r2,12(r3)
    4a7c:	30800315 	stw	r2,12(r6)
    4a80:	30c00215 	stw	r3,8(r6)
    4a84:	11800215 	stw	r6,8(r2)
    4a88:	19800315 	stw	r6,12(r3)
    4a8c:	003fe006 	br	4a10 <__alt_mem_Flash_flash_data+0xf4004a10>
    4a90:	2100004c 	andi	r4,r4,1
    4a94:	1885883a 	add	r2,r3,r2
    4a98:	2000071e 	bne	r4,zero,4ab8 <_free_r+0x1c4>
    4a9c:	817ffe17 	ldw	r5,-8(r16)
    4aa0:	314dc83a 	sub	r6,r6,r5
    4aa4:	30c00317 	ldw	r3,12(r6)
    4aa8:	31000217 	ldw	r4,8(r6)
    4aac:	1145883a 	add	r2,r2,r5
    4ab0:	20c00315 	stw	r3,12(r4)
    4ab4:	19000215 	stw	r4,8(r3)
    4ab8:	10c00054 	ori	r3,r2,1
    4abc:	30c00115 	stw	r3,4(r6)
    4ac0:	00c000b4 	movhi	r3,2
    4ac4:	18efdd04 	addi	r3,r3,-16524
    4ac8:	18c00017 	ldw	r3,0(r3)
    4acc:	49800215 	stw	r6,8(r9)
    4ad0:	10ffcf36 	bltu	r2,r3,4a10 <__alt_mem_Flash_flash_data+0xf4004a10>
    4ad4:	008000b4 	movhi	r2,2
    4ad8:	10b88704 	addi	r2,r2,-7652
    4adc:	11400017 	ldw	r5,0(r2)
    4ae0:	8809883a 	mov	r4,r17
    4ae4:	00047d00 	call	47d0 <_malloc_trim_r>
    4ae8:	003fc906 	br	4a10 <__alt_mem_Flash_flash_data+0xf4004a10>
    4aec:	28c9883a 	add	r4,r5,r3
    4af0:	21000117 	ldw	r4,4(r4)
    4af4:	2100004c 	andi	r4,r4,1
    4af8:	20000a1e 	bne	r4,zero,4b24 <_free_r+0x230>
    4afc:	29000317 	ldw	r4,12(r5)
    4b00:	29400217 	ldw	r5,8(r5)
    4b04:	10c5883a 	add	r2,r2,r3
    4b08:	10c00054 	ori	r3,r2,1
    4b0c:	29000315 	stw	r4,12(r5)
    4b10:	21400215 	stw	r5,8(r4)
    4b14:	30c00115 	stw	r3,4(r6)
    4b18:	308d883a 	add	r6,r6,r2
    4b1c:	30800015 	stw	r2,0(r6)
    4b20:	003fbb06 	br	4a10 <__alt_mem_Flash_flash_data+0xf4004a10>
    4b24:	10c00054 	ori	r3,r2,1
    4b28:	30c00115 	stw	r3,4(r6)
    4b2c:	308d883a 	add	r6,r6,r2
    4b30:	30800015 	stw	r2,0(r6)
    4b34:	003fb606 	br	4a10 <__alt_mem_Flash_flash_data+0xf4004a10>
    4b38:	01000504 	movi	r4,20
    4b3c:	20c01436 	bltu	r4,r3,4b90 <_free_r+0x29c>
    4b40:	194016c4 	addi	r5,r3,91
    4b44:	2947883a 	add	r3,r5,r5
    4b48:	003fbe06 	br	4a44 <__alt_mem_Flash_flash_data+0xf4004a44>
    4b4c:	280bd0ba 	srai	r5,r5,2
    4b50:	00800044 	movi	r2,1
    4b54:	39000117 	ldw	r4,4(r7)
    4b58:	114a983a 	sll	r5,r2,r5
    4b5c:	1805883a 	mov	r2,r3
    4b60:	2908b03a 	or	r4,r5,r4
    4b64:	39000115 	stw	r4,4(r7)
    4b68:	003fc406 	br	4a7c <__alt_mem_Flash_flash_data+0xf4004a7c>
    4b6c:	49800515 	stw	r6,20(r9)
    4b70:	49800415 	stw	r6,16(r9)
    4b74:	10c00054 	ori	r3,r2,1
    4b78:	31000315 	stw	r4,12(r6)
    4b7c:	31000215 	stw	r4,8(r6)
    4b80:	30c00115 	stw	r3,4(r6)
    4b84:	308d883a 	add	r6,r6,r2
    4b88:	30800015 	stw	r2,0(r6)
    4b8c:	003fa006 	br	4a10 <__alt_mem_Flash_flash_data+0xf4004a10>
    4b90:	01001504 	movi	r4,84
    4b94:	20c00436 	bltu	r4,r3,4ba8 <_free_r+0x2b4>
    4b98:	1006d33a 	srli	r3,r2,12
    4b9c:	19401b84 	addi	r5,r3,110
    4ba0:	2947883a 	add	r3,r5,r5
    4ba4:	003fa706 	br	4a44 <__alt_mem_Flash_flash_data+0xf4004a44>
    4ba8:	01005504 	movi	r4,340
    4bac:	20c00436 	bltu	r4,r3,4bc0 <_free_r+0x2cc>
    4bb0:	1006d3fa 	srli	r3,r2,15
    4bb4:	19401dc4 	addi	r5,r3,119
    4bb8:	2947883a 	add	r3,r5,r5
    4bbc:	003fa106 	br	4a44 <__alt_mem_Flash_flash_data+0xf4004a44>
    4bc0:	01015504 	movi	r4,1364
    4bc4:	20c00436 	bltu	r4,r3,4bd8 <_free_r+0x2e4>
    4bc8:	1006d4ba 	srli	r3,r2,18
    4bcc:	19401f04 	addi	r5,r3,124
    4bd0:	2947883a 	add	r3,r5,r5
    4bd4:	003f9b06 	br	4a44 <__alt_mem_Flash_flash_data+0xf4004a44>
    4bd8:	00c03f04 	movi	r3,252
    4bdc:	01401f84 	movi	r5,126
    4be0:	003f9806 	br	4a44 <__alt_mem_Flash_flash_data+0xf4004a44>

00004be4 <_fwalk>:
    4be4:	defff704 	addi	sp,sp,-36
    4be8:	dd000415 	stw	r20,16(sp)
    4bec:	dfc00815 	stw	ra,32(sp)
    4bf0:	ddc00715 	stw	r23,28(sp)
    4bf4:	dd800615 	stw	r22,24(sp)
    4bf8:	dd400515 	stw	r21,20(sp)
    4bfc:	dcc00315 	stw	r19,12(sp)
    4c00:	dc800215 	stw	r18,8(sp)
    4c04:	dc400115 	stw	r17,4(sp)
    4c08:	dc000015 	stw	r16,0(sp)
    4c0c:	2500b804 	addi	r20,r4,736
    4c10:	a0002326 	beq	r20,zero,4ca0 <_fwalk+0xbc>
    4c14:	282b883a 	mov	r21,r5
    4c18:	002f883a 	mov	r23,zero
    4c1c:	05800044 	movi	r22,1
    4c20:	04ffffc4 	movi	r19,-1
    4c24:	a4400117 	ldw	r17,4(r20)
    4c28:	a4800217 	ldw	r18,8(r20)
    4c2c:	8c7fffc4 	addi	r17,r17,-1
    4c30:	88000d16 	blt	r17,zero,4c68 <_fwalk+0x84>
    4c34:	94000304 	addi	r16,r18,12
    4c38:	94800384 	addi	r18,r18,14
    4c3c:	80c0000b 	ldhu	r3,0(r16)
    4c40:	8c7fffc4 	addi	r17,r17,-1
    4c44:	813ffd04 	addi	r4,r16,-12
    4c48:	b0c0042e 	bgeu	r22,r3,4c5c <_fwalk+0x78>
    4c4c:	90c0000f 	ldh	r3,0(r18)
    4c50:	1cc00226 	beq	r3,r19,4c5c <_fwalk+0x78>
    4c54:	a83ee83a 	callr	r21
    4c58:	b8aeb03a 	or	r23,r23,r2
    4c5c:	84001a04 	addi	r16,r16,104
    4c60:	94801a04 	addi	r18,r18,104
    4c64:	8cfff51e 	bne	r17,r19,4c3c <__alt_mem_Flash_flash_data+0xf4004c3c>
    4c68:	a5000017 	ldw	r20,0(r20)
    4c6c:	a03fed1e 	bne	r20,zero,4c24 <__alt_mem_Flash_flash_data+0xf4004c24>
    4c70:	b805883a 	mov	r2,r23
    4c74:	dfc00817 	ldw	ra,32(sp)
    4c78:	ddc00717 	ldw	r23,28(sp)
    4c7c:	dd800617 	ldw	r22,24(sp)
    4c80:	dd400517 	ldw	r21,20(sp)
    4c84:	dd000417 	ldw	r20,16(sp)
    4c88:	dcc00317 	ldw	r19,12(sp)
    4c8c:	dc800217 	ldw	r18,8(sp)
    4c90:	dc400117 	ldw	r17,4(sp)
    4c94:	dc000017 	ldw	r16,0(sp)
    4c98:	dec00904 	addi	sp,sp,36
    4c9c:	f800283a 	ret
    4ca0:	002f883a 	mov	r23,zero
    4ca4:	003ff206 	br	4c70 <__alt_mem_Flash_flash_data+0xf4004c70>

00004ca8 <_fwalk_reent>:
    4ca8:	defff704 	addi	sp,sp,-36
    4cac:	dd400515 	stw	r21,20(sp)
    4cb0:	dfc00815 	stw	ra,32(sp)
    4cb4:	ddc00715 	stw	r23,28(sp)
    4cb8:	dd800615 	stw	r22,24(sp)
    4cbc:	dd000415 	stw	r20,16(sp)
    4cc0:	dcc00315 	stw	r19,12(sp)
    4cc4:	dc800215 	stw	r18,8(sp)
    4cc8:	dc400115 	stw	r17,4(sp)
    4ccc:	dc000015 	stw	r16,0(sp)
    4cd0:	2540b804 	addi	r21,r4,736
    4cd4:	a8002326 	beq	r21,zero,4d64 <_fwalk_reent+0xbc>
    4cd8:	2829883a 	mov	r20,r5
    4cdc:	202d883a 	mov	r22,r4
    4ce0:	002f883a 	mov	r23,zero
    4ce4:	04c00044 	movi	r19,1
    4ce8:	04bfffc4 	movi	r18,-1
    4cec:	ac400117 	ldw	r17,4(r21)
    4cf0:	ac000217 	ldw	r16,8(r21)
    4cf4:	8c7fffc4 	addi	r17,r17,-1
    4cf8:	88000c16 	blt	r17,zero,4d2c <_fwalk_reent+0x84>
    4cfc:	84000304 	addi	r16,r16,12
    4d00:	80c0000b 	ldhu	r3,0(r16)
    4d04:	8c7fffc4 	addi	r17,r17,-1
    4d08:	817ffd04 	addi	r5,r16,-12
    4d0c:	98c0052e 	bgeu	r19,r3,4d24 <_fwalk_reent+0x7c>
    4d10:	80c0008f 	ldh	r3,2(r16)
    4d14:	b009883a 	mov	r4,r22
    4d18:	1c800226 	beq	r3,r18,4d24 <_fwalk_reent+0x7c>
    4d1c:	a03ee83a 	callr	r20
    4d20:	b8aeb03a 	or	r23,r23,r2
    4d24:	84001a04 	addi	r16,r16,104
    4d28:	8cbff51e 	bne	r17,r18,4d00 <__alt_mem_Flash_flash_data+0xf4004d00>
    4d2c:	ad400017 	ldw	r21,0(r21)
    4d30:	a83fee1e 	bne	r21,zero,4cec <__alt_mem_Flash_flash_data+0xf4004cec>
    4d34:	b805883a 	mov	r2,r23
    4d38:	dfc00817 	ldw	ra,32(sp)
    4d3c:	ddc00717 	ldw	r23,28(sp)
    4d40:	dd800617 	ldw	r22,24(sp)
    4d44:	dd400517 	ldw	r21,20(sp)
    4d48:	dd000417 	ldw	r20,16(sp)
    4d4c:	dcc00317 	ldw	r19,12(sp)
    4d50:	dc800217 	ldw	r18,8(sp)
    4d54:	dc400117 	ldw	r17,4(sp)
    4d58:	dc000017 	ldw	r16,0(sp)
    4d5c:	dec00904 	addi	sp,sp,36
    4d60:	f800283a 	ret
    4d64:	002f883a 	mov	r23,zero
    4d68:	003ff206 	br	4d34 <__alt_mem_Flash_flash_data+0xf4004d34>

00004d6c <_setlocale_r>:
    4d6c:	30001b26 	beq	r6,zero,4ddc <_setlocale_r+0x70>
    4d70:	014000b4 	movhi	r5,2
    4d74:	defffe04 	addi	sp,sp,-8
    4d78:	2965b604 	addi	r5,r5,-26920
    4d7c:	3009883a 	mov	r4,r6
    4d80:	dc000015 	stw	r16,0(sp)
    4d84:	dfc00115 	stw	ra,4(sp)
    4d88:	3021883a 	mov	r16,r6
    4d8c:	0006c940 	call	6c94 <strcmp>
    4d90:	1000061e 	bne	r2,zero,4dac <_setlocale_r+0x40>
    4d94:	008000b4 	movhi	r2,2
    4d98:	10a5b504 	addi	r2,r2,-26924
    4d9c:	dfc00117 	ldw	ra,4(sp)
    4da0:	dc000017 	ldw	r16,0(sp)
    4da4:	dec00204 	addi	sp,sp,8
    4da8:	f800283a 	ret
    4dac:	014000b4 	movhi	r5,2
    4db0:	2965b504 	addi	r5,r5,-26924
    4db4:	8009883a 	mov	r4,r16
    4db8:	0006c940 	call	6c94 <strcmp>
    4dbc:	103ff526 	beq	r2,zero,4d94 <__alt_mem_Flash_flash_data+0xf4004d94>
    4dc0:	014000b4 	movhi	r5,2
    4dc4:	2965a004 	addi	r5,r5,-27008
    4dc8:	8009883a 	mov	r4,r16
    4dcc:	0006c940 	call	6c94 <strcmp>
    4dd0:	103ff026 	beq	r2,zero,4d94 <__alt_mem_Flash_flash_data+0xf4004d94>
    4dd4:	0005883a 	mov	r2,zero
    4dd8:	003ff006 	br	4d9c <__alt_mem_Flash_flash_data+0xf4004d9c>
    4ddc:	008000b4 	movhi	r2,2
    4de0:	10a5b504 	addi	r2,r2,-26924
    4de4:	f800283a 	ret

00004de8 <__locale_charset>:
    4de8:	008000b4 	movhi	r2,2
    4dec:	10a8a504 	addi	r2,r2,-23916
    4df0:	f800283a 	ret

00004df4 <__locale_mb_cur_max>:
    4df4:	008000b4 	movhi	r2,2
    4df8:	10afdb04 	addi	r2,r2,-16532
    4dfc:	10800017 	ldw	r2,0(r2)
    4e00:	f800283a 	ret

00004e04 <__locale_msgcharset>:
    4e04:	008000b4 	movhi	r2,2
    4e08:	10a89d04 	addi	r2,r2,-23948
    4e0c:	f800283a 	ret

00004e10 <__locale_cjk_lang>:
    4e10:	0005883a 	mov	r2,zero
    4e14:	f800283a 	ret

00004e18 <_localeconv_r>:
    4e18:	008000b4 	movhi	r2,2
    4e1c:	10a8ad04 	addi	r2,r2,-23884
    4e20:	f800283a 	ret

00004e24 <setlocale>:
    4e24:	00c000b4 	movhi	r3,2
    4e28:	18efda04 	addi	r3,r3,-16536
    4e2c:	2005883a 	mov	r2,r4
    4e30:	19000017 	ldw	r4,0(r3)
    4e34:	280d883a 	mov	r6,r5
    4e38:	100b883a 	mov	r5,r2
    4e3c:	0004d6c1 	jmpi	4d6c <_setlocale_r>

00004e40 <localeconv>:
    4e40:	008000b4 	movhi	r2,2
    4e44:	10a8ad04 	addi	r2,r2,-23884
    4e48:	f800283a 	ret

00004e4c <__smakebuf_r>:
    4e4c:	2880030b 	ldhu	r2,12(r5)
    4e50:	10c0008c 	andi	r3,r2,2
    4e54:	1800401e 	bne	r3,zero,4f58 <__smakebuf_r+0x10c>
    4e58:	deffec04 	addi	sp,sp,-80
    4e5c:	dc000f15 	stw	r16,60(sp)
    4e60:	2821883a 	mov	r16,r5
    4e64:	2940038f 	ldh	r5,14(r5)
    4e68:	dc401015 	stw	r17,64(sp)
    4e6c:	dfc01315 	stw	ra,76(sp)
    4e70:	dcc01215 	stw	r19,72(sp)
    4e74:	dc801115 	stw	r18,68(sp)
    4e78:	2023883a 	mov	r17,r4
    4e7c:	28001b16 	blt	r5,zero,4eec <__smakebuf_r+0xa0>
    4e80:	d80d883a 	mov	r6,sp
    4e84:	00086ec0 	call	86ec <_fstat_r>
    4e88:	10001716 	blt	r2,zero,4ee8 <__smakebuf_r+0x9c>
    4e8c:	d8800117 	ldw	r2,4(sp)
    4e90:	00e00014 	movui	r3,32768
    4e94:	10bc000c 	andi	r2,r2,61440
    4e98:	10c03726 	beq	r2,r3,4f78 <__smakebuf_r+0x12c>
    4e9c:	80c0030b 	ldhu	r3,12(r16)
    4ea0:	18c20014 	ori	r3,r3,2048
    4ea4:	80c0030d 	sth	r3,12(r16)
    4ea8:	00c80004 	movi	r3,8192
    4eac:	10c03c1e 	bne	r2,r3,4fa0 <__smakebuf_r+0x154>
    4eb0:	8140038f 	ldh	r5,14(r16)
    4eb4:	8809883a 	mov	r4,r17
    4eb8:	0008c040 	call	8c04 <_isatty_r>
    4ebc:	10004e26 	beq	r2,zero,4ff8 <__smakebuf_r+0x1ac>
    4ec0:	8080030b 	ldhu	r2,12(r16)
    4ec4:	04c00044 	movi	r19,1
    4ec8:	80c010c4 	addi	r3,r16,67
    4ecc:	14c4b03a 	or	r2,r2,r19
    4ed0:	8080030d 	sth	r2,12(r16)
    4ed4:	80c00015 	stw	r3,0(r16)
    4ed8:	80c00415 	stw	r3,16(r16)
    4edc:	84c00515 	stw	r19,20(r16)
    4ee0:	04810004 	movi	r18,1024
    4ee4:	00000706 	br	4f04 <__smakebuf_r+0xb8>
    4ee8:	8080030b 	ldhu	r2,12(r16)
    4eec:	10c0200c 	andi	r3,r2,128
    4ef0:	18001f1e 	bne	r3,zero,4f70 <__smakebuf_r+0x124>
    4ef4:	04810004 	movi	r18,1024
    4ef8:	10820014 	ori	r2,r2,2048
    4efc:	8080030d 	sth	r2,12(r16)
    4f00:	0027883a 	mov	r19,zero
    4f04:	8809883a 	mov	r4,r17
    4f08:	900b883a 	mov	r5,r18
    4f0c:	00050040 	call	5004 <_malloc_r>
    4f10:	10002e26 	beq	r2,zero,4fcc <__smakebuf_r+0x180>
    4f14:	80c0030b 	ldhu	r3,12(r16)
    4f18:	01000034 	movhi	r4,0
    4f1c:	21111004 	addi	r4,r4,17472
    4f20:	89000f15 	stw	r4,60(r17)
    4f24:	18c02014 	ori	r3,r3,128
    4f28:	80c0030d 	sth	r3,12(r16)
    4f2c:	80800015 	stw	r2,0(r16)
    4f30:	80800415 	stw	r2,16(r16)
    4f34:	84800515 	stw	r18,20(r16)
    4f38:	98001c1e 	bne	r19,zero,4fac <__smakebuf_r+0x160>
    4f3c:	dfc01317 	ldw	ra,76(sp)
    4f40:	dcc01217 	ldw	r19,72(sp)
    4f44:	dc801117 	ldw	r18,68(sp)
    4f48:	dc401017 	ldw	r17,64(sp)
    4f4c:	dc000f17 	ldw	r16,60(sp)
    4f50:	dec01404 	addi	sp,sp,80
    4f54:	f800283a 	ret
    4f58:	288010c4 	addi	r2,r5,67
    4f5c:	28800015 	stw	r2,0(r5)
    4f60:	28800415 	stw	r2,16(r5)
    4f64:	00800044 	movi	r2,1
    4f68:	28800515 	stw	r2,20(r5)
    4f6c:	f800283a 	ret
    4f70:	04801004 	movi	r18,64
    4f74:	003fe006 	br	4ef8 <__alt_mem_Flash_flash_data+0xf4004ef8>
    4f78:	81000a17 	ldw	r4,40(r16)
    4f7c:	00c00034 	movhi	r3,0
    4f80:	18db0c04 	addi	r3,r3,27696
    4f84:	20ffc51e 	bne	r4,r3,4e9c <__alt_mem_Flash_flash_data+0xf4004e9c>
    4f88:	80c0030b 	ldhu	r3,12(r16)
    4f8c:	01010004 	movi	r4,1024
    4f90:	81001315 	stw	r4,76(r16)
    4f94:	1906b03a 	or	r3,r3,r4
    4f98:	80c0030d 	sth	r3,12(r16)
    4f9c:	003fc206 	br	4ea8 <__alt_mem_Flash_flash_data+0xf4004ea8>
    4fa0:	0027883a 	mov	r19,zero
    4fa4:	04810004 	movi	r18,1024
    4fa8:	003fd606 	br	4f04 <__alt_mem_Flash_flash_data+0xf4004f04>
    4fac:	8140038f 	ldh	r5,14(r16)
    4fb0:	8809883a 	mov	r4,r17
    4fb4:	0008c040 	call	8c04 <_isatty_r>
    4fb8:	103fe026 	beq	r2,zero,4f3c <__alt_mem_Flash_flash_data+0xf4004f3c>
    4fbc:	8080030b 	ldhu	r2,12(r16)
    4fc0:	10800054 	ori	r2,r2,1
    4fc4:	8080030d 	sth	r2,12(r16)
    4fc8:	003fdc06 	br	4f3c <__alt_mem_Flash_flash_data+0xf4004f3c>
    4fcc:	8080030b 	ldhu	r2,12(r16)
    4fd0:	10c0800c 	andi	r3,r2,512
    4fd4:	183fd91e 	bne	r3,zero,4f3c <__alt_mem_Flash_flash_data+0xf4004f3c>
    4fd8:	10800094 	ori	r2,r2,2
    4fdc:	80c010c4 	addi	r3,r16,67
    4fe0:	8080030d 	sth	r2,12(r16)
    4fe4:	00800044 	movi	r2,1
    4fe8:	80c00015 	stw	r3,0(r16)
    4fec:	80c00415 	stw	r3,16(r16)
    4ff0:	80800515 	stw	r2,20(r16)
    4ff4:	003fd106 	br	4f3c <__alt_mem_Flash_flash_data+0xf4004f3c>
    4ff8:	04c00044 	movi	r19,1
    4ffc:	04810004 	movi	r18,1024
    5000:	003fc006 	br	4f04 <__alt_mem_Flash_flash_data+0xf4004f04>

00005004 <_malloc_r>:
    5004:	defff504 	addi	sp,sp,-44
    5008:	dc800315 	stw	r18,12(sp)
    500c:	dfc00a15 	stw	ra,40(sp)
    5010:	df000915 	stw	fp,36(sp)
    5014:	ddc00815 	stw	r23,32(sp)
    5018:	dd800715 	stw	r22,28(sp)
    501c:	dd400615 	stw	r21,24(sp)
    5020:	dd000515 	stw	r20,20(sp)
    5024:	dcc00415 	stw	r19,16(sp)
    5028:	dc400215 	stw	r17,8(sp)
    502c:	dc000115 	stw	r16,4(sp)
    5030:	288002c4 	addi	r2,r5,11
    5034:	00c00584 	movi	r3,22
    5038:	2025883a 	mov	r18,r4
    503c:	18802a2e 	bgeu	r3,r2,50e8 <_malloc_r+0xe4>
    5040:	047ffe04 	movi	r17,-8
    5044:	1462703a 	and	r17,r2,r17
